(lp1
ccopy_reg
_reconstructor
p2
(cdatamining.molecule
Molecule
p3
c__builtin__
object
p4
NtRp5
(dp6
S'activity'
p7
I1
sS'pIC'
p8
F-2.258633205464863
sS'id'
p9
I0
sS'name'
p10
VCHEMBL219763
p11
sbag2
(g3
g4
NtRp12
(dp13
g7
I1
sg8
F-5.6131281063880705
sg9
I1
sg10
VCHEMBL92720
p14
sbag2
(g3
g4
NtRp15
(dp16
g7
I1
sg8
F-3.2108436531709366
sg9
I3
sg10
VCHEMBL330307
p17
sbag2
(g3
g4
NtRp18
(dp19
g7
I1
sg8
F-1.791759469228055
sg9
I4
sg10
VCHEMBL370037
p20
sbag2
(g3
g4
NtRp21
(dp22
g7
I1
sg8
F-3.5553480614894135
sg9
I5
sg10
VCHEMBL315761
p23
sbag2
(g3
g4
NtRp24
(dp25
g7
I1
sg8
F-0.26236426446749106
sg9
I6
sg10
VCHEMBL180300
p26
sbag2
(g3
g4
NtRp27
(dp28
g7
I1
sg8
F-4.7361984483944957
sg9
I8
sg10
VCHEMBL365290
p29
sbag2
(g3
g4
NtRp30
(dp31
g7
I1
sg8
F-6.2672005485413624
sg9
I9
sg10
VCHEMBL191648
p32
sbag2
(g3
g4
NtRp33
(dp34
g7
I1
sg8
F-0.78845736036427028
sg9
I10
sg10
VCHEMBL184431
p35
sbag2
(g3
g4
NtRp36
(dp37
g7
I1
sg8
F-6.3261494731550991
sg9
I11
sg10
VCHEMBL364551
p38
sbag2
(g3
g4
NtRp39
(dp40
g7
I1
sg8
F-1.6094379124341003
sg9
I12
sg10
VCHEMBL124482
p41
sbag2
(g3
g4
NtRp42
(dp43
g7
I1
sg8
F-5.5053315359323625
sg9
I13
sg10
VCHEMBL198410
p44
sbag2
(g3
g4
NtRp45
(dp46
g7
I1
sg8
F-1.547562508716013
sg9
I14
sg10
VCHEMBL420068
p47
sbag2
(g3
g4
NtRp48
(dp49
g7
I1
sg8
F-4.7273878187123408
sg9
I15
sg10
VCHEMBL1200324
p50
sbag2
(g3
g4
NtRp51
(dp52
g7
I1
sg8
F-1.7047480922384253
sg9
I16
sg10
VCHEMBL93793
p53
sbag2
(g3
g4
NtRp54
(dp55
g7
I1
sg8
F-1.9169226121820611
sg9
I18
sg10
VCHEMBL184448
p56
sbag2
(g3
g4
NtRp57
(dp58
g7
I1
sg8
F-4.8121843553724171
sg9
I19
sg10
VCHEMBL195466
p59
sbag2
(g3
g4
NtRp60
(dp61
g7
I1
sg8
F-0
sg9
I21
sg10
VCHEMBL183049
p62
sbag2
(g3
g4
NtRp63
(dp64
g7
I1
sg8
F-5.3471075307174685
sg9
I22
sg10
VCHEMBL77135
p65
sbag2
(g3
g4
NtRp66
(dp67
g7
I1
sg8
F0.22314355131420971
sg9
I23
sg10
VCHEMBL183092
p68
sbag2
(g3
g4
NtRp69
(dp70
g7
I1
sg8
F-5.1929568508902104
sg9
I24
sg10
VCHEMBL78413
p71
sbag2
(g3
g4
NtRp72
(dp73
g7
I1
sg8
F-3.0440461338325417
sg9
I25
sg10
VCHEMBL316080
p74
sbag2
(g3
g4
NtRp75
(dp76
g7
I1
sg8
F-5.0106352940962555
sg9
I30
sg10
VCHEMBL434502
p77
sbag2
(g3
g4
NtRp78
(dp79
g7
I1
sg8
F-3.4965075614664802
sg9
I31
sg10
VCHEMBL1628199
p80
sbag2
(g3
g4
NtRp81
(dp82
g7
I1
sg8
F-6.6463905148477291
sg9
I33
sg10
VCHEMBL411
p83
sbag2
(g3
g4
NtRp84
(dp85
g7
I1
sg8
F-1.3862943611198906
sg9
I37
sg10
VCHEMBL123025
p86
sbag2
(g3
g4
NtRp87
(dp88
g7
I1
sg8
F-5.9322451874480109
sg9
I38
sg10
VCHEMBL153062
p89
sbag2
(g3
g4
NtRp90
(dp91
g7
I1
sg8
F-3.6635616461296463
sg9
I39
sg10
VCHEMBL83
p92
sbag2
(g3
g4
NtRp93
(dp94
g7
I1
sg8
F-4.0604430105464191
sg9
I46
sg10
VCHEMBL34679
p95
sbag2
(g3
g4
NtRp96
(dp97
g7
I1
sg8
F-0.91629073187415511
sg9
I47
sg10
VCHEMBL328716
p98
sbag2
(g3
g4
NtRp99
(dp100
g7
I1
sg8
F-1.0986122886681098
sg9
I49
sg10
VCHEMBL315271
p101
sbag2
(g3
g4
NtRp102
(dp103
g7
I1
sg8
F-6.5889264775335192
sg9
I50
sg10
VCHEMBL188049
p104
sbag2
(g3
g4
NtRp105
(dp106
g7
I1
sg8
F-4.7874917427820458
sg9
I51
sg10
VCHEMBL1462307
p107
sbag2
(g3
g4
NtRp108
(dp109
g7
I1
sg8
F-2.5649493574615367
sg9
I52
sg10
VCHEMBL1087419
p110
sbag2
(g3
g4
NtRp111
(dp112
g7
I1
sg8
F-5.2470240721604862
sg9
I55
sg10
VCHEMBL1087041
p113
sbag2
(g3
g4
NtRp114
(dp115
g7
I1
sg8
F-6.9077552789821368
sg9
I56
sg10
VCHEMBL1348802
p116
sbag2
(g3
g4
NtRp117
(dp118
g7
I1
sg8
F-4.2484952420493594
sg9
I57
sg10
VCHEMBL1322939
p119
sbag2
(g3
g4
NtRp120
(dp121
g7
I1
sg8
F-0
sg9
I58
sg10
VCHEMBL1253498
p122
sbag2
(g3
g4
NtRp123
(dp124
g7
I1
sg8
F-0.58778666490211906
sg9
I59
sg10
VCHEMBL184372
p125
sbag2
(g3
g4
NtRp126
(dp127
g7
I1
sg8
F-1.1939224684724346
sg9
I60
sg10
VCHEMBL1083186
p128
sbag2
(g3
g4
NtRp129
(dp130
g7
I1
sg8
F-4.1588830833596715
sg9
I63
sg10
VCHEMBL1085429
p131
sbag2
(g3
g4
NtRp132
(dp133
g7
I1
sg8
F-1.6094379124341003
sg9
I64
sg10
VCHEMBL1084128
p134
sbag2
(g3
g4
NtRp135
(dp136
g7
I1
sg8
F-0.33647223662121289
sg9
I66
sg10
VCHEMBL124474
p137
sbag2
(g3
g4
NtRp138
(dp139
g7
I1
sg8
F-3.6109179126442243
sg9
I67
sg10
VCHEMBL231811
p140
sbag2
(g3
g4
NtRp141
(dp142
g7
I1
sg8
F-3.2188758248682006
sg9
I68
sg10
VCHEMBL385801
p143
sbag2
(g3
g4
NtRp144
(dp145
g7
I1
sg8
F-3.7128400915587796
sg9
I69
sg10
VCHEMBL1087682
p146
sbag2
(g3
g4
NtRp147
(dp148
g7
I1
sg8
F-0.47000362924573563
sg9
I70
sg10
VCHEMBL1087811
p149
sbag2
(g3
g4
NtRp150
(dp151
g7
I1
sg8
F-2.7725887222397811
sg9
I73
sg10
VCHEMBL1086389
p152
sbag2
(g3
g4
NtRp153
(dp154
g7
I1
sg8
F-1.1151415906193203
sg9
I75
sg10
VCHEMBL427496
p155
sbag2
(g3
g4
NtRp156
(dp157
g7
I1
sg8
F-5.1059454739005803
sg9
I76
sg10
VCHEMBL225404
p158
sbag2
(g3
g4
NtRp159
(dp160
g7
I1
sg8
F-4.5325994931532563
sg9
I77
sg10
VCHEMBL222501
p161
sbag2
(g3
g4
NtRp162
(dp163
g7
I1
sg8
F-2.8449093838194073
sg9
I78
sg10
VCHEMBL226269
p164
sbag2
(g3
g4
NtRp165
(dp166
g7
I1
sg8
F-6.6463905148477291
sg9
I79
sg10
VCHEMBL1081361
p167
sbag2
(g3
g4
NtRp168
(dp169
g7
I1
sg8
F-1.0473189942805592
sg9
I80
sg10
VCHEMBL219003
p170
sbag2
(g3
g4
NtRp171
(dp172
g7
I1
sg8
F-0.83290912293510388
sg9
I81
sg10
VCHEMBL329902
p173
sbag2
(g3
g4
NtRp174
(dp175
g7
I1
sg8
F-3.970291913552122
sg9
I83
sg10
VCHEMBL235496
p176
sbag2
(g3
g4
NtRp177
(dp178
g7
I1
sg8
F-4.0253516907351496
sg9
I84
sg10
VCHEMBL235497
p179
sbag2
(g3
g4
NtRp180
(dp181
g7
I1
sg8
F-5.7868973813667077
sg9
I85
sg10
VCHEMBL1084913
p182
sbag2
(g3
g4
NtRp183
(dp184
g7
I1
sg8
F-1.1939224684724346
sg9
I86
sg10
VCHEMBL1082224
p185
sbag2
(g3
g4
NtRp186
(dp187
g7
I1
sg8
F-1.5686159179138452
sg9
I88
sg10
VCHEMBL1083194
p188
sbag2
(g3
g4
NtRp189
(dp190
g7
I1
sg8
F0.51082562376599072
sg9
I89
sg10
VCHEMBL184371
p191
sbag2
(g3
g4
NtRp192
(dp193
g7
I1
sg8
F-5.8861040314501558
sg9
I90
sg10
VCHEMBL188458
p194
sbag2
(g3
g4
NtRp195
(dp196
g7
I1
sg8
F-5.2781146592305168
sg9
I91
sg10
VCHEMBL361272
p197
sbag2
(g3
g4
NtRp198
(dp199
g7
I1
sg8
F-0.91629073187415511
sg9
I92
sg10
VCHEMBL431611
p200
sbag2
(g3
g4
NtRp201
(dp202
g7
I1
sg8
F-4.6539603501575231
sg9
I93
sg10
VCHEMBL33568
p203
sbag2
(g3
g4
NtRp204
(dp205
g7
I1
sg8
F-2.5649493574615367
sg9
I94
sg10
VCHEMBL241257
p206
sbag2
(g3
g4
NtRp207
(dp208
g7
I1
sg8
F-5.1647859739235145
sg9
I95
sg10
VCHEMBL396118
p209
sbag2
(g3
g4
NtRp210
(dp211
g7
I1
sg8
F-1.4350845252893227
sg9
I96
sg10
VCHEMBL1088344
p212
sbag2
(g3
g4
NtRp213
(dp214
g7
I1
sg8
F-5.4806389233419912
sg9
I98
sg10
VCHEMBL150279
p215
sbag2
(g3
g4
NtRp216
(dp217
g7
I1
sg8
F-6.5750758405996201
sg9
I99
sg10
VCHEMBL365625
p218
sbag2
(g3
g4
NtRp219
(dp220
g7
I1
sg8
F-6.6528630293533473
sg9
I100
sg10
VCHEMBL365016
p221
sbag2
(g3
g4
NtRp222
(dp223
g7
I1
sg8
F-5.0106352940962555
sg9
I101
sg10
VCHEMBL398841
p224
sbag2
(g3
g4
NtRp225
(dp226
g7
I1
sg8
F-1.3609765531356006
sg9
I102
sg10
VCHEMBL359774
p227
sbag2
(g3
g4
NtRp228
(dp229
g7
I1
sg8
F-3.6635616461296463
sg9
I103
sg10
VCHEMBL179929
p230
sbag2
(g3
g4
NtRp231
(dp232
g7
I1
sg8
F-0.64185388617239469
sg9
I104
sg10
VCHEMBL470993
p233
sbag2
(g3
g4
NtRp234
(dp235
g7
I1
sg8
F-1.9021075263969205
sg9
I105
sg10
VCHEMBL511269
p236
sbag2
(g3
g4
NtRp237
(dp238
g7
I1
sg8
F-2.7850112422383382
sg9
I106
sg10
VCHEMBL469512
p239
sbag2
(g3
g4
NtRp240
(dp241
g7
I1
sg8
F-4.5325994931532563
sg9
I107
sg10
VCHEMBL470785
p242
sbag2
(g3
g4
NtRp243
(dp244
g7
I1
sg8
F-4.6051701859880918
sg9
I108
sg10
VCHEMBL1087289
p245
sbag2
(g3
g4
NtRp246
(dp247
g7
I1
sg8
F-0.91629073187415511
sg9
I111
sg10
VCHEMBL1086776
p248
sbag2
(g3
g4
NtRp249
(dp250
g7
I1
sg8
F-2.9449651565003379
sg9
I114
sg10
VCHEMBL101382
p251
sbag2
(g3
g4
NtRp252
(dp253
g7
I1
sg8
F-0.53062825106217038
sg9
I120
sg10
VCHEMBL185114
p254
sbag2
(g3
g4
NtRp255
(dp256
g7
I1
sg8
F-6.8834625864130921
sg9
I121
sg10
VCHEMBL377171
p257
sbag2
(g3
g4
NtRp258
(dp259
g7
I1
sg8
F-3.929862923556477
sg9
I122
sg10
VCHEMBL385680
p260
sbag2
(g3
g4
NtRp261
(dp262
g7
I1
sg8
F-6.1820849067166321
sg9
I123
sg10
VCHEMBL204902
p263
sbag2
(g3
g4
NtRp264
(dp265
g7
I1
sg8
F-5.4293456289544411
sg9
I124
sg10
VCHEMBL206727
p266
sbag2
(g3
g4
NtRp267
(dp268
g7
I1
sg8
F-4.6151205168412597
sg9
I125
sg10
VCHEMBL206547
p269
sbag2
(g3
g4
NtRp270
(dp271
g7
I1
sg8
F-2.341805806147327
sg9
I126
sg10
VCHEMBL471626
p272
sbag2
(g3
g4
NtRp273
(dp274
g7
I1
sg8
F-4.836281906951478
sg9
I127
sg10
VCHEMBL511492
p275
sbag2
(g3
g4
NtRp276
(dp277
g7
I1
sg8
F-4.4308167988433134
sg9
I128
sg10
VCHEMBL212992
p278
sbag2
(g3
g4
NtRp279
(dp280
g7
I1
sg8
F-3.3322045101752038
sg9
I129
sg10
VCHEMBL93792
p281
sbag2
(g3
g4
NtRp282
(dp283
g7
I1
sg8
F-4.836281906951478
sg9
I130
sg10
VCHEMBL196836
p284
sbag2
(g3
g4
NtRp285
(dp286
g7
I1
sg8
F-4.5108595065168497
sg9
I131
sg10
VCHEMBL25228
p287
sbag2
(g3
g4
NtRp288
(dp289
g7
I1
sg8
F-4.2710950739665998
sg9
I132
sg10
VCHEMBL219390
p290
sbag2
(g3
g4
NtRp291
(dp292
g7
I1
sg8
F-3.912023005428146
sg9
I133
sg10
VCHEMBL328675
p293
sbag2
(g3
g4
NtRp294
(dp295
g7
I1
sg8
F-5.2257466737132017
sg9
I134
sg10
VCHEMBL194326
p296
sbag2
(g3
g4
NtRp297
(dp298
g7
I1
sg8
F-6.3403593037277517
sg9
I135
sg10
VCHEMBL209269
p299
sbag2
(g3
g4
NtRp300
(dp301
g7
I1
sg8
F-6.8341087388138382
sg9
I137
sg10
VCHEMBL33888
p302
sbag2
(g3
g4
NtRp303
(dp304
g7
I1
sg8
F-1.7749523509116738
sg9
I138
sg10
VCHEMBL93586
p305
sbag2
(g3
g4
NtRp306
(dp307
g7
I1
sg8
F-3.4330189939851112
sg9
I139
sg10
VCHEMBL328388
p308
sbag2
(g3
g4
NtRp309
(dp310
g7
I1
sg8
F-1.3660916538023711
sg9
I143
sg10
VCHEMBL385993
p311
sbag2
(g3
g4
NtRp312
(dp313
g7
I1
sg8
F-3.8286413964890951
sg9
I144
sg10
VCHEMBL523477
p314
sbag2
(g3
g4
NtRp315
(dp316
g7
I1
sg8
F-3.6888794541139363
sg9
I145
sg10
VCHEMBL191300
p317
sbag2
(g3
g4
NtRp318
(dp319
g7
I1
sg8
F-4.0604430105464191
sg9
I146
sg10
VCHEMBL447837
p320
sbag2
(g3
g4
NtRp321
(dp322
g7
I1
sg8
F-1.547562508716013
sg9
I147
sg10
VCHEMBL94280
p323
sbag2
(g3
g4
NtRp324
(dp325
g7
I1
sg8
F-6.6592939196836376
sg9
I148
sg10
VCHEMBL187314
p326
sbag2
(g3
g4
NtRp327
(dp328
g7
I1
sg8
F-3.3032169733019514
sg9
I149
sg10
VCHEMBL371308
p329
sbag2
(g3
g4
NtRp330
(dp331
g7
I1
sg8
F-3.5835189384561099
sg9
I150
sg10
VCHEMBL191710
p332
sbag2
(g3
g4
NtRp333
(dp334
g7
I1
sg8
F-0.99325177301028345
sg9
I151
sg10
VCHEMBL313941
p335
sbag2
(g3
g4
NtRp336
(dp337
g7
I1
sg8
F-5.8749307308520304
sg9
I152
sg10
VCHEMBL426085
p338
sbag2
(g3
g4
NtRp339
(dp340
g7
I1
sg8
F-5.7930136083841441
sg9
I153
sg10
VCHEMBL202691
p341
sbag2
(g3
g4
NtRp342
(dp343
g7
I1
sg8
F-6.1758672701057611
sg9
I154
sg10
VCHEMBL211493
p344
sbag2
(g3
g4
NtRp345
(dp346
g7
I1
sg8
F-6.7833252006039597
sg9
I155
sg10
VCHEMBL377475
p347
sbag2
(g3
g4
NtRp348
(dp349
g7
I1
sg8
F-6.4409465406329209
sg9
I156
sg10
VCHEMBL204024
p350
sbag2
(g3
g4
NtRp351
(dp352
g7
I1
sg8
F0.51082562376599072
sg9
I157
sg10
VCHEMBL183333
p353
sbag2
(g3
g4
NtRp354
(dp355
g7
I1
sg8
F-0
sg9
I158
sg10
VCHEMBL185231
p356
sbag2
(g3
g4
NtRp357
(dp358
g7
I1
sg8
F-3.4404180948154366
sg9
I159
sg10
VCHEMBL382734
p359
sbag2
(g3
g4
NtRp360
(dp361
g7
I1
sg8
F-4.6913478822291435
sg9
I160
sg10
VCHEMBL195807
p362
sbag2
(g3
g4
NtRp363
(dp364
g7
I1
sg8
F-6.1944053911046719
sg9
I161
sg10
VCHEMBL31127
p365
sbag2
(g3
g4
NtRp366
(dp367
g7
I1
sg8
F0.69314718055994529
sg9
I162
sg10
VCHEMBL198914
p368
sbag2
(g3
g4
NtRp369
(dp370
g7
I1
sg8
F0.916290731874155
sg9
I163
sg10
VCHEMBL372808
p371
sbag2
(g3
g4
NtRp372
(dp373
g7
I1
sg8
F0.51082562376599072
sg9
I164
sg10
VCHEMBL197495
p374
sbag2
(g3
g4
NtRp375
(dp376
g7
I1
sg8
F-4.8283137373023015
sg9
I165
sg10
VCHEMBL191901
p377
sbag2
(g3
g4
NtRp378
(dp379
g7
I1
sg8
F-3.6888794541139363
sg9
I166
sg10
VCHEMBL214207
p380
sbag2
(g3
g4
NtRp381
(dp382
g7
I1
sg8
F-3.6375861597263857
sg9
I167
sg10
VCHEMBL195216
p383
sbag2
(g3
g4
NtRp384
(dp385
g7
I1
sg8
F-0
sg9
I169
sg10
VCHEMBL241301
p386
sbag2
(g3
g4
NtRp387
(dp388
g7
I1
sg8
F-2.5649493574615367
sg9
I170
sg10
VCHEMBL241304
p389
sbag2
(g3
g4
NtRp390
(dp391
g7
I1
sg8
F-3.0910424533583161
sg9
I171
sg10
VCHEMBL241485
p392
sbag2
(g3
g4
NtRp393
(dp394
g7
I1
sg8
F-1.3862943611198906
sg9
I172
sg10
VCHEMBL437190
p395
sbag2
(g3
g4
NtRp396
(dp397
g7
I1
sg8
F-3.6381123370602833
sg9
I173
sg10
VCHEMBL101083
p398
sbag2
(g3
g4
NtRp399
(dp400
g7
I1
sg8
F-1.9459101490553132
sg9
I177
sg10
VCHEMBL50995
p401
sbag2
(g3
g4
NtRp402
(dp403
g7
I1
sg8
F-0.26236426446749106
sg9
I178
sg10
VCHEMBL182402
p404
sbag2
(g3
g4
NtRp405
(dp406
g7
I1
sg8
F-4.9344739331306915
sg9
I179
sg10
VCHEMBL188391
p407
sbag2
(g3
g4
NtRp408
(dp409
g7
I1
sg8
F0.22314355131420971
sg9
I180
sg10
VCHEMBL184598
p410
sbag2
(g3
g4
NtRp411
(dp412
g7
I1
sg8
F-0.33647223662121289
sg9
I181
sg10
VCHEMBL360315
p413
sbag2
(g3
g4
NtRp414
(dp415
g7
I1
sg8
F-4.0073331852324712
sg9
I182
sg10
VCHEMBL371777
p416
sbag2
(g3
g4
NtRp417
(dp418
g7
I1
sg8
F-2.8903717578961645
sg9
I183
sg10
VCHEMBL126164
p419
sbag2
(g3
g4
NtRp420
(dp421
g7
I1
sg8
F-2.9856819377004897
sg9
I184
sg10
VCHEMBL101719
p422
sbag2
(g3
g4
NtRp423
(dp424
g7
I1
sg8
F-4.7184988712950942
sg9
I186
sg10
VCHEMBL328475
p425
sbag2
(g3
g4
NtRp426
(dp427
g7
I1
sg8
F-1.2527629684953681
sg9
I187
sg10
VCHEMBL94225
p428
sbag2
(g3
g4
NtRp429
(dp430
g7
I1
sg8
F-6.7844570626376433
sg9
I189
sg10
VCHEMBL195786
p431
sbag2
(g3
g4
NtRp432
(dp433
g7
I1
sg8
F-5.393627546352362
sg9
I190
sg10
VCHEMBL441366
p434
sbag2
(g3
g4
NtRp435
(dp436
g7
I1
sg8
F-6.7979404129749303
sg9
I191
sg10
VCHEMBL384709
p437
sbag2
(g3
g4
NtRp438
(dp439
g7
I1
sg8
F-5.2094861528414214
sg9
I192
sg10
VCHEMBL189080
p440
sbag2
(g3
g4
NtRp441
(dp442
g7
I1
sg8
F1.5141277326297755
sg9
I193
sg10
VCHEMBL180707
p443
sbag2
(g3
g4
NtRp444
(dp445
g7
I1
sg8
F-5.1873858058407549
sg9
I195
sg10
VCHEMBL285632
p446
sbag2
(g3
g4
NtRp447
(dp448
g7
I1
sg8
F-5.8141305318250662
sg9
I196
sg10
VCHEMBL362272
p449
sbag2
(g3
g4
NtRp450
(dp451
g7
I1
sg8
F0.35667494393873245
sg9
I197
sg10
VCHEMBL367574
p452
sbag2
(g3
g4
NtRp453
(dp454
g7
I1
sg8
F-5.598421958998375
sg9
I199
sg10
VCHEMBL438516
p455
sbag2
(g3
g4
NtRp456
(dp457
g7
I1
sg8
F0.52763274208237199
sg9
I200
sg10
VCHEMBL219004
p458
sbag2
(g3
g4
NtRp459
(dp460
g7
I1
sg8
F-4.1431347263915326
sg9
I201
sg10
VCHEMBL195212
p461
sbag2
(g3
g4
NtRp462
(dp463
g7
I1
sg8
F-3.6888794541139363
sg9
I203
sg10
VCHEMBL425439
p464
sbag2
(g3
g4
NtRp465
(dp466
g7
I1
sg8
F-4.8097423517168654
sg9
I204
sg10
VCHEMBL93266
p467
sbag2
(g3
g4
NtRp468
(dp469
g7
I1
sg8
F-4.5538768916005408
sg9
I205
sg10
VCHEMBL395308
p470
sbag2
(g3
g4
NtRp471
(dp472
g7
I1
sg8
F-3.044522437723423
sg9
I206
sg10
VCHEMBL394788
p473
sbag2
(g3
g4
NtRp474
(dp475
g7
I1
sg8
F-3.5835189384561099
sg9
I207
sg10
VCHEMBL245133
p476
sbag2
(g3
g4
NtRp477
(dp478
g7
I1
sg8
F-3.3662608117812591
sg9
I208
sg10
VCHEMBL101807
p479
sbag2
(g3
g4
NtRp480
(dp481
g7
I1
sg8
F-4.7273878187123408
sg9
I212
sg10
VCHEMBL195208
p482
sbag2
(g3
g4
NtRp483
(dp484
g7
I1
sg8
F-1.0986122886681098
sg9
I213
sg10
VCHEMBL183584
p485
sbag2
(g3
g4
NtRp486
(dp487
g7
I1
sg8
F-6.1092475827643655
sg9
I216
sg10
VCHEMBL8145
p488
sbag2
(g3
g4
NtRp489
(dp490
g7
I1
sg8
F-3.912023005428146
sg9
I217
sg10
VCHEMBL435090
p491
sbag2
(g3
g4
NtRp492
(dp493
g7
I1
sg8
F-2.8903717578961645
sg9
I218
sg10
VCHEMBL1201151
p494
sbag2
(g3
g4
NtRp495
(dp496
g7
I1
sg8
F-0.076961041136128394
sg9
I219
sg10
VCHEMBL366928
p497
sbag2
(g3
g4
NtRp498
(dp499
g7
I1
sg8
F-3.8914120515240218
sg9
I220
sg10
VCHEMBL103305
p500
sbag2
(g3
g4
NtRp501
(dp502
g7
I1
sg8
F-6.9077552789821368
sg9
I224
sg10
VCHEMBL311662
p503
sbag2
(g3
g4
NtRp504
(dp505
g7
I1
sg8
F-6.2519038831658884
sg9
I225
sg10
VCHEMBL192068
p506
sbag2
(g3
g4
NtRp507
(dp508
g7
I1
sg8
F-5.6094717951849598
sg9
I226
sg10
VCHEMBL360651
p509
sbag2
(g3
g4
NtRp510
(dp511
g7
I1
sg8
F-3.1780538303479458
sg9
I227
sg10
VCHEMBL195878
p512
sbag2
(g3
g4
NtRp513
(dp514
g7
I1
sg8
F-0.75141608868392118
sg9
I228
sg10
VCHEMBL182237
p515
sbag2
(g3
g4
NtRp516
(dp517
g7
I1
sg8
F-0.18232155679395459
sg9
I229
sg10
VCHEMBL183086
p518
sbag2
(g3
g4
NtRp519
(dp520
g7
I1
sg8
F-3.8066624897703196
sg9
I230
sg10
VCHEMBL426641
p521
sbag2
(g3
g4
NtRp522
(dp523
g7
I1
sg8
F-4.2341065045972597
sg9
I231
sg10
VCHEMBL195465
p524
sbag2
(g3
g4
NtRp525
(dp526
g7
I1
sg8
F-6.0161571596983539
sg9
I233
sg10
VCHEMBL374799
p527
sbag2
(g3
g4
NtRp528
(dp529
g7
I1
sg8
F-5.7203117766074119
sg9
I234
sg10
VCHEMBL225349
p530
sbag2
(g3
g4
NtRp531
(dp532
g7
I1
sg8
F-2.8903717578961645
sg9
I235
sg10
VCHEMBL222434
p533
sbag2
(g3
g4
NtRp534
(dp535
g7
I1
sg8
F-2.8903717578961645
sg9
I236
sg10
VCHEMBL373743
p536
sbag2
(g3
g4
NtRp537
(dp538
g7
I1
sg8
F-3.970291913552122
sg9
I237
sg10
VCHEMBL451496
p539
sbag2
(g3
g4
NtRp540
(dp541
g7
I1
sg8
F-5.9295891433898946
sg9
I238
sg10
VCHEMBL186643
p542
sbag2
(g3
g4
NtRp543
(dp544
g7
I1
sg8
F-0.40546510810816438
sg9
I239
sg10
VCHEMBL362718
p545
sbag2
(g3
g4
NtRp546
(dp547
g7
I1
sg8
F-6.7452363494843626
sg9
I240
sg10
VCHEMBL74758
p548
sbag2
(g3
g4
NtRp549
(dp550
g7
I1
sg8
F-0.47000362924573563
sg9
I241
sg10
VCHEMBL418327
p551
sbag2
(g3
g4
NtRp552
(dp553
g7
I1
sg8
F-6.1944053911046719
sg9
I243
sg10
VCHEMBL83451
p554
sbag2
(g3
g4
NtRp555
(dp556
g7
I1
sg8
F-5.1929568508902104
sg9
I244
sg10
VCHEMBL77609
p557
sbag2
(g3
g4
NtRp558
(dp559
g7
I1
sg8
F-5.5606816310155276
sg9
I245
sg10
VCHEMBL187207
p560
sbag2
(g3
g4
NtRp561
(dp562
g7
I1
sg8
F-3.8918202981106265
sg9
I246
sg10
VCHEMBL284453
p563
sbag2
(g3
g4
NtRp564
(dp565
g7
I1
sg8
F0.35667494393873245
sg9
I247
sg10
VCHEMBL181248
p566
sbag2
(g3
g4
NtRp567
(dp568
g7
I1
sg8
F0.10536051565782628
sg9
I248
sg10
VCHEMBL183371
p569
sbag2
(g3
g4
NtRp570
(dp571
g7
I1
sg8
F-4.0604430105464191
sg9
I249
sg10
VCHEMBL439806
p572
sbag2
(g3
g4
NtRp573
(dp574
g7
I1
sg8
F-3.8066624897703196
sg9
I250
sg10
VCHEMBL180538
p575
sbag2
(g3
g4
NtRp576
(dp577
g7
I1
sg8
F-2.6390573296152584
sg9
I251
sg10
VCHEMBL30950
p578
sbag2
(g3
g4
NtRp579
(dp580
g7
I1
sg8
F-1.2809338454620642
sg9
I252
sg10
VCHEMBL121879
p581
sbag2
(g3
g4
NtRp582
(dp583
g7
I1
sg8
F-5.2203558250783244
sg9
I253
sg10
VCHEMBL427533
p584
sbag2
(g3
g4
NtRp585
(dp586
g7
I1
sg8
F-2.3025850929940459
sg9
I255
sg10
VCHEMBL373095
p587
sbag2
(g3
g4
NtRp588
(dp589
g7
I1
sg8
F-5.0751738152338266
sg9
I256
sg10
VCHEMBL93207
p590
sbag2
(g3
g4
NtRp591
(dp592
g7
I1
sg8
F-0.33647223662121289
sg9
I257
sg10
VCHEMBL178470
p593
sbag2
(g3
g4
NtRp594
(dp595
g7
I1
sg8
F-0.69314718055994529
sg9
I258
sg10
VCHEMBL185480
p596
sbag2
(g3
g4
NtRp597
(dp598
g7
I1
sg8
F-3.2958368660043291
sg9
I259
sg10
VCHEMBL389683
p599
sbag2
(g3
g4
NtRp600
(dp601
g7
I1
sg8
F-6.5012896705403893
sg9
I260
sg10
VCHEMBL449038
p602
sbag2
(g3
g4
NtRp603
(dp604
g7
I1
sg8
F-4.7184988712950942
sg9
I261
sg10
VCHEMBL225022
p605
sbag2
(g3
g4
NtRp606
(dp607
g7
I1
sg8
F-6.0935697700451357
sg9
I262
sg10
VCHEMBL389393
p608
sbag2
(g3
g4
NtRp609
(dp610
g7
I1
sg8
F-4.499809670330265
sg9
I263
sg10
VCHEMBL218220
p611
sbag2
(g3
g4
NtRp612
(dp613
g7
I1
sg8
F-0.69314718055994529
sg9
I264
sg10
VCHEMBL360802
p614
sbag2
(g3
g4
NtRp615
(dp616
g7
I1
sg8
F-1.4816045409242156
sg9
I265
sg10
VCHEMBL332625
p617
sbag2
(g3
g4
NtRp618
(dp619
g7
I1
sg8
F-5.5834963087816991
sg9
I266
sg10
VCHEMBL194936
p620
sbag2
(g3
g4
NtRp621
(dp622
g7
I1
sg8
F-5.3471075307174685
sg9
I267
sg10
VCHEMBL192154
p623
sbag2
(g3
g4
NtRp624
(dp625
g7
I1
sg8
F-0.26236426446749106
sg9
I268
sg10
VCHEMBL91758
p626
sbag2
(g3
g4
NtRp627
(dp628
g7
I1
sg8
F-0.47000362924573563
sg9
I269
sg10
VCHEMBL71584
p629
sbag2
(g3
g4
NtRp630
(dp631
g7
I1
sg8
F-0.26236426446749106
sg9
I272
sg10
VCHEMBL433581
p632
sbag2
(g3
g4
NtRp633
(dp634
g7
I1
sg8
F-3.5251833614431467
sg9
I273
sg10
VCHEMBL100617
p635
sbag2
(g3
g4
NtRp636
(dp637
g7
I1
sg8
F-4.2621163380013236
sg9
I277
sg10
VCHEMBL434346
p638
sbag2
(g3
g4
NtRp639
(dp640
g7
I1
sg8
F-4.2626798770413155
sg9
I279
sg10
VCHEMBL33890
p641
sbag2
(g3
g4
NtRp642
(dp643
g7
I1
sg8
F-0.91629073187415511
sg9
I280
sg10
VCHEMBL359671
p644
sbag2
(g3
g4
NtRp645
(dp646
g7
I1
sg8
F-6.7696419768525029
sg9
I281
sg10
VCHEMBL204664
p647
sbag2
(g3
g4
NtRp648
(dp649
g7
I1
sg8
F-6.7214257007906433
sg9
I282
sg10
VCHEMBL425399
p650
sbag2
(g3
g4
NtRp651
(dp652
g7
I1
sg8
F-6.9077552789821368
sg9
I283
sg10
VCHEMBL201364
p653
sbag2
(g3
g4
NtRp654
(dp655
g7
I1
sg8
F-5.2729995585637468
sg9
I284
sg10
VCHEMBL381298
p656
sbag2
(g3
g4
NtRp657
(dp658
g7
I1
sg8
F-6.1484682959176471
sg9
I285
sg10
VCHEMBL204025
p659
sbag2
(g3
g4
NtRp660
(dp661
g7
I1
sg8
F-3.7376696182833684
sg9
I286
sg10
VCHEMBL264655
p662
sbag2
(g3
g4
NtRp663
(dp664
g7
I1
sg8
F-3.2580965380214821
sg9
I287
sg10
VCHEMBL202500
p665
sbag2
(g3
g4
NtRp666
(dp667
g7
I1
sg8
F-2.5649493574615367
sg9
I288
sg10
VCHEMBL202615
p668
sbag2
(g3
g4
NtRp669
(dp670
g7
I1
sg8
F-5.768320995793772
sg9
I289
sg10
VCHEMBL201013
p671
sbag2
(g3
g4
NtRp672
(dp673
g7
I1
sg8
F-5.9480349891806457
sg9
I290
sg10
VCHEMBL385279
p674
sbag2
(g3
g4
NtRp675
(dp676
g7
I1
sg8
F-6.0776422433490342
sg9
I291
sg10
VCHEMBL219387
p677
sbag2
(g3
g4
NtRp678
(dp679
g7
I1
sg8
F-1.2237754316221157
sg9
I292
sg10
VCHEMBL90794
p680
sbag2
(g3
g4
NtRp681
(dp682
g7
I1
sg8
F-2.8903717578961645
sg9
I293
sg10
VCHEMBL195371
p683
sbag2
(g3
g4
NtRp684
(dp685
g7
I1
sg8
F-3.8501476017100584
sg9
I294
sg10
VCHEMBL187915
p686
sbag2
(g3
g4
NtRp687
(dp688
g7
I1
sg8
F-4.5108595065168497
sg9
I295
sg10
VCHEMBL364092
p689
sbag2
(g3
g4
NtRp690
(dp691
g7
I1
sg8
F-3.0007198150650303
sg9
I296
sg10
VCHEMBL93826
p692
sbag2
(g3
g4
NtRp693
(dp694
g7
I1
sg8
F-3.0910424533583161
sg9
I297
sg10
VCHEMBL193726
p695
sbag2
(g3
g4
NtRp696
(dp697
g7
I1
sg8
F-1.6486586255873816
sg9
I298
sg10
VCHEMBL420244
p698
sbag2
(g3
g4
NtRp699
(dp700
g7
I1
sg8
F-4.5849674786705723
sg9
I299
sg10
VCHEMBL192218
p701
sbag2
(g3
g4
NtRp702
(dp703
g7
I1
sg8
F-0.3293037471426003
sg9
I300
sg10
VCHEMBL441499
p704
sbag2
(g3
g4
NtRp705
(dp706
g7
I1
sg8
F-4.6634390941120669
sg9
I301
sg10
VCHEMBL426461
p707
sbag2
(g3
g4
NtRp708
(dp709
g7
I1
sg8
F-0.91629073187415511
sg9
I303
sg10
VCHEMBL183084
p710
sbag2
(g3
g4
NtRp711
(dp712
g7
I1
sg8
F-6.2897155709089976
sg9
I304
sg10
VCHEMBL187000
p713
sbag2
(g3
g4
NtRp714
(dp715
g7
I1
sg8
F-5.4680601411351315
sg9
I305
sg10
VCHEMBL206584
p716
sbag2
(g3
g4
NtRp717
(dp718
g7
I1
sg8
F-4.3040650932041702
sg9
I306
sg10
VCHEMBL203565
p719
sbag2
(g3
g4
NtRp720
(dp721
g7
I1
sg8
F-3.9889840465642745
sg9
I307
sg10
VCHEMBL382598
p722
sbag2
(g3
g4
NtRp723
(dp724
g7
I1
sg8
F-4.4067192472642533
sg9
I308
sg10
VCHEMBL385358
p725
sbag2
(g3
g4
NtRp726
(dp727
g7
I1
sg8
F-4.3694478524670215
sg9
I309
sg10
VCHEMBL383533
p728
sbag2
(g3
g4
NtRp729
(dp730
g7
I1
sg8
F-4.3820266346738812
sg9
I310
sg10
VCHEMBL219577
p731
sbag2
(g3
g4
NtRp732
(dp733
g7
I1
sg8
F-0
sg9
I311
sg10
VCHEMBL391910
p734
sbag2
(g3
g4
NtRp735
(dp736
g7
I1
sg8
F-2.0794415416798357
sg9
I312
sg10
VCHEMBL241303
p737
sbag2
(g3
g4
NtRp738
(dp739
g7
I1
sg8
F-2.9957322735539909
sg9
I313
sg10
VCHEMBL240227
p740
sbag2
(g3
g4
NtRp741
(dp742
g7
I1
sg8
F0.41551544396166579
sg9
I314
sg10
VCHEMBL362428
p743
sbag2
(g3
g4
NtRp744
(dp745
g7
I1
sg8
F0.69314718055994529
sg9
I315
sg10
VCHEMBL367350
p746
sbag2
(g3
g4
NtRp747
(dp748
g7
I1
sg8
F0.35667494393873245
sg9
I317
sg10
VCHEMBL434525
p749
sbag2
(g3
g4
NtRp750
(dp751
g7
I1
sg8
F-4.6728288344619058
sg9
I318
sg10
VCHEMBL365999
p752
sbag2
(g3
g4
NtRp753
(dp754
g7
I1
sg8
F-4.5429755823949733
sg9
I319
sg10
VCHEMBL323119
p755
sbag2
(g3
g4
NtRp756
(dp757
g7
I1
sg8
F-5.3565862746720123
sg9
I323
sg10
VCHEMBL198411
p758
sbag2
(g3
g4
NtRp759
(dp760
g7
I1
sg8
F-6.0661080901037474
sg9
I324
sg10
VCHEMBL186945
p761
sbag2
(g3
g4
NtRp762
(dp763
g7
I1
sg8
F-6.1202974189509503
sg9
I325
sg10
VCHEMBL197667
p764
sbag2
(g3
g4
NtRp765
(dp766
g7
I1
sg8
F-6.3919171133926023
sg9
I326
sg10
VCHEMBL206406
p767
sbag2
(g3
g4
NtRp768
(dp769
g7
I1
sg8
F-5.4161004022044201
sg9
I327
sg10
VCHEMBL381697
p770
sbag2
(g3
g4
NtRp771
(dp772
g7
I1
sg8
F-5.0689042022202315
sg9
I328
sg10
VCHEMBL204922
p773
sbag2
(g3
g4
NtRp774
(dp775
g7
I1
sg8
F-6.4831073514571989
sg9
I329
sg10
VCHEMBL206600
p776
sbag2
(g3
g4
NtRp777
(dp778
g7
I1
sg8
F-6.1903154058531475
sg9
I330
sg10
VCHEMBL206227
p779
sbag2
(g3
g4
NtRp780
(dp781
g7
I1
sg8
F-4.5325994931532563
sg9
I331
sg10
VCHEMBL211816
p782
sbag2
(g3
g4
NtRp783
(dp784
g7
I1
sg8
F-5.8861040314501558
sg9
I332
sg10
VCHEMBL208929
p785
sbag2
(g3
g4
NtRp786
(dp787
g7
I1
sg8
F-6.1527326947041043
sg9
I333
sg10
VCHEMBL209623
p788
sbag2
(g3
g4
NtRp789
(dp790
g7
I1
sg8
F-4.4067192472642533
sg9
I334
sg10
VCHEMBL211887
p791
sbag2
(g3
g4
NtRp792
(dp793
g7
I1
sg8
F0.69314718055994529
sg9
I335
sg10
VCHEMBL181862
p794
sbag2
(g3
g4
NtRp795
(dp796
g7
I1
sg8
F0.35667494393873245
sg9
I336
sg10
VCHEMBL184202
p797
sbag2
(g3
g4
NtRp798
(dp799
g7
I1
sg8
F-6.1985600140005843
sg9
I338
sg10
VCHEMBL1096975
p800
sbag2
(g3
g4
NtRp801
(dp802
g7
I1
sg8
F-6.6656837177824082
sg9
I339
sg10
VCHEMBL205934
p803
sbag2
(g3
g4
NtRp804
(dp805
g7
I1
sg8
F-5.8141305318250662
sg9
I340
sg10
VCHEMBL381337
p806
sbag2
(g3
g4
NtRp807
(dp808
g7
I1
sg8
F-5.181783550292085
sg9
I341
sg10
VCHEMBL206814
p809
sbag2
(g3
g4
NtRp810
(dp811
g7
I1
sg8
F-5.7004435733906869
sg9
I342
sg10
VCHEMBL191238
p812
sbag2
(g3
g4
NtRp813
(dp814
g7
I1
sg8
F-1.3862943611198906
sg9
I343
sg10
VCHEMBL1358
p815
sbag2
(g3
g4
NtRp816
(dp817
g7
I1
sg8
F-5.768320995793772
sg9
I347
sg10
VCHEMBL77620
p818
sbag2
(g3
g4
NtRp819
(dp820
g7
I1
sg8
F-3.044522437723423
sg9
I348
sg10
VCHEMBL331996
p821
sbag2
(g3
g4
NtRp822
(dp823
g7
I1
sg8
F-3.2580965380214821
sg9
I349
sg10
VCHEMBL363634
p824
sbag2
(g3
g4
NtRp825
(dp826
g7
I1
sg8
F-3.4330189939851112
sg9
I350
sg10
VCHEMBL101997
p827
sbag2
(g3
g4
NtRp828
(dp829
g7
I1
sg8
F-5.575949103146316
sg9
I354
sg10
VCHEMBL185890
p830
sbag2
(g3
g4
NtRp831
(dp832
g7
I1
sg8
F0.916290731874155
sg9
I355
sg10
VCHEMBL185083
p833
sbag2
(g3
g4
NtRp834
(dp835
g7
I1
sg8
F-3.5553480614894135
sg9
I356
sg10
VCHEMBL24950
p836
sbag2
(g3
g4
NtRp837
(dp838
g7
I1
sg8
F-6.0258659738253142
sg9
I358
sg10
VCHEMBL373987
p839
sbag2
(g3
g4
NtRp840
(dp841
g7
I1
sg8
F-6.4052284580308418
sg9
I359
sg10
VCHEMBL213950
p842
sbag2
(g3
g4
NtRp843
(dp844
g7
I1
sg8
F-3.2958368660043291
sg9
I360
sg10
VCHEMBL389907
p845
sbag2
(g3
g4
NtRp846
(dp847
g7
I1
sg8
F-6.3315018498936908
sg9
I361
sg10
VCHEMBL316292
p848
sbag2
(g3
g4
NtRp849
(dp850
g7
I1
sg8
F-5.8377304471659395
sg9
I362
sg10
VCHEMBL363633
p851
sbag2
(g3
g4
NtRp852
(dp853
g7
I1
sg8
F-2.4849066497880004
sg9
I363
sg10
VCHEMBL182850
p854
sbag2
(g3
g4
NtRp855
(dp856
g7
I1
sg8
F-0.53062825106217038
sg9
I364
sg10
VCHEMBL361751
p857
sbag2
(g3
g4
NtRp858
(dp859
g7
I1
sg8
F-5.0814043649844631
sg9
I365
sg10
VCHEMBL188189
p860
sbag2
(g3
g4
NtRp861
(dp862
g7
I1
sg8
F-3.3945083935113587
sg9
I366
sg10
VCHEMBL412907
p863
sbag2
(g3
g4
NtRp864
(dp865
g7
I1
sg8
F-4.1743872698956368
sg9
I367
sg10
VCHEMBL316003
p866
sbag2
(g3
g4
NtRp867
(dp868
g7
I1
sg8
F-4.219507705176107
sg9
I368
sg10
VCHEMBL33808
p869
sbag2
(g3
g4
NtRp870
(dp871
g7
I1
sg8
F-3.1780538303479458
sg9
I369
sg10
VCHEMBL360410
p872
sbag2
(g3
g4
NtRp873
(dp874
g7
I1
sg8
F-6.4488893941468577
sg9
I370
sg10
VCHEMBL196530
p875
sbag2
(g3
g4
NtRp876
(dp877
g7
I1
sg8
F-5.7589017738772803
sg9
I371
sg10
VCHEMBL203810
p878
sbag2
(g3
g4
NtRp879
(dp880
g7
I1
sg8
F-6.0161571596983539
sg9
I372
sg10
VCHEMBL203061
p881
sbag2
(g3
g4
NtRp882
(dp883
g7
I1
sg8
F-5.1929568508902104
sg9
I373
sg10
VCHEMBL440283
p884
sbag2
(g3
g4
NtRp885
(dp886
g7
I1
sg8
F0.69314718055994529
sg9
I374
sg10
VCHEMBL359633
p887
sbag2
(g3
g4
NtRp888
(dp889
g7
I1
sg8
F-6.2952660014396464
sg9
I375
sg10
VCHEMBL83060
p890
sbag2
(g3
g4
NtRp891
(dp892
g7
I1
sg8
F-4.5432947822700038
sg9
I376
sg10
VCHEMBL1627356
p893
sbag2
(g3
g4
NtRp894
(dp895
g7
I1
sg8
F-4.4426512564903167
sg9
I377
sg10
VCHEMBL1087288
p896
sbag2
(g3
g4
NtRp897
(dp898
g7
I1
sg8
F-0.78845736036427028
sg9
I378
sg10
VCHEMBL1087545
p899
sbag2
(g3
g4
NtRp900
(dp901
g7
I1
sg8
F-1.7578579175523736
sg9
I381
sg10
VCHEMBL1087298
p902
sbag2
(g3
g4
NtRp903
(dp904
g7
I1
sg8
F-1.8405496333974869
sg9
I383
sg10
VCHEMBL1086652
p905
sbag2
(g3
g4
NtRp906
(dp907
g7
I1
sg8
F-6.2106000770246528
sg9
I386
sg10
VCHEMBL184003
p908
sbag2
(g3
g4
NtRp909
(dp910
g7
I1
sg8
F-6.6883547139467616
sg9
I387
sg10
VCHEMBL182751
p911
sbag2
(g3
g4
NtRp912
(dp913
g7
I1
sg8
F-6.0234475929610332
sg9
I388
sg10
VCHEMBL33230
p914
sbag2
(g3
g4
NtRp915
(dp916
g7
I1
sg8
F-3.7612001156935624
sg9
I389
sg10
VCHEMBL491705
p917
sbag2
(g3
g4
NtRp918
(dp919
g7
I1
sg8
F-1.7578579175523736
sg9
I390
sg10
VCHEMBL1088343
p920
sbag2
(g3
g4
NtRp921
(dp922
g7
I1
sg8
F-6.9077552789821368
sg9
I392
sg10
VCHEMBL1086388
p923
sbag2
(g3
g4
NtRp924
(dp925
g7
I1
sg8
F-5.1929568508902104
sg9
I393
sg10
VCHEMBL1082529
p926
sbag2
(g3
g4
NtRp927
(dp928
g7
I1
sg8
F-3.7612001156935624
sg9
I394
sg10
VCHEMBL192876
p929
sbag2
(g3
g4
NtRp930
(dp931
g7
I1
sg8
F-5.0875963352323836
sg9
I395
sg10
VCHEMBL192055
p932
sbag2
(g3
g4
NtRp933
(dp934
g7
I1
sg8
F-2.5649493574615367
sg9
I397
sg10
VCHEMBL1084127
p935
sbag2
(g3
g4
NtRp936
(dp937
g7
I1
sg8
F0.80296204656715187
sg9
I399
sg10
VCHEMBL691
p938
sbag2
(g3
g4
NtRp939
(dp940
g7
I1
sg8
F-5.0434251169192468
sg9
I402
sg10
VCHEMBL340111
p941
sbag2
(g3
g4
NtRp942
(dp943
g7
I1
sg8
F-1.3862943611198906
sg9
I403
sg10
VCHEMBL92635
p944
sbag2
(g3
g4
NtRp945
(dp946
g7
I1
sg8
F-0.91629073187415511
sg9
I405
sg10
VCHEMBL181944
p947
sbag2
(g3
g4
NtRp948
(dp949
g7
I1
sg8
F-1.0986122886681098
sg9
I406
sg10
VCHEMBL85650
p950
sbag2
(g3
g4
NtRp951
(dp952
g7
I1
sg8
F0.10536051565782628
sg9
I407
sg10
VCHEMBL183388
p953
sbag2
(g3
g4
NtRp954
(dp955
g7
I1
sg8
F-4.8598124043616719
sg9
I408
sg10
VCHEMBL211614
p956
sbag2
(g3
g4
NtRp957
(dp958
g7
I1
sg8
F-4.9487598903781684
sg9
I409
sg10
VCHEMBL214693
p959
sbag2
(g3
g4
NtRp960
(dp961
g7
I1
sg8
F-4.9052747784384296
sg9
I410
sg10
VCHEMBL44
p962
sbag2
(g3
g4
NtRp963
(dp964
g7
I1
sg8
F-3.9396381724611196
sg9
I422
sg10
VCHEMBL196283
p965
sbag2
(g3
g4
NtRp966
(dp967
g7
I1
sg8
F-6.3062752869480159
sg9
I423
sg10
VCHEMBL195154
p968
sbag2
(g3
g4
NtRp969
(dp970
g7
I1
sg8
F-3.8286413964890951
sg9
I424
sg10
VCHEMBL363498
p971
sbag2
(g3
g4
NtRp972
(dp973
g7
I1
sg8
F-5.0937502008067623
sg9
I425
sg10
VCHEMBL183368
p974
sbag2
(g3
g4
NtRp975
(dp976
g7
I1
sg8
F-4.0604430105464191
sg9
I426
sg10
VCHEMBL215409
p977
sbag2
(g3
g4
NtRp978
(dp979
g7
I1
sg8
F-3.8958936234982624
sg9
I427
sg10
VCHEMBL384268
p980
sbag2
(g3
g4
NtRp981
(dp982
g7
I1
sg8
F-5.1059454739005803
sg9
I428
sg10
VCHEMBL313849
p983
sbag2
(g3
g4
NtRp984
(dp985
g7
I1
sg8
F-6.3919171133926023
sg9
I429
sg10
VCHEMBL203348
p986
sbag2
(g3
g4
NtRp987
(dp988
g7
I1
sg8
F-2.8903717578961645
sg9
I430
sg10
VCHEMBL371072
p989
sbag2
(g3
g4
NtRp990
(dp991
g7
I1
sg8
F1.3093333199837622
sg9
I431
sg10
VCHEMBL180873
p992
sbag2
(g3
g4
NtRp993
(dp994
g7
I1
sg8
F-4.8040210447332568
sg9
I433
sg10
VCHEMBL191711
p995
sbag2
(g3
g4
NtRp996
(dp997
g7
I1
sg8
F-4.5643481914678361
sg9
I434
sg10
VCHEMBL225081
p998
sbag2
(g3
g4
NtRp999
(dp1000
g7
I1
sg8
F-5.0434251169192468
sg9
I435
sg10
VCHEMBL231812
p1001
sbag2
(g3
g4
NtRp1002
(dp1003
g7
I1
sg8
F-0
sg9
I436
sg10
VCHEMBL182887
p1004
sbag2
(g3
g4
NtRp1005
(dp1006
g7
I1
sg8
F-1.4586150226995167
sg9
I437
sg10
VCHEMBL281499
p1007
sbag2
(g3
g4
NtRp1008
(dp1009
g7
I1
sg8
F-1.2809338454620642
sg9
I439
sg10
VCHEMBL386948
p1010
sbag2
(g3
g4
NtRp1011
(dp1012
g7
I1
sg8
F-4.8751973232011512
sg9
I440
sg10
VCHEMBL362966
p1013
sbag2
(g3
g4
NtRp1014
(dp1015
g7
I1
sg8
F-4.7957905455967413
sg9
I441
sg10
VCHEMBL380359
p1016
sbag2
(g3
g4
NtRp1017
(dp1018
g7
I1
sg8
F-4.9836066217083363
sg9
I442
sg10
VCHEMBL213337
p1019
sbag2
(g3
g4
NtRp1020
(dp1021
g7
I1
sg8
F-6.6758232216348476
sg9
I443
sg10
VCHEMBL385693
p1022
sbag2
(g3
g4
NtRp1023
(dp1024
g7
I1
sg8
F-1.1314021114911006
sg9
I444
sg10
VCHEMBL192765
p1025
sbag2
(g3
g4
NtRp1026
(dp1027
g7
I1
sg8
F-4.5217885770490405
sg9
I445
sg10
VCHEMBL193727
p1028
sbag2
(g3
g4
NtRp1029
(dp1030
g7
I1
sg8
F-5.0304379213924353
sg9
I446
sg10
VCHEMBL183367
p1031
sbag2
(g3
g4
NtRp1032
(dp1033
g7
I1
sg8
F-4.3820266346738812
sg9
I447
sg10
VCHEMBL1395826
p1034
sbag2
(g3
g4
NtRp1035
(dp1036
g7
I1
sg8
F-4.499809670330265
sg9
I448
sg10
VCHEMBL1434189
p1037
sbag2
(g3
g4
NtRp1038
(dp1039
g7
I1
sg8
F-6.0063531596017325
sg9
I449
sg10
VCHEMBL371126
p1040
sbag2
(g3
g4
NtRp1041
(dp1042
g7
I1
sg8
F-3.0910424533583161
sg9
I450
sg10
VCHEMBL216024
p1043
sbag2
(g3
g4
NtRp1044
(dp1045
g7
I1
sg8
F-1.7173950539391927
sg9
I451
sg10
VCHEMBL472468
p1046
sbag2
(g3
g4
NtRp1047
(dp1048
g7
I1
sg8
F-4.1108738641733114
sg9
I452
sg10
VCHEMBL420623
p1049
sbag2
(g3
g4
NtRp1050
(dp1051
g7
I1
sg8
F-5.575949103146316
sg9
I454
sg10
VCHEMBL209803
p1052
sbag2
(g3
g4
NtRp1053
(dp1054
g7
I1
sg8
F-3.4011973816621555
sg9
I455
sg10
VCHEMBL209402
p1055
sbag2
(g3
g4
NtRp1056
(dp1057
g7
I1
sg8
F-5.2983173665480363
sg9
I456
sg10
VCHEMBL204970
p1058
sbag2
(g3
g4
NtRp1059
(dp1060
g7
I1
sg8
F-0
sg9
I457
sg10
VCHEMBL203472
p1061
sbag2
(g3
g4
NtRp1062
(dp1063
g7
I1
sg8
F-5.0434251169192468
sg9
I458
sg10
VCHEMBL425092
p1064
sbag2
(g3
g4
NtRp1065
(dp1066
g7
I1
sg8
F-3.713572066704308
sg9
I459
sg10
VCHEMBL380469
p1067
sbag2
(g3
g4
NtRp1068
(dp1069
g7
I1
sg8
F-4.8520302639196169
sg9
I460
sg10
VCHEMBL208978
p1070
sbag2
(g3
g4
NtRp1071
(dp1072
g7
I1
sg8
F-5.1704839950381514
sg9
I461
sg10
VCHEMBL377644
p1073
sbag2
(g3
g4
NtRp1074
(dp1075
g7
I1
sg8
F-5.6970934865054046
sg9
I462
sg10
VCHEMBL232023
p1076
sbag2
(g3
g4
NtRp1077
(dp1078
g7
I1
sg8
F-1.0986122886681098
sg9
I463
sg10
VCHEMBL191836
p1079
sbag2
(g3
g4
NtRp1080
(dp1081
g7
I1
sg8
F-4.5849674786705723
sg9
I464
sg10
VCHEMBL189356
p1082
sbag2
(g3
g4
NtRp1083
(dp1084
g7
I1
sg8
F-4.5432947822700038
sg9
I465
sg10
VCHEMBL93546
p1085
sbag2
(g3
g4
NtRp1086
(dp1087
g7
I1
sg8
F-4.3820266346738812
sg9
I467
sg10
VCHEMBL520107
p1088
sbag2
(g3
g4
NtRp1089
(dp1090
g7
I1
sg8
F-5.5412635451584258
sg9
I468
sg10
VCHEMBL1441930
p1091
sbag2
(g3
g4
NtRp1092
(dp1093
g7
I1
sg8
F-1.3609765531356006
sg9
I469
sg10
VCHEMBL85881
p1094
sbag2
(g3
g4
NtRp1095
(dp1096
g7
I1
sg8
F-3.4011973816621555
sg9
I470
sg10
VCHEMBL347560
p1097
sbag2
(g3
g4
NtRp1098
(dp1099
g7
I1
sg8
F-5.9026333334013659
sg9
I471
sg10
VCHEMBL25580
p1100
sbag2
(g3
g4
NtRp1101
(dp1102
g7
I1
sg8
F-3.6635616461296463
sg9
I472
sg10
VCHEMBL221515
p1103
sbag2
(g3
g4
NtRp1104
(dp1105
g7
I1
sg8
F-2.7080502011022101
sg9
I473
sg10
VCHEMBL389394
p1106
sbag2
(g3
g4
NtRp1107
(dp1108
g7
I1
sg8
F-3.4339872044851463
sg9
I474
sg10
VCHEMBL374277
p1109
sbag2
(g3
g4
NtRp1110
(dp1111
g7
I1
sg8
F-3.572345637857985
sg9
I475
sg10
VCHEMBL226379
p1112
sbag2
(g3
g4
NtRp1113
(dp1114
g7
I1
sg8
F-4.7874917427820458
sg9
I476
sg10
VCHEMBL1318094
p1115
sbag2
(g3
g4
NtRp1116
(dp1117
g7
I1
sg8
F-0.26236426446749106
sg9
I477
sg10
VCHEMBL368449
p1118
sbag2
(g3
g4
NtRp1119
(dp1120
g7
I1
sg8
F-2.2192034840549946
sg9
I478
sg10
VCHEMBL92900
p1121
sbag2
(g3
g4
NtRp1122
(dp1123
g7
I1
sg8
F-4.290459441148391
sg9
I479
sg10
VCHEMBL191759
p1124
sbag2
(g3
g4
NtRp1125
(dp1126
g7
I1
sg8
F-5.4424177105217932
sg9
I480
sg10
VCHEMBL365941
p1127
sbag2
(g3
g4
NtRp1128
(dp1129
g7
I1
sg8
F-4.962844630259907
sg9
I481
sg10
VCHEMBL191808
p1130
sbag2
(g3
g4
NtRp1131
(dp1132
g7
I1
sg8
F-1.275362800412609
sg9
I482
sg10
VCHEMBL360978
p1133
sbag2
(g3
g4
NtRp1134
(dp1135
g7
I1
sg8
F-5.0937502008067623
sg9
I483
sg10
VCHEMBL372011
p1136
sbag2
(g3
g4
NtRp1137
(dp1138
g7
I1
sg8
F-4.5517694092609764
sg9
I485
sg10
VCHEMBL200232
p1139
sbag2
(g3
g4
NtRp1140
(dp1141
g7
I1
sg8
F-6.0014148779611505
sg9
I486
sg10
VCHEMBL379234
p1142
sbag2
(g3
g4
NtRp1143
(dp1144
g7
I1
sg8
F-5.6058020662959978
sg9
I487
sg10
VCHEMBL203402
p1145
sbag2
(g3
g4
NtRp1146
(dp1147
g7
I1
sg8
F-6.4393503711000983
sg9
I488
sg10
VCHEMBL202673
p1148
sbag2
(g3
g4
NtRp1149
(dp1150
g7
I1
sg8
F-4.8598124043616719
sg9
I489
sg10
VCHEMBL203072
p1151
sbag2
(g3
g4
NtRp1152
(dp1153
g7
I1
sg8
F-5.5333894887275203
sg9
I490
sg10
VCHEMBL204434
p1154
sbag2
(g3
g4
NtRp1155
(dp1156
g7
I1
sg8
F-3.1780538303479458
sg9
I491
sg10
VCHEMBL383691
p1157
sbag2
(g3
g4
NtRp1158
(dp1159
g7
I1
sg8
F-1.6094379124341003
sg9
I492
sg10
VCHEMBL202472
p1160
sbag2
(g3
g4
NtRp1161
(dp1162
g7
I1
sg8
F-6.7934661325800096
sg9
I493
sg10
VCHEMBL378581
p1163
sbag2
(g3
g4
NtRp1164
(dp1165
g7
I1
sg8
F-2.3978952727983707
sg9
I494
sg10
VCHEMBL241300
p1166
sbag2
(g3
g4
NtRp1167
(dp1168
g7
I1
sg8
F-5.934894195619588
sg9
I495
sg10
VCHEMBL393179
p1169
sbag2
(g3
g4
NtRp1170
(dp1171
g7
I1
sg8
F-3.6888794541139363
sg9
I496
sg10
VCHEMBL442249
p1172
sbag2
(g3
g4
NtRp1173
(dp1174
g7
I1
sg8
F-4.2341065045972597
sg9
I497
sg10
VCHEMBL238959
p1175
sbag2
(g3
g4
NtRp1176
(dp1177
g7
I1
sg8
F-2.4069451083182885
sg9
I498
sg10
VCHEMBL1087919
p1178
sbag2
(g3
g4
NtRp1179
(dp1180
g7
I1
sg8
F-4.7004803657924166
sg9
I500
sg10
VCHEMBL153405
p1181
sbag2
(g3
g4
NtRp1182
(dp1183
g7
I1
sg8
F-0
sg9
I501
sg10
VCHEMBL327320
p1184
sbag2
(g3
g4
NtRp1185
(dp1186
g7
I1
sg8
F-2.6390573296152584
sg9
I504
sg10
VCHEMBL178559
p1187
sbag2
(g3
g4
NtRp1188
(dp1189
g7
I1
sg8
F-3.7909846770510898
sg9
I505
sg10
VCHEMBL94080
p1190
sbag2
(g3
g4
NtRp1191
(dp1192
g7
I1
sg8
F-0.54232429082536171
sg9
I506
sg10
VCHEMBL180973
p1193
sbag2
(g3
g4
NtRp1194
(dp1195
g7
I1
sg8
F-5.5031747401749289
sg9
I507
sg10
VCHEMBL1098709
p1196
sbag2
(g3
g4
NtRp1197
(dp1198
g7
I1
sg8
F-3.8613610906259179
sg9
I508
sg10
VCHEMBL1098710
p1199
sbag2
(g3
g4
NtRp1200
(dp1201
g7
I1
sg8
F-3.4339872044851463
sg9
I509
sg10
VCHEMBL144431
p1202
sbag2
(g3
g4
NtRp1203
(dp1204
g7
I1
sg8
F-5.0106352940962555
sg9
I510
sg10
VCHEMBL415864
p1205
sbag2
(g3
g4
NtRp1206
(dp1207
g7
I1
sg8
F-4.9272536851572051
sg9
I511
sg10
VCHEMBL189658
p1208
sbag2
(g3
g4
NtRp1209
(dp1210
g7
I1
sg8
F-5.4595855141441589
sg9
I512
sg10
VCHEMBL193064
p1211
sbag2
(g3
g4
NtRp1212
(dp1213
g7
I1
sg8
F-6.0185932144962342
sg9
I513
sg10
VCHEMBL186513
p1214
sbag2
(g3
g4
NtRp1215
(dp1216
g7
I1
sg8
F-1.9021075263969205
sg9
I514
sg10
VCHEMBL30439
p1217
sbag2
(g3
g4
NtRp1218
(dp1219
g7
I1
sg8
F-3.3322045101752038
sg9
I516
sg10
VCHEMBL312186
p1220
sbag2
(g3
g4
NtRp1221
(dp1222
g7
I1
sg8
F0.77652878949899629
sg9
I517
sg10
VCHEMBL81
p1223
sbag2
(g3
g4
NtRp1224
(dp1225
g7
I1
sg8
F-3.6375861597263857
sg9
I542
sg10
VCHEMBL180253
p1226
sbag2
(g3
g4
NtRp1227
(dp1228
g7
I1
sg8
F-1.3862943611198906
sg9
I543
sg10
VCHEMBL93705
p1229
sbag2
(g3
g4
NtRp1230
(dp1231
g7
I1
sg8
F-6.1737861039019366
sg9
I546
sg10
VCHEMBL190104
p1232
sbag2
(g3
g4
NtRp1233
(dp1234
g7
I1
sg8
F0.15082288973458366
sg9
I547
sg10
VCHEMBL360498
p1235
sbag2
(g3
g4
NtRp1236
(dp1237
g7
I1
sg8
F-1.6094379124341003
sg9
I548
sg10
VCHEMBL1082528
p1238
sbag2
(g3
g4
NtRp1239
(dp1240
g7
I1
sg8
F-4.7874917427820458
sg9
I550
sg10
VCHEMBL1083187
p1241
sbag2
(g3
g4
NtRp1242
(dp1243
g7
I1
sg8
F-4.6913478822291435
sg9
I551
sg10
VCHEMBL31128
p1244
sbag2
(g3
g4
NtRp1245
(dp1246
g7
I1
sg8
F-5.1704839950381514
sg9
I552
sg10
VCHEMBL367588
p1247
sbag2
(g3
g4
NtRp1248
(dp1249
g7
I1
sg8
F-4.1743872698956368
sg9
I554
sg10
VCHEMBL186597
p1250
sbag2
(g3
g4
NtRp1251
(dp1252
g7
I1
sg8
F-2.9444389791664403
sg9
I555
sg10
VCHEMBL145576
p1253
sbag2
(g3
g4
NtRp1254
(dp1255
g7
I1
sg8
F-4.7361984483944957
sg9
I556
sg10
VCHEMBL361258
p1256
sbag2
(g3
g4
NtRp1257
(dp1258
g7
I1
sg8
F-3.4011973816621555
sg9
I557
sg10
VCHEMBL363367
p1259
sbag2
(g3
g4
NtRp1260
(dp1261
g7
I1
sg8
F-6.9077552789821368
sg9
I558
sg10
VCHEMBL81591
p1262
sbag2
(g3
g4
NtRp1263
(dp1264
g7
I1
sg8
F0.10536051565782628
sg9
I559
sg10
VCHEMBL181369
p1265
sbag2
(g3
g4
NtRp1266
(dp1267
g7
I1
sg8
F-0
sg9
I560
sg10
VCHEMBL92660
p1268
sbag2
(g3
g4
NtRp1269
(dp1270
g7
I1
sg8
F-0.26236426446749106
sg9
I562
sg10
VCHEMBL135
p1271
sbag2
(g3
g4
NtRp1272
(dp1273
g7
I1
sg8
F-6.3099182782265162
sg9
I608
sg10
VCHEMBL57150
p1274
sbag2
(g3
g4
NtRp1275
(dp1276
g7
I1
sg8
F-1.2237754316221157
sg9
I609
sg10
VCHEMBL94116
p1277
sbag2
(g3
g4
NtRp1278
(dp1279
g7
I1
sg8
F-3.044522437723423
sg9
I611
sg10
VCHEMBL433944
p1280
sbag2
(g3
g4
NtRp1281
(dp1282
g7
I1
sg8
F-4.6539603501575231
sg9
I612
sg10
VCHEMBL371624
p1283
sbag2
(g3
g4
NtRp1284
(dp1285
g7
I1
sg8
F-3.4339872044851463
sg9
I613
sg10
VCHEMBL371788
p1286
sbag2
(g3
g4
NtRp1287
(dp1288
g7
I1
sg8
F-3.0910424533583161
sg9
I614
sg10
VCHEMBL189200
p1289
sbag2
(g3
g4
NtRp1290
(dp1291
g7
I1
sg8
F-2.6390573296152584
sg9
I615
sg10
VCHEMBL44426
p1292
sbag2
(g3
g4
NtRp1293
(dp1294
g7
I1
sg8
F-4.4067192472642533
sg9
I617
sg10
VCHEMBL187087
p1295
sbag2
(g3
g4
NtRp1296
(dp1297
g7
I1
sg8
F-2.1400661634962708
sg9
I618
sg10
VCHEMBL200021
p1298
sbag2
(g3
g4
NtRp1299
(dp1300
g7
I1
sg8
F-2.0149030205422647
sg9
I619
sg10
VCHEMBL316132
p1301
sbag2
(g3
g4
NtRp1302
(dp1303
g7
I1
sg8
F-6.1612073216950769
sg9
I620
sg10
VCHEMBL363963
p1304
sbag2
(g3
g4
NtRp1305
(dp1306
g7
I1
sg8
F-3.3568971227655755
sg9
I621
sg10
VCHEMBL89994
p1307
sbag2
(g3
g4
NtRp1308
(dp1309
g7
I1
sg8
F-4.7791234931115296
sg9
I622
sg10
VCHEMBL195118
p1310
sbag2
(g3
g4
NtRp1311
(dp1312
g7
I1
sg8
F-5.7651911027848444
sg9
I624
sg10
VCHEMBL441537
p1313
sbag2
(g3
g4
NtRp1314
(dp1315
g7
I1
sg8
F-4.3694478524670215
sg9
I625
sg10
VCHEMBL377694
p1316
sbag2
(g3
g4
NtRp1317
(dp1318
g7
I1
sg8
F-3.0910424533583161
sg9
I626
sg10
VCHEMBL192386
p1319
sbag2
(g3
g4
NtRp1320
(dp1321
g7
I1
sg8
F-0.76546784213957142
sg9
I627
sg10
VCHEMBL362020
p1322
sbag2
(g3
g4
NtRp1323
(dp1324
g7
I1
sg8
F-6.4377516497364011
sg9
I628
sg10
VCHEMBL183152
p1325
sbag2
(g3
g4
NtRp1326
(dp1327
g7
I1
sg8
F-5.0039463059454592
sg9
I629
sg10
VCHEMBL33053
p1328
sbag2
(g3
g4
NtRp1329
(dp1330
g7
I1
sg8
F-3.1527360223636558
sg9
I630
sg10
VCHEMBL387335
p1331
sbag2
(g3
g4
NtRp1332
(dp1333
g7
I1
sg8
F-5.2983173665480363
sg9
I631
sg10
VCHEMBL192587
p1334
sbag2
(g3
g4
NtRp1335
(dp1336
g7
I1
sg8
F-1.791759469228055
sg9
I632
sg10
VCHEMBL370849
p1337
sbag2
(g3
g4
NtRp1338
(dp1339
g7
I1
sg8
F1.5141277326297755
sg9
I633
sg10
VCHEMBL178679
p1340
sbag2
(g3
g4
NtRp1341
(dp1342
g7
I1
sg8
F-4.6913478822291435
sg9
I634
sg10
VCHEMBL185126
p1343
sbag2
(g3
g4
NtRp1344
(dp1345
g7
I1
sg8
F-4.7621739347977563
sg9
I635
sg10
VCHEMBL185918
p1346
sbag2
(g3
g4
NtRp1347
(dp1348
g7
I1
sg8
F-1.205970806988609
sg9
I636
sg10
VCHEMBL264216
p1349
sbag2
(g3
g4
NtRp1350
(dp1351
g7
I1
sg8
F-6.4520489544372257
sg9
I637
sg10
VCHEMBL198679
p1352
sbag2
(g3
g4
NtRp1353
(dp1354
g7
I1
sg8
F-0
sg9
I638
sg10
VCHEMBL121978
p1355
sbag2
(g3
g4
NtRp1356
(dp1357
g7
I1
sg8
F-0.33647223662121289
sg9
I639
sg10
VCHEMBL334096
p1358
sbag2
(g3
g4
NtRp1359
(dp1360
g7
I1
sg8
F-3.6375861597263857
sg9
I640
sg10
VCHEMBL192539
p1361
sbag2
(g3
g4
NtRp1362
(dp1363
g7
I1
sg8
F-1.8082887711792655
sg9
I641
sg10
VCHEMBL94030
p1364
sbag2
(g3
g4
NtRp1365
(dp1366
g7
I1
sg8
F-2.5649493574615367
sg9
I643
sg10
VCHEMBL186598
p1367
sbag2
(g3
g4
NtRp1368
(dp1369
g7
I1
sg8
F-2.6026896854443837
sg9
I644
sg10
VCHEMBL316119
p1370
sbag2
(g3
g4
NtRp1371
(dp1372
g7
I1
sg8
F0.22314355131420971
sg9
I645
sg10
VCHEMBL180146
p1373
sbag2
(g3
g4
NtRp1374
(dp1375
g7
I1
sg8
F-5.9635793436184459
sg9
I646
sg10
VCHEMBL377224
p1376
sbag2
(g3
g4
NtRp1377
(dp1378
g7
I1
sg8
F-5.8406416573733981
sg9
I647
sg10
VCHEMBL377848
p1379
sbag2
(g3
g4
NtRp1380
(dp1381
g7
I1
sg8
F-3.9318256327243257
sg9
I648
sg10
VCHEMBL204185
p1382
sbag2
(g3
g4
NtRp1383
(dp1384
g7
I1
sg8
F-5.0751738152338266
sg9
I649
sg10
VCHEMBL264349
p1385
sbag2
(g3
g4
NtRp1386
(dp1387
g7
I1
sg8
F-5.2781146592305168
sg9
I650
sg10
VCHEMBL378675
p1388
sbag2
(g3
g4
NtRp1389
(dp1390
g7
I1
sg8
F-1.3862943611198906
sg9
I651
sg10
VCHEMBL1402
p1391
sbag2
(g3
g4
NtRp1392
(dp1393
g7
I1
sg8
F-2.3025850929940459
sg9
I652
sg10
VCHEMBL369935
p1394
sbag2
(g3
g4
NtRp1395
(dp1396
g7
I1
sg8
F-4.9416424226093039
sg9
I653
sg10
VCHEMBL216279
p1397
sbag2
(g3
g4
NtRp1398
(dp1399
g7
I1
sg8
F-6.2205901700997392
sg9
I654
sg10
VCHEMBL219126
p1400
sbag2
(g3
g4
NtRp1401
(dp1402
g7
I1
sg8
F-4.990432586778736
sg9
I655
sg10
VCHEMBL381566
p1403
sbag2
(g3
g4
NtRp1404
(dp1405
g7
I1
sg8
F-4.255612709818223
sg9
I656
sg10
VCHEMBL209429
p1406
sbag2
(g3
g4
NtRp1407
(dp1408
g7
I1
sg8
F-4.7361984483944957
sg9
I657
sg10
VCHEMBL379109
p1409
sbag2
(g3
g4
NtRp1410
(dp1411
g7
I1
sg8
F-4.8202815656050371
sg9
I658
sg10
VCHEMBL379821
p1412
sbag2
(g3
g4
NtRp1413
(dp1414
g7
I1
sg8
F-0.35767444427181588
sg9
I659
sg10
VCHEMBL179518
p1415
sbag2
(g3
g4
NtRp1416
(dp1417
g7
I1
sg8
F-6.7080840838530698
sg9
I660
sg10
VCHEMBL187069
p1418
sbag2
(g3
g4
NtRp1419
(dp1420
g7
I1
sg8
F-3.044522437723423
sg9
I661
sg10
VCHEMBL363425
p1421
sbag2
(g3
g4
NtRp1422
(dp1423
g7
I1
sg8
F-5.9914645471079817
sg9
I662
sg10
VCHEMBL597498
p1424
sbag2
(g3
g4
NtRp1425
(dp1426
g7
I1
sg8
F-1.2237754316221157
sg9
I663
sg10
VCHEMBL1088631
p1427
sbag2
(g3
g4
NtRp1428
(dp1429
g7
I1
sg8
F-5.43372200355424
sg9
I670
sg10
VCHEMBL211800
p1430
sbag2
(g3
g4
NtRp1431
(dp1432
g7
I1
sg8
F-6.4361503683694279
sg9
I671
sg10
VCHEMBL379567
p1433
sbag2
(g3
g4
NtRp1434
(dp1435
g7
I1
sg8
F-5.8636311755980968
sg9
I672
sg10
VCHEMBL379595
p1436
sbag2
(g3
g4
NtRp1437
(dp1438
g7
I1
sg8
F-5.2832037287379885
sg9
I673
sg10
VCHEMBL211870
p1439
sbag2
(g3
g4
NtRp1440
(dp1441
g7
I1
sg8
F-1.9459101490553132
sg9
I674
sg10
VCHEMBL1084120
p1442
sbag2
(g3
g4
NtRp1443
(dp1444
g7
I1
sg8
F-6.1758672701057611
sg9
I676
sg10
VCHEMBL187937
p1445
sbag2
(g3
g4
NtRp1446
(dp1447
g7
I1
sg8
F-6.5736801669606457
sg9
I677
sg10
VCHEMBL380717
p1448
sbag2
(g3
g4
NtRp1449
(dp1450
g7
I1
sg8
F-5.9215784196438159
sg9
I678
sg10
VCHEMBL362355
p1451
sbag2
(g3
g4
NtRp1452
(dp1453
g7
I1
sg8
F-5.2781146592305168
sg9
I679
sg10
VCHEMBL221676
p1454
sbag2
(g3
g4
NtRp1455
(dp1456
g7
I1
sg8
F-5.7365722974791922
sg9
I680
sg10
VCHEMBL1254532
p1457
sbag2
(g3
g4
NtRp1458
(dp1459
g7
I1
sg8
F-6.1025585946135692
sg9
I681
sg10
VCHEMBL363955
p1460
sbag2
(g3
g4
NtRp1461
(dp1462
g7
I1
sg8
F-4.5747109785033828
sg9
I682
sg10
VCHEMBL379008
p1463
sbag2
(g3
g4
NtRp1464
(dp1465
g7
I1
sg8
F-4.0073331852324712
sg9
I683
sg10
VCHEMBL1087547
p1466
sbag2
(g3
g4
NtRp1467
(dp1468
g7
I1
sg8
F-3.1354942159291497
sg9
I685
sg10
VCHEMBL1086644
p1469
sbag2
(g3
g4
NtRp1470
(dp1471
g7
I1
sg8
F-0.18232155679395459
sg9
I688
sg10
VCHEMBL1086775
p1472
sbag2
(g3
g4
NtRp1473
(dp1474
g7
I1
sg8
F-5.5093883366279774
sg9
I691
sg10
VCHEMBL192016
p1475
sbag2
(g3
g4
NtRp1476
(dp1477
g7
I1
sg8
F-2.4849066497880004
sg9
I692
sg10
VCHEMBL191841
p1478
sbag2
(g3
g4
NtRp1479
(dp1480
g7
I1
sg8
F-3.1354942159291497
sg9
I693
sg10
VCHEMBL238960
p1481
sbag2
(g3
g4
NtRp1482
(dp1483
g7
I1
sg8
F-2.0541237336955462
sg9
I694
sg10
VCHEMBL238961
p1484
sbag2
(g3
g4
NtRp1485
(dp1486
g7
I1
sg8
F-0.95551144502743635
sg9
I695
sg10
VCHEMBL85090
p1487
sbag2
(g3
g4
NtRp1488
(dp1489
g7
I1
sg8
F0.51082562376599072
sg9
I696
sg10
VCHEMBL184360
p1490
sbag2
(g3
g4
NtRp1491
(dp1492
g7
I1
sg8
F0.84397007029452897
sg9
I697
sg10
VCHEMBL180176
p1493
sbag2
(g3
g4
NtRp1494
(dp1495
g7
I1
sg8
F0.69314718055994529
sg9
I698
sg10
VCHEMBL437695
p1496
sbag2
(g3
g4
NtRp1497
(dp1498
g7
I1
sg8
F-3.3672958299864741
sg9
I699
sg10
VCHEMBL209530
p1499
sbag2
(g3
g4
NtRp1500
(dp1501
g7
I1
sg8
F-6.9077552789821368
sg9
I700
sg10
VCHEMBL1276308
p1502
sbag2
(g3
g4
NtRp1503
(dp1504
g7
I1
sg8
F-5.598421958998375
sg9
I701
sg10
VCHEMBL388418
p1505
sbag2
(g3
g4
NtRp1506
(dp1507
g7
I1
sg8
F-4.2484952420493594
sg9
I702
sg10
VCHEMBL1433745
p1508
sbag2
(g3
g4
NtRp1509
(dp1510
g7
I1
sg8
F-5.1929568508902104
sg9
I703
sg10
VCHEMBL1475062
p1511
sbag2
(g3
g4
NtRp1512
(dp1513
g7
I1
sg8
F-4.7874917427820458
sg9
I704
sg10
VCHEMBL1597831
p1514
sbag2
(g3
g4
NtRp1515
(dp1516
g7
I1
sg8
F-2.6390573296152584
sg9
I705
sg10
VCHEMBL471627
p1517
sbag2
(g3
g4
NtRp1518
(dp1519
g7
I1
sg8
F-6.0637852086876078
sg9
I706
sg10
VCHEMBL1599080
p1520
sbag2
(g3
g4
NtRp1521
(dp1522
g7
I1
sg8
F-6.4329400927391793
sg9
I707
sg10
VCHEMBL375334
p1523
sbag2
(g3
g4
NtRp1524
(dp1525
g7
I1
sg8
F-4.0775374439057197
sg9
I708
sg10
VCHEMBL222522
p1526
sbag2
(g3
g4
NtRp1527
(dp1528
g7
I1
sg8
F-2.9957322735539909
sg9
I709
sg10
VCHEMBL222580
p1529
sbag2
(g3
g4
NtRp1530
(dp1531
g7
I1
sg8
F-6.363028103540465
sg9
I710
sg10
VCHEMBL1083188
p1532
sbag2
(g3
g4
NtRp1533
(dp1534
g7
I1
sg8
F-4.5217885770490405
sg9
I711
sg10
VCHEMBL191716
p1535
sbag2
(g3
g4
NtRp1536
(dp1537
g7
I1
sg8
F-4.219507705176107
sg9
I712
sg10
VCHEMBL311640
p1538
sbag2
(g3
g4
NtRp1539
(dp1540
g7
I1
sg8
F-6.4583382833447898
sg9
I713
sg10
VCHEMBL194772
p1541
sbag2
(g3
g4
NtRp1542
(dp1543
g7
I1
sg8
F-2.2300144001592104
sg9
I714
sg10
VCHEMBL329849
p1544
sbag2
(g3
g4
NtRp1545
(dp1546
g7
I1
sg8
F-2.6713862167306188
sg9
I716
sg10
VCHEMBL362425
p1547
sbag2
(g3
g4
NtRp1548
(dp1549
g7
I1
sg8
F-4.7706846244656651
sg9
I717
sg10
VCHEMBL363177
p1550
sbag2
(g3
g4
NtRp1551
(dp1552
g7
I1
sg8
F-6.2859980945088649
sg9
I718
sg10
VCHEMBL364329
p1553
sbag2
(g3
g4
NtRp1554
(dp1555
g7
I1
sg8
F-4.4659081186545837
sg9
I719
sg10
VCHEMBL192187
p1556
sbag2
(g3
g4
NtRp1557
(dp1558
g7
I1
sg8
F0.35667494393873245
sg9
I721
sg10
VCHEMBL183489
p1559
sbag2
(g3
g4
NtRp1560
(dp1561
g7
I1
sg8
F-4.7874917427820458
sg9
I722
sg10
VCHEMBL193518
p1562
sbag2
(g3
g4
NtRp1563
(dp1564
g7
I1
sg8
F-3.3318473035273621
sg9
I724
sg10
VCHEMBL174502
p1565
sbag2
(g3
g4
NtRp1566
(dp1567
g7
I1
sg8
F-6.1800166536525722
sg9
I728
sg10
VCHEMBL361226
p1568
sbag2
(g3
g4
NtRp1569
(dp1570
g7
I1
sg8
F-6.045005314036012
sg9
I729
sg10
VCHEMBL379543
p1571
sbag2
(g3
g4
NtRp1572
(dp1573
g7
I1
sg8
F-2.3025850929940459
sg9
I730
sg10
VCHEMBL68940
p1574
sbag2
(g3
g4
NtRp1575
(dp1576
g7
I1
sg8
F-3.2188758248682006
sg9
I731
sg10
VCHEMBL93308
p1577
sbag2
(g3
g4
NtRp1578
(dp1579
g7
I1
sg8
F0.916290731874155
sg9
I732
sg10
VCHEMBL361601
p1580
sbag2
(g3
g4
NtRp1581
(dp1582
g7
I1
sg8
F-4.0249944840873075
sg9
I733
sg10
VCHEMBL328810
p1583
sbag2
(g3
g4
NtRp1584
(dp1585
g7
I1
sg8
F0.22314355131420971
sg9
I737
sg10
VCHEMBL181404
p1586
sbag2
(g3
g4
NtRp1587
(dp1588
g7
I1
sg8
F-6.1633148040346413
sg9
I738
sg10
VCHEMBL189822
p1589
sbag2
(g3
g4
NtRp1590
(dp1591
g7
I1
sg8
F-4.3438054218536841
sg9
I739
sg10
VCHEMBL192782
p1592
sbag2
(g3
g4
NtRp1593
(dp1594
g7
I1
sg8
F-4.290459441148391
sg9
I740
sg10
VCHEMBL192901
p1595
sbag2
(g3
g4
NtRp1596
(dp1597
g7
I1
sg8
F-3.4965075614664802
sg9
I741
sg10
VCHEMBL362307
p1598
sbag2
(g3
g4
NtRp1599
(dp1600
g7
I1
sg8
F-6.4800445619266531
sg9
I742
sg10
VCHEMBL291002
p1601
sbag2
(g3
g4
NtRp1602
(dp1603
g7
I1
sg8
F-6.5652649700353614
sg9
I743
sg10
VCHEMBL190487
p1604
sbag2
(g3
g4
NtRp1605
(dp1606
g7
I1
sg8
F-4.0500443033255209
sg9
I744
sg10
VCHEMBL195991
p1607
sbag2
(g3
g4
NtRp1608
(dp1609
g7
I1
sg8
F-0.33647223662121289
sg9
I745
sg10
VCHEMBL328190
p1610
sbag2
(g3
g4
NtRp1611
(dp1612
g7
I1
sg8
F-0.69314718055994529
sg9
I749
sg10
VCHEMBL190038
p1613
sbag2
(g3
g4
NtRp1614
(dp1615
g7
I1
sg8
F0.22314355131420971
sg9
I750
sg10
VCHEMBL304552
p1616
sbag2
(g3
g4
NtRp1617
(dp1618
g7
I1
sg8
F-2.1972245773362196
sg9
I761
sg10
VCHEMBL1627354
p1619
sbag2
(g3
g4
NtRp1620
(dp1621
g7
I1
sg8
F-2.0014800002101243
sg9
I763
sg10
VCHEMBL85536
p1622
sbag2
(g3
g4
NtRp1623
(dp1624
g7
I1
sg8
F0.77652878949899629
sg9
I764
sg10
VCHEMBL178665
p1625
sbag2
(g3
g4
NtRp1626
(dp1627
g7
I1
sg8
F-2.7725887222397811
sg9
I765
sg10
VCHEMBL435696
p1628
sbag2
(g3
g4
NtRp1629
(dp1630
g7
I1
sg8
F-6.776506992372183
sg9
I766
sg10
VCHEMBL371564
p1631
sbag2
(g3
g4
NtRp1632
(dp1633
g7
I1
sg8
F-3.8286413964890951
sg9
I767
sg10
VCHEMBL1628170
p1634
sbag2
(g3
g4
NtRp1635
(dp1636
g7
I1
sg8
F-3.380994674344636
sg9
I768
sg10
VCHEMBL91740
p1637
sbag2
(g3
g4
NtRp1638
(dp1639
g7
I1
sg8
F-2.3978952727983707
sg9
I769
sg10
VCHEMBL30707
p1640
sbag2
(g3
g4
NtRp1641
(dp1642
g7
I1
sg8
F-1.5173226235262947
sg9
I772
sg10
VCHEMBL954
p1643
sbag2
(g3
g4
NtRp1644
(dp1645
g7
I1
sg8
F-0.18232155679395459
sg9
I773
sg10
VCHEMBL184974
p1646
sbag2
(g3
g4
NtRp1647
(dp1648
g7
I1
sg8
F-5.9839362806871907
sg9
I774
sg10
VCHEMBL1627353
p1649
sbag2
(g3
g4
NtRp1650
(dp1651
g7
I1
sg8
F-1.9286186519452522
sg9
I775
sg10
VCHEMBL373625
p1652
sbag2
(g3
g4
NtRp1653
(dp1654
g7
I1
sg8
F-5.4249500174814029
sg9
I776
sg10
VCHEMBL188846
p1655
sbag2
(g3
g4
NtRp1656
(dp1657
g7
I1
sg8
F-1.0438040521731147
sg9
I777
sg10
VCHEMBL196131
p1658
sbag2
(g3
g4
NtRp1659
(dp1660
g7
I1
sg8
F-6.2747620212419388
sg9
I778
sg10
VCHEMBL30574
p1661
sbag2
(g3
g4
NtRp1662
(dp1663
g7
I1
sg8
F-5.1590552992145291
sg9
I779
sg10
VCHEMBL427180
p1664
sbag2
(g3
g4
NtRp1665
(dp1666
g7
I1
sg8
F-5.6454468976432377
sg9
I780
sg10
VCHEMBL194265
p1667
sbag2
(g3
g4
NtRp1668
(dp1669
g7
I1
sg8
F-6.5638555265321274
sg9
I781
sg10
VCHEMBL195788
p1670
sbag2
(g3
g4
NtRp1671
(dp1672
g7
I1
sg8
F-5.1298987149230735
sg9
I782
sg10
VCHEMBL194334
p1673
sbag2
(g3
g4
NtRp1674
(dp1675
g7
I1
sg8
F0.22314355131420971
sg9
I784
sg10
VCHEMBL183344
p1676
sbag2
(g3
g4
NtRp1677
(dp1678
g7
I1
sg8
F0.35667494393873245
sg9
I785
sg10
VCHEMBL369545
p1679
sbag2
(g3
g4
NtRp1680
(dp1681
g7
I1
sg8
F-3.4011973816621555
sg9
I787
sg10
VCHEMBL361078
p1682
sbag2
(g3
g4
NtRp1683
(dp1684
g7
I1
sg8
F-3.8918202981106265
sg9
I788
sg10
VCHEMBL187393
p1685
sbag2
(g3
g4
NtRp1686
(dp1687
g7
I1
sg8
F-4.4308167988433134
sg9
I789
sg10
VCHEMBL194762
p1688
sbag2
(g3
g4
NtRp1689
(dp1690
g7
I1
sg8
F-1.791759469228055
sg9
I790
sg10
VCHEMBL188051
p1691
sbag2
(g3
g4
NtRp1692
(dp1693
g7
I1
sg8
F-2.2512917986064953
sg9
I791
sg10
VCHEMBL420017
p1694
sbag2
(g3
g4
NtRp1695
(dp1696
g7
I1
sg8
F0.51082562376599072
sg9
I792
sg10
VCHEMBL184367
p1697
sbag2
(g3
g4
NtRp1698
(dp1699
g7
I1
sg8
F-6.2146080984221914
sg9
I793
sg10
VCHEMBL356693
p1700
sbag2
(g3
g4
NtRp1701
(dp1702
g7
I1
sg8
F-6.444131256700441
sg9
I794
sg10
VCHEMBL1702774
p1703
sbag2
(g3
g4
NtRp1704
(dp1705
g7
I1
sg8
F-2.7080502011022101
sg9
I795
sg10
VCHEMBL149791
p1706
sbag2
(g3
g4
NtRp1707
(dp1708
g7
I1
sg8
F-4.6821312271242199
sg9
I796
sg10
VCHEMBL372029
p1709
sbag2
(g3
g4
NtRp1710
(dp1711
g7
I1
sg8
F-2.3025850929940459
sg9
I798
sg10
VCHEMBL370282
p1712
sbag2
(g3
g4
NtRp1713
(dp1714
g7
I1
sg8
F-1.0079579203999789
sg9
I799
sg10
VCHEMBL180702
p1715
sbag2
(g3
g4
NtRp1716
(dp1717
g7
I1
sg8
F-5.6524891802686508
sg9
I800
sg10
VCHEMBL103650
p1718
sbag2
(g3
g4
NtRp1719
(dp1720
g7
I1
sg8
F-0.40546510810816438
sg9
I802
sg10
VCHEMBL181936
p1721
sbag2
(g3
g4
NtRp1722
(dp1723
g7
I1
sg8
F-0.40546510810816438
sg9
I803
sg10
VCHEMBL183782
p1724
sbag2
(g3
g4
NtRp1725
(dp1726
g7
I1
sg8
F-6.804614520062624
sg9
I804
sg10
VCHEMBL187673
p1727
sbag2
(g3
g4
NtRp1728
(dp1729
g7
I1
sg8
F-4.7874917427820458
sg9
I805
sg10
VCHEMBL421368
p1730
sbag2
(g3
g4
NtRp1731
(dp1732
g7
I1
sg8
F-3.7830526241311859
sg9
I806
sg10
VCHEMBL98470
p1733
sbag2
(g3
g4
NtRp1734
(dp1735
g7
I1
sg8
F-5.9532433342877846
sg9
I810
sg10
VCHEMBL197757
p1736
sbag2
(g3
g4
NtRp1737
(dp1738
g7
I1
sg8
F-6.0913098820776979
sg9
I811
sg10
VCHEMBL191715
p1739
sbag2
(g3
g4
NtRp1740
(dp1741
g7
I1
sg8
F0.35667494393873245
sg9
I812
sg10
VCHEMBL122208
p1742
sbag2
(g3
g4
NtRp1743
(dp1744
g7
I1
sg8
F-6.3368257311464413
sg9
I813
sg10
VCHEMBL153395
p1745
sbag2
(g3
g4
NtRp1746
(dp1747
g7
I1
sg8
F-3.2958368660043291
sg9
I814
sg10
VCHEMBL195289
p1748
sbag2
(g3
g4
NtRp1749
(dp1750
g7
I1
sg8
F-3.6635616461296463
sg9
I815
sg10
VCHEMBL33899
p1751
sbag2
(g3
g4
NtRp1752
(dp1753
g7
I1
sg8
F-1.7227665977411035
sg9
I817
sg10
VCHEMBL93230
p1754
sbag2
(g3
g4
NtRp1755
(dp1756
g7
I1
sg8
F-5.857933154483459
sg9
I818
sg10
VCHEMBL1475434
p1757
sbag2
(g3
g4
NtRp1758
(dp1759
g7
I1
sg8
F-5.1357984370502621
sg9
I819
sg10
VCHEMBL1552932
p1760
sbag2
(g3
g4
NtRp1761
(dp1762
g7
I1
sg8
F-4.499809670330265
sg9
I820
sg10
VCHEMBL1593653
p1763
sbag2
(g3
g4
NtRp1764
(dp1765
g7
I1
sg8
F-4.0073331852324712
sg9
I821
sg10
VCHEMBL192390
p1766
sbag2
(g3
g4
NtRp1767
(dp1768
g7
I1
sg8
F-1.2809338454620642
sg9
I822
sg10
VCHEMBL340606
p1769
sbag2
(g3
g4
NtRp1770
(dp1771
g7
I1
sg8
F-5.7430031878094825
sg9
I823
sg10
VCHEMBL195280
p1772
sbag2
(g3
g4
NtRp1773
(dp1774
g7
I1
sg8
F-5.1761497325738288
sg9
I824
sg10
VCHEMBL191646
p1775
sbag2
(g3
g4
NtRp1776
(dp1777
g7
I1
sg8
F-0.52472852893498212
sg9
I826
sg10
VCHEMBL193482
p1778
sbag2
(g3
g4
NtRp1779
(dp1780
g7
I1
sg8
F-2.8332133440562162
sg9
I827
sg10
VCHEMBL539927
p1781
sbag2
(g3
g4
NtRp1782
(dp1783
g7
I1
sg8
F-1.3862943611198906
sg9
I835
sg10
VCHEMBL125362
p1784
sbag2
(g3
g4
NtRp1785
(dp1786
g7
I1
sg8
F-0.96698384618967315
sg9
I836
sg10
VCHEMBL1087557
p1787
sbag2
(g3
g4
NtRp1788
(dp1789
g7
I1
sg8
F-5.7365722974791922
sg9
I838
sg10
VCHEMBL1087683
p1790
sbag2
(g3
g4
NtRp1791
(dp1792
g7
I1
sg8
F-6.9077552789821368
sg9
I839
sg10
VCHEMBL551269
p1793
sbag2
(g3
g4
NtRp1794
(dp1795
g7
I1
sg8
F-3.8501476017100584
sg9
I840
sg10
VCHEMBL190682
p1796
sbag2
(g3
g4
NtRp1797
(dp1798
g7
I1
sg8
F-2.3025850929940459
sg9
I841
sg10
VCHEMBL1087812
p1799
sbag2
(g3
g4
NtRp1800
(dp1801
g7
I1
sg8
F-0.18232155679395459
sg9
I842
sg10
VCHEMBL1083178
p1802
sbag2
(g3
g4
NtRp1803
(dp1804
g7
I1
sg8
F-4.7095302013123339
sg9
I844
sg10
VCHEMBL1083179
p1805
sbag2
(g3
g4
NtRp1806
(dp1807
g7
I1
sg8
F-6.9077552789821368
sg9
I845
sg10
VCHEMBL1083497
p1808
sbag2
(g3
g4
NtRp1809
(dp1810
g7
I1
sg8
F-1.6486586255873816
sg9
I846
sg10
VCHEMBL363872
p1811
sbag2
(g3
g4
NtRp1812
(dp1813
g7
I1
sg8
F0.51082562376599072
sg9
I847
sg10
VCHEMBL184421
p1814
sbag2
(g3
g4
NtRp1815
(dp1816
g7
I1
sg8
F-0.69314718055994529
sg9
I848
sg10
VCHEMBL185383
p1817
sbag2
(g3
g4
NtRp1818
(dp1819
g7
I1
sg8
F-0.95551144502743635
sg9
I849
sg10
VCHEMBL362623
p1820
sbag2
(g3
g4
NtRp1821
(dp1822
g7
I1
sg8
F-2.9601050959108397
sg9
I852
sg10
VCHEMBL226329
p1823
sbag2
(g3
g4
NtRp1824
(dp1825
g7
I1
sg8
F-5.9989365619466826
sg9
I853
sg10
VCHEMBL200799
p1826
sbag2
(g3
g4
NtRp1827
(dp1828
g7
I1
sg8
F-3.1780538303479458
sg9
I854
sg10
VCHEMBL371012
p1829
sbag2
(g3
g4
NtRp1830
(dp1831
g7
I1
sg8
F-5.4595855141441589
sg9
I855
sg10
VCHEMBL426849
p1832
sbag2
(g3
g4
NtRp1833
(dp1834
g7
I1
sg8
F-4.499809670330265
sg9
I856
sg10
VCHEMBL202248
p1835
sbag2
(g3
g4
NtRp1836
(dp1837
g7
I1
sg8
F-6.1202974189509503
sg9
I857
sg10
VCHEMBL212418
p1838
sbag2
(g3
g4
NtRp1839
(dp1840
g7
I1
sg8
F-6.1398845522262553
sg9
I858
sg10
VCHEMBL362356
p1841
sbag2
(g3
g4
NtRp1842
(dp1843
g7
I1
sg8
F-1.8718021769015913
sg9
I859
sg10
VCHEMBL511971
p1844
sbag2
(g3
g4
NtRp1845
(dp1846
g7
I1
sg8
F-1.6863989535702288
sg9
I860
sg10
VCHEMBL1085669
p1847
sbag2
(g3
g4
NtRp1848
(dp1849
g7
I1
sg8
F-1.7227665977411035
sg9
I863
sg10
VCHEMBL1085899
p1850
sbag2
(g3
g4
NtRp1851
(dp1852
g7
I1
sg8
F-5.5721540321777647
sg9
I866
sg10
VCHEMBL364419
p1853
sbag2
(g3
g4
NtRp1854
(dp1855
g7
I1
sg8
F-1.2809338454620642
sg9
I867
sg10
VCHEMBL91807
p1856
sbag2
(g3
g4
NtRp1857
(dp1858
g7
I1
sg8
F-3.2580965380214821
sg9
I869
sg10
VCHEMBL202624
p1859
sbag2
(g3
g4
NtRp1860
(dp1861
g7
I1
sg8
F-4.0943445622221004
sg9
I870
sg10
VCHEMBL372997
p1862
sbag2
(g3
g4
NtRp1863
(dp1864
g7
I1
sg8
F-1.8405496333974869
sg9
I871
sg10
VCHEMBL183044
p1865
sbag2
(g3
g4
NtRp1866
(dp1867
g7
I1
sg8
F1.6094379124341003
sg9
I872
sg10
VCHEMBL198803
p1868
sbag2
(g3
g4
NtRp1869
(dp1870
g7
I1
sg8
F-2.6390573296152584
sg9
I873
sg10
VCHEMBL214091
p1871
sbag2
(g3
g4
NtRp1872
(dp1873
g7
I1
sg8
F-5.393627546352362
sg9
I874
sg10
VCHEMBL214972
p1874
sbag2
(g3
g4
NtRp1875
(dp1876
g7
I1
sg8
F-2.6946271807700692
sg9
I876
sg10
VCHEMBL90072
p1877
sbag2
(g3
g4
NtRp1878
(dp1879
g7
I1
sg8
F-5.9661467391236922
sg9
I878
sg10
VCHEMBL188957
p1880
sbag2
(g3
g4
NtRp1881
(dp1882
g7
I1
sg8
F-4.9487598903781684
sg9
I879
sg10
VCHEMBL209851
p1883
sbag2
(g3
g4
NtRp1884
(dp1885
g7
I1
sg8
F-6.9077552789821368
sg9
I881
sg10
VCHEMBL381489
p1886
sbag2
(g3
g4
NtRp1887
(dp1888
g7
I1
sg8
F-3.2188758248682006
sg9
I882
sg10
VCHEMBL204697
p1889
sbag2
(g3
g4
NtRp1890
(dp1891
g7
I1
sg8
F-6.7799219074722519
sg9
I883
sg10
VCHEMBL211739
p1892
sbag2
(g3
g4
NtRp1893
(dp1894
g7
I1
sg8
F-6.4167322825123261
sg9
I884
sg10
VCHEMBL213529
p1895
sbag2
(g3
g4
NtRp1896
(dp1897
g7
I1
sg8
F-2.3978952727983707
sg9
I885
sg10
VCHEMBL1082539
p1898
sbag2
(g3
g4
NtRp1899
(dp1900
g7
I1
sg8
F-3.1780538303479458
sg9
I887
sg10
VCHEMBL187219
p1901
sbag2
(g3
g4
NtRp1902
(dp1903
g7
I1
sg8
F-2.9957322735539909
sg9
I888
sg10
VCHEMBL394357
p1904
sbag2
(g3
g4
NtRp1905
(dp1906
g7
I1
sg8
F-6.6871086078665147
sg9
I889
sg10
VCHEMBL242818
p1907
sbag2
(g3
g4
NtRp1908
(dp1909
g7
I1
sg8
F-5.8345182966452551
sg9
I890
sg10
VCHEMBL94170
p1910
sbag2
(g3
g4
NtRp1911
(dp1912
g7
I1
sg8
F-6.2146080984221914
sg9
I892
sg10
VCHEMBL106773
p1913
sbag2
(g3
g4
NtRp1914
(dp1915
g7
I1
sg8
F-4.5643481914678361
sg9
I893
sg10
VCHEMBL192000
p1916
sbag2
(g3
g4
NtRp1917
(dp1918
g7
I1
sg8
F-5.4595855141441589
sg9
I894
sg10
VCHEMBL329630
p1919
sbag2
(g3
g4
NtRp1920
(dp1921
g7
I1
sg8
F-5.1474944768134527
sg9
I895
sg10
VCHEMBL432454
p1922
sbag2
(g3
g4
NtRp1923
(dp1924
g7
I1
sg8
F-0.78845736036427028
sg9
I896
sg10
VCHEMBL184491
p1925
sbag2
(g3
g4
NtRp1926
(dp1927
g7
I1
sg8
F-2.2082744135228043
sg9
I897
sg10
VCHEMBL393982
p1928
sbag2
(g3
g4
NtRp1929
(dp1930
g7
I1
sg8
F-0.69314718055994529
sg9
I898
sg10
VCHEMBL240438
p1931
sbag2
(g3
g4
NtRp1932
(dp1933
g7
I1
sg8
F-6.2363695902037044
sg9
I899
sg10
VCHEMBL188246
p1934
sbag2
(g3
g4
NtRp1935
(dp1936
g7
I1
sg8
F-4.3820266346738812
sg9
I900
sg10
VCHEMBL346455
p1937
sbag2
(g3
g4
NtRp1938
(dp1939
g7
I1
sg8
F-4.9344739331306915
sg9
I901
sg10
VCHEMBL377254
p1940
sbag2
(g3
g4
NtRp1941
(dp1942
g7
I1
sg8
F-3.1354942159291497
sg9
I902
sg10
VCHEMBL213829
p1943
sbag2
(g3
g4
NtRp1944
(dp1945
g7
I1
sg8
F-6.678342114654332
sg9
I903
sg10
VCHEMBL455215
p1946
sbag2
(g3
g4
NtRp1947
(dp1948
g7
I1
sg8
F-4.4188406077965983
sg9
I904
sg10
VCHEMBL364492
p1949
sbag2
(g3
g4
NtRp1950
(dp1951
g7
I1
sg8
F-2.33214389523559
sg9
I906
sg10
VCHEMBL469510
p1952
sbag2
(g3
g4
NtRp1953
(dp1954
g7
I1
sg8
F0.10536051565782628
sg9
I907
sg10
VCHEMBL368688
p1955
sbag2
(g3
g4
NtRp1956
(dp1957
g7
I1
sg8
F-3.0910424533583161
sg9
I908
sg10
VCHEMBL1087546
p1958
sbag2
(g3
g4
NtRp1959
(dp1960
g7
I1
sg8
F-1.547562508716013
sg9
I910
sg10
VCHEMBL92027
p1961
sbag2
(g3
g4
NtRp1962
(dp1963
g7
I1
sg8
F-0.53062825106217038
sg9
I912
sg10
VCHEMBL125119
p1964
sbag2
(g3
g4
NtRp1965
(dp1966
g7
I1
sg8
F-6.3681871863504922
sg9
I913
sg10
VCHEMBL414859
p1967
sbag2
(g3
g4
NtRp1968
(dp1969
g7
I1
sg8
F-3.2188758248682006
sg9
I914
sg10
VCHEMBL46903
p1970
sbag2
(g3
g4
NtRp1971
(dp1972
g7
I1
sg8
F-2.3025850929940459
sg9
I916
sg10
VCHEMBL195311
p1973
sbag2
(g3
g4
NtRp1974
(dp1975
g7
I1
sg8
F-6.7334018918373593
sg9
I917
sg10
VCHEMBL1455849
p1976
sbag2
(g3
g4
NtRp1977
(dp1978
g7
I1
sg8
F-4.3820266346738812
sg9
I918
sg10
VCHEMBL1356953
p1979
sbag2
(g3
g4
NtRp1980
(dp1981
g7
I1
sg8
F-5.8324395068644632
sg9
I919
sg10
VCHEMBL1097284
p1982
sbag2
(g3
g4
NtRp1983
(dp1984
g7
I1
sg8
F-3.6888794541139363
sg9
I920
sg10
VCHEMBL426897
p1985
sbag2
(g3
g4
NtRp1986
(dp1987
g7
I1
sg8
F-1.0986122886681098
sg9
I921
sg10
VCHEMBL386502
p1988
sbag2
(g3
g4
NtRp1989
(dp1990
g7
I1
sg8
F-3.8712010109078911
sg9
I922
sg10
VCHEMBL223026
p1991
sbag2
(g3
g4
NtRp1992
(dp1993
g7
I1
sg8
F-5.9532433342877846
sg9
I923
sg10
VCHEMBL91452
p1994
sbag2
(g3
g4
NtRp1995
(dp1996
g7
I1
sg8
F-3.1780538303479458
sg9
I924
sg10
VCHEMBL144897
p1997
sbag2
(g3
g4
NtRp1998
(dp1999
g7
I1
sg8
F1.2039728043259361
sg9
I925
sg10
VCHEMBL433769
p2000
sbag2
(g3
g4
NtRp2001
(dp2002
g7
I1
sg8
F-4.4886363697321396
sg9
I926
sg10
VCHEMBL282292
p2003
sbag2
(g3
g4
NtRp2004
(dp2005
g7
I1
sg8
F0.35667494393873245
sg9
I927
sg10
VCHEMBL179852
p2006
sbag2
(g3
g4
NtRp2007
(dp2008
g7
I1
sg8
F-3.4339872044851463
sg9
I928
sg10
VCHEMBL286115
p2009
sbag2
(g3
g4
NtRp2010
(dp2011
g7
I1
sg8
F-3.4330189939851112
sg9
I930
sg10
VCHEMBL327515
p2012
sbag2
(g3
g4
NtRp2013
(dp2014
g7
I1
sg8
F-1.9021075263969205
sg9
I934
sg10
VCHEMBL315866
p2015
sbag2
(g3
g4
NtRp2016
(dp2017
g7
I1
sg8
F-6.8977049431286357
sg9
I935
sg10
VCHEMBL183033
p2018
sbag2
(g3
g4
NtRp2019
(dp2020
g7
I1
sg8
F-6.363028103540465
sg9
I936
sg10
VCHEMBL190025
p2021
sbag2
(g3
g4
NtRp2022
(dp2023
g7
I1
sg8
F-6.6631326959908028
sg9
I937
sg10
VCHEMBL198088
p2024
sbag2
(g3
g4
NtRp2025
(dp2026
g7
I1
sg8
F-6.3117348091529148
sg9
I938
sg10
VCHEMBL30769
p2027
sbag2
(g3
g4
NtRp2028
(dp2029
g7
I1
sg8
F-0.53062825106217038
sg9
I939
sg10
VCHEMBL180792
p2030
sbag2
(g3
g4
NtRp2031
(dp2032
g7
I1
sg8
F-0.87546873735389985
sg9
I942
sg10
VCHEMBL369724
p2033
sbag2
(g3
g4
NtRp2034
(dp2035
g7
I1
sg8
F-4.2621163380013236
sg9
I943
sg10
VCHEMBL100231
p2036
sbag2
(g3
g4
NtRp2037
(dp2038
g7
I1
sg8
F-5.4380793089231956
sg9
I947
sg10
VCHEMBL195217
p2039
sbag2
(g3
g4
NtRp2040
(dp2041
g7
I1
sg8
F-2.4765384001174837
sg9
I948
sg10
VCHEMBL420611
p2042
sbag2
(g3
g4
NtRp2043
(dp2044
g7
I1
sg8
F-3.4011973816621555
sg9
I949
sg10
VCHEMBL1434556
p2045
sbag2
(g3
g4
NtRp2046
(dp2047
g7
I1
sg8
F-3.912023005428146
sg9
I950
sg10
VCHEMBL1414407
p2048
sbag2
(g3
g4
NtRp2049
(dp2050
g7
I1
sg8
F-4.1743872698956368
sg9
I951
sg10
VCHEMBL282575
p2051
sbag2
(g3
g4
NtRp2052
(dp2053
g7
I1
sg8
F-0.26236426446749106
sg9
I952
sg10
VCHEMBL361056
p2054
sbag2
(g3
g4
NtRp2055
(dp2056
g7
I1
sg8
F-1.9459101490553132
sg9
I953
sg10
VCHEMBL313825
p2057
sbag2
(g3
g4
NtRp2058
(dp2059
g7
I1
sg8
F-2.174751721484161
sg9
I954
sg10
VCHEMBL83623
p2060
sbag2
(g3
g4
NtRp2061
(dp2062
g7
I1
sg8
F-6.6957989170584913
sg9
I955
sg10
VCHEMBL188516
p2063
sbag2
(g3
g4
NtRp2064
(dp2065
g7
I1
sg8
F0.35667494393873245
sg9
I956
sg10
VCHEMBL183263
p2066
sbag2
(g3
g4
NtRp2067
(dp2068
g7
I1
sg8
F1.2729656758128873
sg9
I958
sg10
VCHEMBL178334
p2069
sbag2
(g3
g4
NtRp2070
(dp2071
g7
I1
sg8
F-3.784189633918261
sg9
I960
sg10
VCHEMBL187311
p2072
sbag2
(g3
g4
NtRp2073
(dp2074
g7
I1
sg8
F-2.3978952727983707
sg9
I961
sg10
VCHEMBL419110
p2075
sbag2
(g3
g4
NtRp2076
(dp2077
g7
I1
sg8
F-4.1907147860417941
sg9
I962
sg10
VCHEMBL319678
p2078
sbag2
(g3
g4
NtRp2079
(dp2080
g7
I1
sg8
F-1.3711807233098425
sg9
I966
sg10
VCHEMBL182157
p2081
sbag2
(g3
g4
NtRp2082
(dp2083
g7
I1
sg8
F-0
sg9
I967
sg10
VCHEMBL267385
p2084
sbag2
(g3
g4
NtRp2085
(dp2086
g7
I1
sg8
F-0.69314718055994529
sg9
I969
sg10
VCHEMBL489
p2087
sbag2
(g3
g4
NtRp2088
(dp2089
g7
I1
sg8
F-3.5553480614894135
sg9
I973
sg10
VCHEMBL192260
p2090
sbag2
(g3
g4
NtRp2091
(dp2092
g7
I1
sg8
F-3.8292933578291501
sg9
I974
sg10
VCHEMBL100595
p2093
sbag2
(g3
g4
NtRp2094
(dp2095
g7
I1
sg8
F0.916290731874155
sg9
I978
sg10
VCHEMBL183467
p2096
sbag2
(g3
g4
NtRp2097
(dp2098
g7
I1
sg8
F-0
sg9
I980
sg10
VCHEMBL329892
p2099
sbag2
(g3
g4
NtRp2100
(dp2101
g7
I1
sg8
F-3.9721769282478934
sg9
I981
sg10
VCHEMBL89995
p2102
sbag2
(g3
g4
NtRp2103
(dp2104
g7
I1
sg8
F-6.0730445341004051
sg9
I982
sg10
VCHEMBL189556
p2105
sbag2
(g3
g4
NtRp2106
(dp2107
g7
I1
sg8
F-6.253828811575473
sg9
I983
sg10
VCHEMBL1231453
p2108
sbag2
(g3
g4
NtRp2109
(dp2110
g7
I1
sg8
F0.49429632181478012
sg9
I984
sg10
VCHEMBL207324
p2111
sbag2
(g3
g4
NtRp2112
(dp2113
g7
I1
sg8
F-5.521460917862246
sg9
I985
sg10
VCHEMBL204376
p2114
sbag2
(g3
g4
NtRp2115
(dp2116
g7
I1
sg8
F-4.0430512678345503
sg9
I986
sg10
VCHEMBL460647
p2117
sbag2
(g3
g4
NtRp2118
(dp2119
g7
I1
sg8
F-5.3752784076841653
sg9
I987
sg10
VCHEMBL216334
p2120
sbag2
(g3
g4
NtRp2121
(dp2122
g7
I1
sg8
F-6.4723462945009009
sg9
I988
sg10
VCHEMBL385949
p2123
sbag2
(g3
g4
NtRp2124
(dp2125
g7
I1
sg8
F-5.8636311755980968
sg9
I989
sg10
VCHEMBL378883
p2126
sbag2
(g3
g4
NtRp2127
(dp2128
g7
I1
sg8
F-4.3944491546724391
sg9
I990
sg10
VCHEMBL215428
p2129
sbag2
(g3
g4
NtRp2130
(dp2131
g7
I1
sg8
F-3.5263605246161616
sg9
I991
sg10
VCHEMBL214692
p2132
sbag2
(g3
g4
NtRp2133
(dp2134
g7
I1
sg8
F-5.3612921657094255
sg9
I992
sg10
VCHEMBL372783
p2135
sbag2
(g3
g4
NtRp2136
(dp2137
g7
I1
sg8
F-4.7004803657924166
sg9
I993
sg10
VCHEMBL250110
p2138
sbag2
(g3
g4
NtRp2139
(dp2140
g7
I1
sg8
F-6.1377270540862341
sg9
I994
sg10
VCHEMBL188299
p2141
sbag2
(g3
g4
NtRp2142
(dp2143
g7
I1
sg8
F-2.1282317058492679
sg9
I995
sg10
VCHEMBL469511
p2144
sbag2
(g3
g4
NtRp2145
(dp2146
g7
I1
sg8
F-5.4071717714601188
sg9
I996
sg10
VCHEMBL211953
p2147
sbag2
(g3
g4
NtRp2148
(dp2149
g7
I1
sg8
F-5.5174528964647074
sg9
I997
sg10
VCHEMBL214034
p2150
sbag2
(g3
g4
NtRp2151
(dp2152
g7
I1
sg8
F-5.4380793089231956
sg9
I998
sg10
VCHEMBL211666
p2153
sbag2
(g3
g4
NtRp2154
(dp2155
g7
I1
sg8
F-5.43372200355424
sg9
I999
sg10
VCHEMBL206500
p2156
sbag2
(g3
g4
NtRp2157
(dp2158
g7
I1
sg8
F-6.0753460310886842
sg9
I1000
sg10
VCHEMBL206439
p2159
sbag2
(g3
g4
NtRp2160
(dp2161
g7
I1
sg8
F-4.4886363697321396
sg9
I1001
sg10
VCHEMBL10560
p2162
sbag2
(g3
g4
NtRp2163
(dp2164
g7
I1
sg8
F-6.9077552789821368
sg9
I1002
sg10
VCHEMBL1087290
p2165
sbag2
(g3
g4
NtRp2166
(dp2167
g7
I1
sg8
F-0.87546873735389985
sg9
I1003
sg10
VCHEMBL1086774
p2168
sbag2
(g3
g4
NtRp2169
(dp2170
g7
I1
sg8
F-5.0106352940962555
sg9
I1006
sg10
VCHEMBL1087040
p2171
sbag2
(g3
g4
NtRp2172
(dp2173
g7
I1
sg8
F-1.824549292051046
sg9
I1007
sg10
VCHEMBL1088337
p2174
sbag2
(g3
g4
NtRp2175
(dp2176
g7
I1
sg8
F-1.6094379124341003
sg9
I1008
sg10
VCHEMBL1088629
p2177
sbag2
(g3
g4
NtRp2178
(dp2179
g7
I1
sg8
F-4.9972122737641147
sg9
I1010
sg10
VCHEMBL231810
p2180
sbag2
(g3
g4
NtRp2181
(dp2182
g7
I1
sg8
F-2.1972245773362196
sg9
I1011
sg10
VCHEMBL1088483
p2183
sbag2
(g3
g4
NtRp2184
(dp2185
g7
I1
sg8
F-4.4067192472642533
sg9
I1014
sg10
VCHEMBL1222036
p2186
sbag2
(g3
g4
NtRp2187
(dp2188
g7
I1
sg8
F-6.678342114654332
sg9
I1015
sg10
VCHEMBL1082743
p2189
sbag2
(g3
g4
NtRp2190
(dp2191
g7
I1
sg8
F-2.33214389523559
sg9
I1016
sg10
VCHEMBL192621
p2192
sbag2
(g3
g4
NtRp2193
(dp2194
g7
I1
sg8
F-2.1972245773362196
sg9
I1017
sg10
VCHEMBL192586
p2195
sbag2
(g3
g4
NtRp2196
(dp2197
g7
I1
sg8
F-3.912023005428146
sg9
I1018
sg10
VCHEMBL434577
p2198
sbag2
(g3
g4
NtRp2199
(dp2200
g7
I1
sg8
F-5.7365722974791922
sg9
I1019
sg10
VCHEMBL384708
p2201
sbag2
(g3
g4
NtRp2202
(dp2203
g7
I1
sg8
F-4.6539603501575231
sg9
I1020
sg10
VCHEMBL221626
p2204
sbag2
(g3
g4
NtRp2205
(dp2206
g7
I1
sg8
F-3.6888794541139363
sg9
I1021
sg10
VCHEMBL222452
p2207
sbag2
(g3
g4
NtRp2208
(dp2209
g7
I1
sg8
F-6.9077552789821368
sg9
I1022
sg10
VCHEMBL219467
p2210
sbag2
(g3
g4
NtRp2211
(dp2212
g7
I1
sg8
F-6.9077552789821368
sg9
I1023
sg10
VCHEMBL592043
p2213
sbag2
(g3
g4
NtRp2214
(dp2215
g7
I1
sg8
F-2.3978952727983707
sg9
I1024
sg10
VCHEMBL1085668
p2216
sbag2
(g3
g4
NtRp2217
(dp2218
g7
I1
sg8
F-2.1633230256605378
sg9
I1027
sg10
VCHEMBL1084922
p2219
sbag2
(g3
g4
NtRp2220
(dp2221
g7
I1
sg8
F-5.7137328055093688
sg9
I1029
sg10
VCHEMBL205070
p2222
sbag2
(g3
g4
NtRp2223
(dp2224
g7
I1
sg8
F-6.2146080984221914
sg9
I1030
sg10
VCHEMBL203860
p2225
sbag2
(g3
g4
NtRp2226
(dp2227
g7
I1
sg8
F0.51082562376599072
sg9
I1031
sg10
VCHEMBL372337
p2228
sbag2
(g3
g4
NtRp2229
(dp2230
g7
I1
sg8
F0.10536051565782628
sg9
I1032
sg10
VCHEMBL180995
p2231
sbag2
(g3
g4
NtRp2232
(dp2233
g7
I1
sg8
F-5.0562458053483077
sg9
I1033
sg10
VCHEMBL203123
p2234
sbag2
(g3
g4
NtRp2235
(dp2236
g7
I1
sg8
F-4.6913478822291435
sg9
I1034
sg10
VCHEMBL381976
p2237
sbag2
(g3
g4
NtRp2238
(dp2239
g7
I1
sg8
F-2.6390573296152584
sg9
I1035
sg10
VCHEMBL201834
p2240
sbag2
(g3
g4
NtRp2241
(dp2242
g7
I1
sg8
F-6.0867747269123065
sg9
I1036
sg10
VCHEMBL213457
p2243
sbag2
(g3
g4
NtRp2244
(dp2245
g7
I1
sg8
F-4.9416424226093039
sg9
I1037
sg10
VCHEMBL211358
p2246
sbag2
(g3
g4
NtRp2247
(dp2248
g7
I1
sg8
F-5.8289456176102075
sg9
I1038
sg10
VCHEMBL214291
p2249
sbag2
(g3
g4
NtRp2250
(dp2251
g7
I1
sg8
F-6.4297194780391376
sg9
I1039
sg10
VCHEMBL424725
p2252
sbag2
(g3
g4
NtRp2253
(dp2254
g7
I1
sg8
F-5.9401712527204316
sg9
I1041
sg10
VCHEMBL210063
p2255
sbag2
(g3
g4
NtRp2256
(dp2257
g7
I1
sg8
F-5.5606816310155276
sg9
I1043
sg10
VCHEMBL385514
p2258
sbag2
(g3
g4
NtRp2259
(dp2260
g7
I1
sg8
F-3.4339872044851463
sg9
I1045
sg10
VCHEMBL240230
p2261
sbag2
(g3
g4
NtRp2262
(dp2263
g7
I1
sg8
F-6.0867747269123065
sg9
I1046
sg10
VCHEMBL394213
p2264
sbag2
(g3
g4
NtRp2265
(dp2266
g7
I1
sg8
F-3.6888794541139363
sg9
I1047
sg10
VCHEMBL193146
p2267
sbag2
(g3
g4
NtRp2268
(dp2269
g7
I1
sg8
F-5.3518581334760666
sg9
I1048
sg10
VCHEMBL191974
p2270
sbag2
(g3
g4
NtRp2271
(dp2272
g7
I1
sg8
F-6.3189681137464344
sg9
I1050
sg10
VCHEMBL309245
p2273
sbag2
(g3
g4
NtRp2274
(dp2275
g7
I1
sg8
F-2.3025850929940459
sg9
I1051
sg10
VCHEMBL193108
p2276
sbag2
(g3
g4
NtRp2277
(dp2278
g7
I1
sg8
F0.69314718055994529
sg9
I1052
sg10
VCHEMBL182794
p2279
sbag2
(g3
g4
NtRp2280
(dp2281
g7
I1
sg8
F-3.4011973816621555
sg9
I1054
sg10
VCHEMBL150461
p2282
sbag2
(g3
g4
NtRp2283
(dp2284
g7
I1
sg8
F-2.3978952727983707
sg9
I1055
sg10
VCHEMBL104367
p2285
sbag2
(g3
g4
NtRp2286
(dp2287
g7
I1
sg8
F0.51082562376599072
sg9
I1056
sg10
VCHEMBL46740
p2288
sbag2
(g3
g4
NtRp2289
(dp2290
g7
I1
sg8
F-3.2347491740244907
sg9
I1059
sg10
VCHEMBL441457
p2291
sbag2
(g3
g4
NtRp2292
(dp2293
g7
I1
sg8
F-5.2470240721604862
sg9
I1061
sg10
VCHEMBL189287
p2294
sbag2
(g3
g4
NtRp2295
(dp2296
g7
I1
sg8
F-3.9815490680767565
sg9
I1062
sg10
VCHEMBL93326
p2297
sbag2
(g3
g4
NtRp2298
(dp2299
g7
I1
sg8
F-2.0794415416798357
sg9
I1063
sg10
VCHEMBL93391
p2300
sbag2
(g3
g4
NtRp2301
(dp2302
g7
I1
sg8
F-6.2225762680713688
sg9
I1064
sg10
VCHEMBL198089
p2303
sbag2
(g3
g4
NtRp2304
(dp2305
g7
I1
sg8
F-3.1354942159291497
sg9
I1065
sg10
VCHEMBL185012
p2306
sbag2
(g3
g4
NtRp2307
(dp2308
g7
I1
sg8
F-0.83290912293510388
sg9
I1066
sg10
VCHEMBL122237
p2309
sbag2
(g3
g4
NtRp2310
(dp2311
g7
I1
sg8
F0.22314355131420971
sg9
I1067
sg10
VCHEMBL361005
p2312
sbag2
(g3
g4
NtRp2313
(dp2314
g7
I1
sg8
F0.69314718055994529
sg9
I1068
sg10
VCHEMBL184679
p2315
sbag2
(g3
g4
NtRp2316
(dp2317
g7
I1
sg8
F-2.0794415416798357
sg9
I1069
sg10
VCHEMBL187105
p2318
sbag2
(g3
g4
NtRp2319
(dp2320
g7
I1
sg8
F-4.5643481914678361
sg9
I1070
sg10
VCHEMBL1405
p2321
sbag2
(g3
g4
NtRp2322
(dp2323
g7
I1
sg8
F-3.6841181370122258
sg9
I1074
sg10
VCHEMBL98558
p2324
sbag2
(g3
g4
NtRp2325
(dp2326
g7
I1
sg8
F-5.0434251169192468
sg9
I1078
sg10
VCHEMBL188528
p2327
sbag2
(g3
g4
NtRp2328
(dp2329
g7
I1
sg8
F1.2039728043259361
sg9
I1079
sg10
VCHEMBL181368
p2330
sbag2
(g3
g4
NtRp2331
(dp2332
g7
I1
sg8
F-5.5373342670185366
sg9
I1080
sg10
VCHEMBL195290
p2333
sbag2
(g3
g4
NtRp2334
(dp2335
g7
I1
sg8
F-3.5550623063795967
sg9
I1081
sg10
VCHEMBL103294
p2336
sbag2
(g3
g4
NtRp2337
(dp2338
g7
I1
sg8
F-3.6635616461296463
sg9
I1085
sg10
VCHEMBL363412
p2339
sbag2
(g3
g4
NtRp2340
(dp2341
g7
I1
sg8
F-6.9077552789821368
sg9
I1086
sg10
VCHEMBL79335
p2342
sbag2
(g3
g4
NtRp2343
(dp2344
g7
I1
sg8
F-3.1179499062782403
sg9
I1087
sg10
VCHEMBL327471
p2345
sbag2
(g3
g4
NtRp2346
(dp2347
g7
I1
sg8
F-3.6888794541139363
sg9
I1089
sg10
VCHEMBL195389
p2348
sbag2
(g3
g4
NtRp2349
(dp2350
g7
I1
sg8
F-5.3471075307174685
sg9
I1090
sg10
VCHEMBL360189
p2351
sbag2
(g3
g4
NtRp2352
(dp2353
g7
I1
sg8
F-1.824549292051046
sg9
I1091
sg10
VCHEMBL71585
p2354
sbag2
(g3
g4
NtRp2355
(dp2356
g7
I1
sg8
F-3.2950958507796098
sg9
I1092
sg10
VCHEMBL100763
p2357
sbag2
(g3
g4
NtRp2358
(dp2359
g7
I1
sg8
F-1.9878743481543455
sg9
I1096
sg10
VCHEMBL365484
p2360
sbag2
(g3
g4
NtRp2361
(dp2362
g7
I1
sg8
F-6.9077552789821368
sg9
I1097
sg10
VCHEMBL103
p2363
sbag2
(g3
g4
NtRp2364
(dp2365
g7
I1
sg8
F-3.4242626545931514
sg9
I1099
sg10
VCHEMBL91052
p2366
sbag2
(g3
g4
NtRp2367
(dp2368
g7
I1
sg8
F-6.9077552789821368
sg9
I1100
sg10
VCHEMBL311034
p2369
sbag2
(g3
g4
NtRp2370
(dp2371
g7
I1
sg8
F-3.5524868292083815
sg9
I1101
sg10
VCHEMBL92335
p2372
sbag2
(g3
g4
NtRp2373
(dp2374
g7
I1
sg8
F-3.5553480614894135
sg9
I1102
sg10
VCHEMBL189077
p2375
sbag2
(g3
g4
NtRp2376
(dp2377
g7
I1
sg8
F-3.4657359027997265
sg9
I1103
sg10
VCHEMBL1627351
p2378
sbag2
(g3
g4
NtRp2379
(dp2380
g7
I1
sg8
F-3.8918202981106265
sg9
I1105
sg10
VCHEMBL360338
p2381
sbag2
(g3
g4
NtRp2382
(dp2383
g7
I1
sg8
F-0.97455963999813078
sg9
I1106
sg10
VCHEMBL178857
p2384
sbag2
(g3
g4
NtRp2385
(dp2386
g7
I1
sg8
F-3.7541989202345789
sg9
I1107
sg10
VCHEMBL90008
p2387
sbag2
(g3
g4
NtRp2388
(dp2389
g7
I1
sg8
F-6.7031881132408628
sg9
I1108
sg10
VCHEMBL188882
p2390
sbag2
(g3
g4
NtRp2391
(dp2392
g7
I1
sg8
F-5.3423342519648109
sg9
I1109
sg10
VCHEMBL360385
p2393
sbag2
(g3
g4
NtRp2394
(dp2395
g7
I1
sg8
F0.69314718055994529
sg9
I1110
sg10
VCHEMBL182980
p2396
sbag2
(g3
g4
NtRp2397
(dp2398
g7
I1
sg8
F-4.7535901911063645
sg9
I1112
sg10
VCHEMBL195039
p2399
sbag2
(g3
g4
NtRp2400
(dp2401
g7
I1
sg8
F-3.6633052029945059
sg9
I1113
sg10
VCHEMBL319211
p2402
sbag2
(g3
g4
NtRp2403
(dp2404
g7
I1
sg8
F-2.5649493574615367
sg9
I1117
sg10
VCHEMBL180085
p2405
sbag2
(g3
g4
NtRp2406
(dp2407
g7
I1
sg8
F-0.87546873735389985
sg9
I1118
sg10
VCHEMBL183162
p2408
sbag2
(g3
g4
NtRp2409
(dp2410
g7
I1
sg8
F1.2039728043259361
sg9
I1119
sg10
VCHEMBL427324
p2411
sbag2
(g3
g4
NtRp2412
(dp2413
g7
I1
sg8
F-3.912023005428146
sg9
I1120
sg10
VCHEMBL357824
p2414
sbag2
(g3
g4
NtRp2415
(dp2416
g7
I1
sg8
F-1.3862943611198906
sg9
I1121
sg10
VCHEMBL1087418
p2417
sbag2
(g3
g4
NtRp2418
(dp2419
g7
I1
sg8
F-5.4939663835528538
sg9
I1123
sg10
VCHEMBL1094732
p2420
sbag2
(g3
g4
NtRp2421
(dp2422
g7
I1
sg8
F-4.3081109517237133
sg9
I1124
sg10
VCHEMBL1097377
p2423
sbag2
(g3
g4
NtRp2424
(dp2425
g7
I1
sg8
F-6.1527326947041043
sg9
I1125
sg10
VCHEMBL425246
p2426
sbag2
(g3
g4
NtRp2427
(dp2428
g7
I1
sg8
F-6.4967749901858625
sg9
I1126
sg10
VCHEMBL380032
p2429
sbag2
(g3
g4
NtRp2430
(dp2431
g7
I1
sg8
F-3.8286413964890951
sg9
I1127
sg10
VCHEMBL211349
p2432
sbag2
(g3
g4
NtRp2433
(dp2434
g7
I1
sg8
F-4.4308167988433134
sg9
I1128
sg10
VCHEMBL234524
p2435
sbag2
(g3
g4
NtRp2436
(dp2437
g7
I1
sg8
F-6.6871086078665147
sg9
I1129
sg10
VCHEMBL396947
p2438
sbag2
(g3
g4
NtRp2439
(dp2440
g7
I1
sg8
F-6.261491684321042
sg9
I1130
sg10
VCHEMBL203340
p2441
sbag2
(g3
g4
NtRp2442
(dp2443
g7
I1
sg8
F-6.3716118472318568
sg9
I1131
sg10
VCHEMBL380720
p2444
sbag2
(g3
g4
NtRp2445
(dp2446
g7
I1
sg8
F-6.9077552789821368
sg9
I1132
sg10
VCHEMBL205614
p2447
sbag2
(g3
g4
NtRp2448
(dp2449
g7
I1
sg8
F-2.9957322735539909
sg9
I1133
sg10
VCHEMBL481189
p2450
sbag2
(g3
g4
NtRp2451
(dp2452
g7
I1
sg8
F-6.9077552789821368
sg9
I1134
sg10
VCHEMBL519599
p2453
sbag2
(g3
g4
NtRp2454
(dp2455
g7
I1
sg8
F-3.9512437185814275
sg9
I1135
sg10
VCHEMBL222453
p2456
sbag2
(g3
g4
NtRp2457
(dp2458
g7
I1
sg8
F-1.5040773967762742
sg9
I1136
sg10
VCHEMBL1087297
p2459
sbag2
(g3
g4
NtRp2460
(dp2461
g7
I1
sg8
F-1.4350845252893227
sg9
I1138
sg10
VCHEMBL1087426
p2462
sbag2
(g3
g4
NtRp2463
(dp2464
g7
I1
sg8
F-0.095310179804324935
sg9
I1140
sg10
VCHEMBL1088485
p2465
sbag2
(g3
g4
NtRp2466
(dp2467
g7
I1
sg8
F-4.6347289882296359
sg9
I1143
sg10
VCHEMBL183889
p2468
sbag2
(g3
g4
NtRp2469
(dp2470
g7
I1
sg8
F-6.9077552789821368
sg9
I1144
sg10
VCHEMBL1083805
p2471
sbag2
(g3
g4
NtRp2472
(dp2473
g7
I1
sg8
F-1.5686159179138452
sg9
I1145
sg10
VCHEMBL1085161
p2474
sbag2
(g3
g4
NtRp2475
(dp2476
g7
I1
sg8
F-1.8405496333974869
sg9
I1146
sg10
VCHEMBL1082864
p2477
sbag2
(g3
g4
NtRp2478
(dp2479
g7
I1
sg8
F-4.1271343850450917
sg9
I1149
sg10
VCHEMBL225514
p2480
sbag2
(g3
g4
NtRp2481
(dp2482
g7
I1
sg8
F-3.6109179126442243
sg9
I1150
sg10
VCHEMBL222454
p2483
sbag2
(g3
g4
NtRp2484
(dp2485
g7
I1
sg8
F-6.1202974189509503
sg9
I1151
sg10
VCHEMBL215593
p2486
sbag2
(g3
g4
NtRp2487
(dp2488
g7
I1
sg8
F-3.6109179126442243
sg9
I1152
sg10
VCHEMBL391909
p2489
sbag2
(g3
g4
NtRp2490
(dp2491
g7
I1
sg8
F-1.8870696490323797
sg9
I1153
sg10
VCHEMBL241256
p2492
sbag2
(g3
g4
NtRp2493
(dp2494
g7
I1
sg8
F-2.3125354238472138
sg9
I1154
sg10
VCHEMBL241484
p2495
sbag2
(g3
g4
NtRp2496
(dp2497
g7
I1
sg8
F-1.589235205116581
sg9
I1155
sg10
VCHEMBL396119
p2498
sbag2
(g3
g4
NtRp2499
(dp2500
g7
I1
sg8
F-2.1972245773362196
sg9
I1156
sg10
VCHEMBL1084129
p2501
sbag2
(g3
g4
NtRp2502
(dp2503
g7
I1
sg8
F-5.7430031878094825
sg9
I1158
sg10
VCHEMBL1085172
p2504
sbag2
(g3
g4
NtRp2505
(dp2506
g7
I1
sg8
F-5.6419070709381138
sg9
I1159
sg10
VCHEMBL372030
p2507
sbag2
(g3
g4
NtRp2508
(dp2509
g7
I1
sg8
F-6.7638849085624351
sg9
I1160
sg10
VCHEMBL382873
p2510
sbag2
(g3
g4
NtRp2511
(dp2512
g7
I1
sg8
F-3.6888794541139363
sg9
I1161
sg10
VCHEMBL202155
p2513
sbag2
(g3
g4
NtRp2514
(dp2515
g7
I1
sg8
F-6.0520891689244172
sg9
I1162
sg10
VCHEMBL437065
p2516
sbag2
(g3
g4
NtRp2517
(dp2518
g7
I1
sg8
F-6.4457198193855785
sg9
I1163
sg10
VCHEMBL381495
p2519
sbag2
(g3
g4
NtRp2520
(dp2521
g7
I1
sg8
F0.69314718055994529
sg9
I1164
sg10
VCHEMBL92748
p2522
sbag2
(g3
g4
NtRp2523
(dp2524
g7
I1
sg8
F-3.068052935133617
sg9
I1165
sg10
VCHEMBL226267
p2525
sbag2
(g3
g4
NtRp2526
(dp2527
g7
I1
sg8
F-2.0541237336955462
sg9
I1166
sg10
VCHEMBL226268
p2528
sbag2
(g3
g4
NtRp2529
(dp2530
g7
I1
sg8
F-2.388762789235098
sg9
I1167
sg10
VCHEMBL226327
p2531
sbag2
(g3
g4
NtRp2532
(dp2533
g7
I1
sg8
F-6.5652649700353614
sg9
I1168
sg10
VCHEMBL213838
p2534
sbag2
(g3
g4
NtRp2535
(dp2536
g7
I1
sg8
F-5.6698809229805196
sg9
I1170
sg10
VCHEMBL190467
p2537
sbag2
(g3
g4
NtRp2538
(dp2539
g7
I1
sg8
F-5.1929568508902104
sg9
I1171
sg10
VCHEMBL192849
p2540
sbag2
(g3
g4
NtRp2541
(dp2542
g7
I1
sg8
F-5.4806389233419912
sg9
I1172
sg10
VCHEMBL205119
p2543
sbag2
(g3
g4
NtRp2544
(dp2545
g7
I1
sg8
F-2.7725887222397811
sg9
I1173
sg10
VCHEMBL202607
p2546
sbag2
(g3
g4
NtRp2547
(dp2548
g7
I1
sg8
F-1.9459101490553132
sg9
I1174
sg10
VCHEMBL371637
p2549
sbag2
(g3
g4
NtRp2550
(dp2551
g7
I1
sg8
F-6.1717005974109149
sg9
I1175
sg10
VCHEMBL204315
p2552
sbag2
(g3
g4
NtRp2553
(dp2554
g7
I1
sg8
F-5.6094717951849598
sg9
I1176
sg10
VCHEMBL210143
p2555
sbag2
(g3
g4
NtRp2556
(dp2557
g7
I1
sg8
F-3.9318256327243257
sg9
I1177
sg10
VCHEMBL208085
p2558
sbag2
(g3
g4
NtRp2559
(dp2560
g7
I1
sg8
F-4.6051701859880918
sg9
I1178
sg10
VCHEMBL383112
p2561
sbag2
(g3
g4
NtRp2562
(dp2563
g7
I1
sg8
F-4.7273878187123408
sg9
I1179
sg10
VCHEMBL209978
p2564
sbag2
(g3
g4
NtRp2565
(dp2566
g7
I1
sg8
F-2.7080502011022101
sg9
I1180
sg10
VCHEMBL341367
p2567
sbag2
(g3
g4
NtRp2568
(dp2569
g7
I1
sg8
F-2.1972245773362196
sg9
I1181
sg10
VCHEMBL357283
p2570
sbag2
(g3
g4
NtRp2571
(dp2572
g7
I1
sg8
F-5.9712618397904622
sg9
I1182
sg10
VCHEMBL216596
p2573
sbag2
(g3
g4
NtRp2574
(dp2575
g7
I1
sg8
F-5.2626901889048856
sg9
I1183
sg10
VCHEMBL1628029
p2576
sbag2
(g3
g4
NtRp2577
(dp2578
g7
I1
sg8
F-5.5174528964647074
sg9
I1184
sg10
VCHEMBL188517
p2579
sbag2
(g3
g4
NtRp2580
(dp2581
g7
I1
sg8
F-2.1713368063840917
sg9
I1185
sg10
VCHEMBL513397
p2582
sbag2
(g3
g4
NtRp2583
(dp2584
g7
I1
sg8
F-0
sg9
I1186
sg10
VCHEMBL121720
p2585
sbag2
(g3
g4
NtRp2586
(dp2587
g7
I1
sg8
F-6.694562058521095
sg9
I1187
sg10
VCHEMBL1162
p2588
sbag2
(g3
g4
NtRp2589
(dp2590
g7
I1
sg8
F-5.7589017738772803
sg9
I1188
sg10
VCHEMBL245378
p2591
sbag2
(g3
g4
NtRp2592
(dp2593
g7
I1
sg8
F-6.4614681763537174
sg9
I1189
sg10
VCHEMBL249700
p2594
sbag2
(g3
g4
NtRp2595
(dp2596
g7
I1
sg8
F-6.5072777123850116
sg9
I1190
sg10
VCHEMBL457035
p2597
sbag2
(g3
g4
NtRp2598
(dp2599
g7
I1
sg8
F-0.10436001532424286
sg9
I1191
sg10
VCHEMBL1818254
p2600
sbag2
(g3
g4
NtRp2601
(dp2602
g7
I1
sg8
F-4.4543472962535073
sg9
I1192
sg10
VCHEMBL1782331
p2603
sbag2
(g3
g4
NtRp2604
(dp2605
g7
I1
sg8
F-6.0714303287458637
sg9
I1193
sg10
VCHEMBL2103774
p2606
sbag2
(g3
g4
NtRp2607
(dp2608
g7
I1
sg8
F1.6094379124341003
sg9
I1194
sg10
VCHEMBL2024377
p2609
sbag2
(g3
g4
NtRp2610
(dp2611
g7
I1
sg8
F0.51082562376599072
sg9
I1195
sg10
VCHEMBL2024376
p2612
sbag2
(g3
g4
NtRp2613
(dp2614
g7
I1
sg8
F-0.40546510810816438
sg9
I1196
sg10
VCHEMBL2113002
p2615
sbag2
(g3
g4
NtRp2616
(dp2617
g7
I1
sg8
F-1.0986122886681098
sg9
I1197
sg10
VCHEMBL2111532
p2618
sbag2
(g3
g4
NtRp2619
(dp2620
g7
I1
sg8
F-5.4595855141441589
sg9
I1201
sg10
VCHEMBL2112469
p2621
sbag2
(g3
g4
NtRp2622
(dp2623
g7
I1
sg8
F-0.095310179804324935
sg9
I1202
sg10
VCHEMBL2113027
p2624
sbag2
(g3
g4
NtRp2625
(dp2626
g7
I1
sg8
F0.030459207484708574
sg9
I1203
sg10
VCHEMBL2113001
p2627
sbag2
(g3
g4
NtRp2628
(dp2629
g7
I1
sg8
F-5.6698809229805196
sg9
I1204
sg10
VCHEMBL2071180
p2630
sbag2
(g3
g4
NtRp2631
(dp2632
g7
I1
sg8
F-5.1357984370502621
sg9
I1205
sg10
VCHEMBL1208076
p2633
sbag2
(g3
g4
NtRp2634
(dp2635
g7
I1
sg8
F-4.5951198501345898
sg9
I1206
sg10
VCHEMBL2403361
p2636
sbag2
(g3
g4
NtRp2637
(dp2638
g7
I1
sg8
F-6.1944053911046719
sg9
I1207
sg10
VCHEMBL2403363
p2639
sbag2
(g3
g4
NtRp2640
(dp2641
g7
I1
sg8
F-4.7004803657924166
sg9
I1208
sg10
VCHEMBL2403346
p2642
sbag2
(g3
g4
NtRp2643
(dp2644
g7
I1
sg8
F-2.6390573296152584
sg9
I1209
sg10
VCHEMBL2403357
p2645
sbag2
(g3
g4
NtRp2646
(dp2647
g7
I1
sg8
F-5.4380793089231956
sg9
I1210
sg10
VCHEMBL2403359
p2648
sbag2
(g3
g4
NtRp2649
(dp2650
g7
I1
sg8
F-4.4308167988433134
sg9
I1211
sg10
VCHEMBL2403358
p2651
sbag2
(g3
g4
NtRp2652
(dp2653
g7
I1
sg8
F-5.4380793089231956
sg9
I1212
sg10
VCHEMBL2403360
p2654
sbag2
(g3
g4
NtRp2655
(dp2656
g7
I1
sg8
F-4.8441870864585912
sg9
I1213
sg10
VCHEMBL2401849
p2657
sbag2
(g3
g4
NtRp2658
(dp2659
g7
I1
sg8
F-4.3694478524670215
sg9
I1214
sg10
VCHEMBL2403362
p2660
sbag2
(g3
g4
NtRp2661
(dp2662
g7
I1
sg8
F-4.2766661190160553
sg9
I1215
sg10
VCHEMBL2403349
p2663
sbag2
(g3
g4
NtRp2664
(dp2665
g7
I1
sg8
F-1.589235205116581
sg9
I1216
sg10
VCHEMBL2403356
p2666
sbag2
(g3
g4
NtRp2667
(dp2668
g7
I1
sg8
F-5.5134287461649825
sg9
I1217
sg10
VCHEMBL2401848
p2669
sbag2
(g3
g4
NtRp2670
(dp2671
g7
I1
sg8
F-4.5849674786705723
sg9
I1218
sg10
VCHEMBL2403348
p2672
sbag2
(g3
g4
NtRp2673
(dp2674
g7
I1
sg8
F-4.3040650932041702
sg9
I1219
sg10
VCHEMBL2403347
p2675
sbag2
(g3
g4
NtRp2676
(dp2677
g7
I1
sg8
F-3.2188758248682006
sg9
I1220
sg10
VCHEMBL2403355
p2678
sba.