(lp1
ccopy_reg
_reconstructor
p2
(cworkflow.molecule
Molecule
p3
c__builtin__
object
p4
NtRp5
(dp6
S'pIC'
p7
F-2.258633205464863
sS'id'
p8
I0
sS'name'
p9
VCHEMBL219763
p10
sbag2
(g3
g4
NtRp11
(dp12
g7
F-5.6131281063880705
sg8
I1
sg9
VCHEMBL92720
p13
sbag2
(g3
g4
NtRp14
(dp15
g7
F-3.2108436531709366
sg8
I3
sg9
VCHEMBL330307
p16
sbag2
(g3
g4
NtRp17
(dp18
g7
F-1.791759469228055
sg8
I4
sg9
VCHEMBL370037
p19
sbag2
(g3
g4
NtRp20
(dp21
g7
F-3.5553480614894135
sg8
I5
sg9
VCHEMBL315761
p22
sbag2
(g3
g4
NtRp23
(dp24
g7
F-0.26236426446749106
sg8
I6
sg9
VCHEMBL180300
p25
sbag2
(g3
g4
NtRp26
(dp27
g7
F-4.7361984483944957
sg8
I8
sg9
VCHEMBL365290
p28
sbag2
(g3
g4
NtRp29
(dp30
g7
F-6.2672005485413624
sg8
I9
sg9
VCHEMBL191648
p31
sbag2
(g3
g4
NtRp32
(dp33
g7
F-0.78845736036427028
sg8
I10
sg9
VCHEMBL184431
p34
sbag2
(g3
g4
NtRp35
(dp36
g7
F-6.3261494731550991
sg8
I11
sg9
VCHEMBL364551
p37
sbag2
(g3
g4
NtRp38
(dp39
g7
F-1.6094379124341003
sg8
I12
sg9
VCHEMBL124482
p40
sbag2
(g3
g4
NtRp41
(dp42
g7
F-5.5053315359323625
sg8
I13
sg9
VCHEMBL198410
p43
sbag2
(g3
g4
NtRp44
(dp45
g7
F-1.547562508716013
sg8
I14
sg9
VCHEMBL420068
p46
sbag2
(g3
g4
NtRp47
(dp48
g7
F-4.7273878187123408
sg8
I15
sg9
VCHEMBL1200324
p49
sbag2
(g3
g4
NtRp50
(dp51
g7
F-1.7047480922384253
sg8
I16
sg9
VCHEMBL93793
p52
sbag2
(g3
g4
NtRp53
(dp54
g7
F-1.9169226121820611
sg8
I18
sg9
VCHEMBL184448
p55
sbag2
(g3
g4
NtRp56
(dp57
g7
F-4.8121843553724171
sg8
I19
sg9
VCHEMBL195466
p58
sbag2
(g3
g4
NtRp59
(dp60
g7
F-0
sg8
I21
sg9
VCHEMBL183049
p61
sbag2
(g3
g4
NtRp62
(dp63
g7
F-5.3471075307174685
sg8
I22
sg9
VCHEMBL77135
p64
sbag2
(g3
g4
NtRp65
(dp66
g7
F0.22314355131420971
sg8
I23
sg9
VCHEMBL183092
p67
sbag2
(g3
g4
NtRp68
(dp69
g7
F-5.1929568508902104
sg8
I24
sg9
VCHEMBL78413
p70
sbag2
(g3
g4
NtRp71
(dp72
g7
F-3.0440461338325417
sg8
I25
sg9
VCHEMBL316080
p73
sbag2
(g3
g4
NtRp74
(dp75
g7
F-5.0106352940962555
sg8
I30
sg9
VCHEMBL434502
p76
sbag2
(g3
g4
NtRp77
(dp78
g7
F-3.4965075614664802
sg8
I31
sg9
VCHEMBL1628199
p79
sbag2
(g3
g4
NtRp80
(dp81
g7
F-6.6463905148477291
sg8
I33
sg9
VCHEMBL411
p82
sbag2
(g3
g4
NtRp83
(dp84
g7
F-1.3862943611198906
sg8
I37
sg9
VCHEMBL123025
p85
sbag2
(g3
g4
NtRp86
(dp87
g7
F-5.9322451874480109
sg8
I38
sg9
VCHEMBL153062
p88
sbag2
(g3
g4
NtRp89
(dp90
g7
F-3.6635616461296463
sg8
I39
sg9
VCHEMBL83
p91
sbag2
(g3
g4
NtRp92
(dp93
g7
F-4.0604430105464191
sg8
I46
sg9
VCHEMBL34679
p94
sbag2
(g3
g4
NtRp95
(dp96
g7
F-0.91629073187415511
sg8
I47
sg9
VCHEMBL328716
p97
sbag2
(g3
g4
NtRp98
(dp99
g7
F-1.0986122886681098
sg8
I49
sg9
VCHEMBL315271
p100
sbag2
(g3
g4
NtRp101
(dp102
g7
F-6.5889264775335192
sg8
I50
sg9
VCHEMBL188049
p103
sbag2
(g3
g4
NtRp104
(dp105
g7
F-4.7874917427820458
sg8
I51
sg9
VCHEMBL1462307
p106
sbag2
(g3
g4
NtRp107
(dp108
g7
F-2.5649493574615367
sg8
I52
sg9
VCHEMBL1087419
p109
sbag2
(g3
g4
NtRp110
(dp111
g7
F-5.2470240721604862
sg8
I55
sg9
VCHEMBL1087041
p112
sbag2
(g3
g4
NtRp113
(dp114
g7
F-6.9077552789821368
sg8
I56
sg9
VCHEMBL1348802
p115
sbag2
(g3
g4
NtRp116
(dp117
g7
F-4.2484952420493594
sg8
I57
sg9
VCHEMBL1322939
p118
sbag2
(g3
g4
NtRp119
(dp120
g7
F-0
sg8
I58
sg9
VCHEMBL1253498
p121
sbag2
(g3
g4
NtRp122
(dp123
g7
F-0.58778666490211906
sg8
I59
sg9
VCHEMBL184372
p124
sbag2
(g3
g4
NtRp125
(dp126
g7
F-1.1939224684724346
sg8
I60
sg9
VCHEMBL1083186
p127
sbag2
(g3
g4
NtRp128
(dp129
g7
F-4.1588830833596715
sg8
I63
sg9
VCHEMBL1085429
p130
sbag2
(g3
g4
NtRp131
(dp132
g7
F-1.6094379124341003
sg8
I64
sg9
VCHEMBL1084128
p133
sbag2
(g3
g4
NtRp134
(dp135
g7
F-0.33647223662121289
sg8
I66
sg9
VCHEMBL124474
p136
sbag2
(g3
g4
NtRp137
(dp138
g7
F-3.6109179126442243
sg8
I67
sg9
VCHEMBL231811
p139
sbag2
(g3
g4
NtRp140
(dp141
g7
F-3.2188758248682006
sg8
I68
sg9
VCHEMBL385801
p142
sbag2
(g3
g4
NtRp143
(dp144
g7
F-3.7128400915587796
sg8
I69
sg9
VCHEMBL1087682
p145
sbag2
(g3
g4
NtRp146
(dp147
g7
F-0.47000362924573563
sg8
I70
sg9
VCHEMBL1087811
p148
sbag2
(g3
g4
NtRp149
(dp150
g7
F-2.7725887222397811
sg8
I73
sg9
VCHEMBL1086389
p151
sbag2
(g3
g4
NtRp152
(dp153
g7
F-1.1151415906193203
sg8
I75
sg9
VCHEMBL427496
p154
sbag2
(g3
g4
NtRp155
(dp156
g7
F-5.1059454739005803
sg8
I76
sg9
VCHEMBL225404
p157
sbag2
(g3
g4
NtRp158
(dp159
g7
F-4.5325994931532563
sg8
I77
sg9
VCHEMBL222501
p160
sbag2
(g3
g4
NtRp161
(dp162
g7
F-2.8449093838194073
sg8
I78
sg9
VCHEMBL226269
p163
sbag2
(g3
g4
NtRp164
(dp165
g7
F-6.6463905148477291
sg8
I79
sg9
VCHEMBL1081361
p166
sbag2
(g3
g4
NtRp167
(dp168
g7
F-1.0473189942805592
sg8
I80
sg9
VCHEMBL219003
p169
sbag2
(g3
g4
NtRp170
(dp171
g7
F-0.83290912293510388
sg8
I81
sg9
VCHEMBL329902
p172
sbag2
(g3
g4
NtRp173
(dp174
g7
F-3.970291913552122
sg8
I83
sg9
VCHEMBL235496
p175
sbag2
(g3
g4
NtRp176
(dp177
g7
F-4.0253516907351496
sg8
I84
sg9
VCHEMBL235497
p178
sbag2
(g3
g4
NtRp179
(dp180
g7
F-5.7868973813667077
sg8
I85
sg9
VCHEMBL1084913
p181
sbag2
(g3
g4
NtRp182
(dp183
g7
F-1.1939224684724346
sg8
I86
sg9
VCHEMBL1082224
p184
sbag2
(g3
g4
NtRp185
(dp186
g7
F-1.5686159179138452
sg8
I88
sg9
VCHEMBL1083194
p187
sbag2
(g3
g4
NtRp188
(dp189
g7
F0.51082562376599072
sg8
I89
sg9
VCHEMBL184371
p190
sbag2
(g3
g4
NtRp191
(dp192
g7
F-5.8861040314501558
sg8
I90
sg9
VCHEMBL188458
p193
sbag2
(g3
g4
NtRp194
(dp195
g7
F-5.2781146592305168
sg8
I91
sg9
VCHEMBL361272
p196
sbag2
(g3
g4
NtRp197
(dp198
g7
F-0.91629073187415511
sg8
I92
sg9
VCHEMBL431611
p199
sbag2
(g3
g4
NtRp200
(dp201
g7
F-4.6539603501575231
sg8
I93
sg9
VCHEMBL33568
p202
sbag2
(g3
g4
NtRp203
(dp204
g7
F-2.5649493574615367
sg8
I94
sg9
VCHEMBL241257
p205
sbag2
(g3
g4
NtRp206
(dp207
g7
F-5.1647859739235145
sg8
I95
sg9
VCHEMBL396118
p208
sbag2
(g3
g4
NtRp209
(dp210
g7
F-1.4350845252893227
sg8
I96
sg9
VCHEMBL1088344
p211
sbag2
(g3
g4
NtRp212
(dp213
g7
F-5.4806389233419912
sg8
I98
sg9
VCHEMBL150279
p214
sbag2
(g3
g4
NtRp215
(dp216
g7
F-6.5750758405996201
sg8
I99
sg9
VCHEMBL365625
p217
sbag2
(g3
g4
NtRp218
(dp219
g7
F-6.6528630293533473
sg8
I100
sg9
VCHEMBL365016
p220
sbag2
(g3
g4
NtRp221
(dp222
g7
F-5.0106352940962555
sg8
I101
sg9
VCHEMBL398841
p223
sbag2
(g3
g4
NtRp224
(dp225
g7
F-1.3609765531356006
sg8
I102
sg9
VCHEMBL359774
p226
sbag2
(g3
g4
NtRp227
(dp228
g7
F-3.6635616461296463
sg8
I103
sg9
VCHEMBL179929
p229
sbag2
(g3
g4
NtRp230
(dp231
g7
F-0.64185388617239469
sg8
I104
sg9
VCHEMBL470993
p232
sbag2
(g3
g4
NtRp233
(dp234
g7
F-1.9021075263969205
sg8
I105
sg9
VCHEMBL511269
p235
sbag2
(g3
g4
NtRp236
(dp237
g7
F-2.7850112422383382
sg8
I106
sg9
VCHEMBL469512
p238
sbag2
(g3
g4
NtRp239
(dp240
g7
F-4.5325994931532563
sg8
I107
sg9
VCHEMBL470785
p241
sbag2
(g3
g4
NtRp242
(dp243
g7
F-4.6051701859880918
sg8
I108
sg9
VCHEMBL1087289
p244
sbag2
(g3
g4
NtRp245
(dp246
g7
F-0.91629073187415511
sg8
I111
sg9
VCHEMBL1086776
p247
sbag2
(g3
g4
NtRp248
(dp249
g7
F-2.9449651565003379
sg8
I114
sg9
VCHEMBL101382
p250
sbag2
(g3
g4
NtRp251
(dp252
g7
F-0.53062825106217038
sg8
I120
sg9
VCHEMBL185114
p253
sbag2
(g3
g4
NtRp254
(dp255
g7
F-6.8834625864130921
sg8
I121
sg9
VCHEMBL377171
p256
sbag2
(g3
g4
NtRp257
(dp258
g7
F-3.929862923556477
sg8
I122
sg9
VCHEMBL385680
p259
sbag2
(g3
g4
NtRp260
(dp261
g7
F-6.1820849067166321
sg8
I123
sg9
VCHEMBL204902
p262
sbag2
(g3
g4
NtRp263
(dp264
g7
F-5.4293456289544411
sg8
I124
sg9
VCHEMBL206727
p265
sbag2
(g3
g4
NtRp266
(dp267
g7
F-4.6151205168412597
sg8
I125
sg9
VCHEMBL206547
p268
sbag2
(g3
g4
NtRp269
(dp270
g7
F-2.341805806147327
sg8
I126
sg9
VCHEMBL471626
p271
sbag2
(g3
g4
NtRp272
(dp273
g7
F-4.836281906951478
sg8
I127
sg9
VCHEMBL511492
p274
sbag2
(g3
g4
NtRp275
(dp276
g7
F-4.4308167988433134
sg8
I128
sg9
VCHEMBL212992
p277
sbag2
(g3
g4
NtRp278
(dp279
g7
F-3.3322045101752038
sg8
I129
sg9
VCHEMBL93792
p280
sbag2
(g3
g4
NtRp281
(dp282
g7
F-4.836281906951478
sg8
I130
sg9
VCHEMBL196836
p283
sbag2
(g3
g4
NtRp284
(dp285
g7
F-4.5108595065168497
sg8
I131
sg9
VCHEMBL25228
p286
sbag2
(g3
g4
NtRp287
(dp288
g7
F-4.2710950739665998
sg8
I132
sg9
VCHEMBL219390
p289
sbag2
(g3
g4
NtRp290
(dp291
g7
F-3.912023005428146
sg8
I133
sg9
VCHEMBL328675
p292
sbag2
(g3
g4
NtRp293
(dp294
g7
F-5.2257466737132017
sg8
I134
sg9
VCHEMBL194326
p295
sbag2
(g3
g4
NtRp296
(dp297
g7
F-6.3403593037277517
sg8
I135
sg9
VCHEMBL209269
p298
sbag2
(g3
g4
NtRp299
(dp300
g7
F-6.8341087388138382
sg8
I137
sg9
VCHEMBL33888
p301
sbag2
(g3
g4
NtRp302
(dp303
g7
F-1.7749523509116738
sg8
I138
sg9
VCHEMBL93586
p304
sbag2
(g3
g4
NtRp305
(dp306
g7
F-3.4330189939851112
sg8
I139
sg9
VCHEMBL328388
p307
sbag2
(g3
g4
NtRp308
(dp309
g7
F-1.3660916538023711
sg8
I143
sg9
VCHEMBL385993
p310
sbag2
(g3
g4
NtRp311
(dp312
g7
F-3.8286413964890951
sg8
I144
sg9
VCHEMBL523477
p313
sbag2
(g3
g4
NtRp314
(dp315
g7
F-3.6888794541139363
sg8
I145
sg9
VCHEMBL191300
p316
sbag2
(g3
g4
NtRp317
(dp318
g7
F-4.0604430105464191
sg8
I146
sg9
VCHEMBL447837
p319
sbag2
(g3
g4
NtRp320
(dp321
g7
F-1.547562508716013
sg8
I147
sg9
VCHEMBL94280
p322
sbag2
(g3
g4
NtRp323
(dp324
g7
F-6.6592939196836376
sg8
I148
sg9
VCHEMBL187314
p325
sbag2
(g3
g4
NtRp326
(dp327
g7
F-3.3032169733019514
sg8
I149
sg9
VCHEMBL371308
p328
sbag2
(g3
g4
NtRp329
(dp330
g7
F-3.5835189384561099
sg8
I150
sg9
VCHEMBL191710
p331
sbag2
(g3
g4
NtRp332
(dp333
g7
F-0.99325177301028345
sg8
I151
sg9
VCHEMBL313941
p334
sbag2
(g3
g4
NtRp335
(dp336
g7
F-5.8749307308520304
sg8
I152
sg9
VCHEMBL426085
p337
sbag2
(g3
g4
NtRp338
(dp339
g7
F-5.7930136083841441
sg8
I153
sg9
VCHEMBL202691
p340
sbag2
(g3
g4
NtRp341
(dp342
g7
F-6.1758672701057611
sg8
I154
sg9
VCHEMBL211493
p343
sbag2
(g3
g4
NtRp344
(dp345
g7
F-6.7833252006039597
sg8
I155
sg9
VCHEMBL377475
p346
sbag2
(g3
g4
NtRp347
(dp348
g7
F-6.4409465406329209
sg8
I156
sg9
VCHEMBL204024
p349
sbag2
(g3
g4
NtRp350
(dp351
g7
F0.51082562376599072
sg8
I157
sg9
VCHEMBL183333
p352
sbag2
(g3
g4
NtRp353
(dp354
g7
F-0
sg8
I158
sg9
VCHEMBL185231
p355
sbag2
(g3
g4
NtRp356
(dp357
g7
F-3.4404180948154366
sg8
I159
sg9
VCHEMBL382734
p358
sbag2
(g3
g4
NtRp359
(dp360
g7
F-4.6913478822291435
sg8
I160
sg9
VCHEMBL195807
p361
sbag2
(g3
g4
NtRp362
(dp363
g7
F-6.1944053911046719
sg8
I161
sg9
VCHEMBL31127
p364
sbag2
(g3
g4
NtRp365
(dp366
g7
F0.69314718055994529
sg8
I162
sg9
VCHEMBL198914
p367
sbag2
(g3
g4
NtRp368
(dp369
g7
F0.916290731874155
sg8
I163
sg9
VCHEMBL372808
p370
sbag2
(g3
g4
NtRp371
(dp372
g7
F0.51082562376599072
sg8
I164
sg9
VCHEMBL197495
p373
sbag2
(g3
g4
NtRp374
(dp375
g7
F-4.8283137373023015
sg8
I165
sg9
VCHEMBL191901
p376
sbag2
(g3
g4
NtRp377
(dp378
g7
F-3.6888794541139363
sg8
I166
sg9
VCHEMBL214207
p379
sbag2
(g3
g4
NtRp380
(dp381
g7
F-3.6375861597263857
sg8
I167
sg9
VCHEMBL195216
p382
sbag2
(g3
g4
NtRp383
(dp384
g7
F-0
sg8
I169
sg9
VCHEMBL241301
p385
sbag2
(g3
g4
NtRp386
(dp387
g7
F-2.5649493574615367
sg8
I170
sg9
VCHEMBL241304
p388
sbag2
(g3
g4
NtRp389
(dp390
g7
F-3.0910424533583161
sg8
I171
sg9
VCHEMBL241485
p391
sbag2
(g3
g4
NtRp392
(dp393
g7
F-1.3862943611198906
sg8
I172
sg9
VCHEMBL437190
p394
sbag2
(g3
g4
NtRp395
(dp396
g7
F-3.6381123370602833
sg8
I173
sg9
VCHEMBL101083
p397
sbag2
(g3
g4
NtRp398
(dp399
g7
F-1.9459101490553132
sg8
I177
sg9
VCHEMBL50995
p400
sbag2
(g3
g4
NtRp401
(dp402
g7
F-0.26236426446749106
sg8
I178
sg9
VCHEMBL182402
p403
sbag2
(g3
g4
NtRp404
(dp405
g7
F-4.9344739331306915
sg8
I179
sg9
VCHEMBL188391
p406
sbag2
(g3
g4
NtRp407
(dp408
g7
F0.22314355131420971
sg8
I180
sg9
VCHEMBL184598
p409
sbag2
(g3
g4
NtRp410
(dp411
g7
F-0.33647223662121289
sg8
I181
sg9
VCHEMBL360315
p412
sbag2
(g3
g4
NtRp413
(dp414
g7
F-4.0073331852324712
sg8
I182
sg9
VCHEMBL371777
p415
sbag2
(g3
g4
NtRp416
(dp417
g7
F-2.8903717578961645
sg8
I183
sg9
VCHEMBL126164
p418
sbag2
(g3
g4
NtRp419
(dp420
g7
F-2.9856819377004897
sg8
I184
sg9
VCHEMBL101719
p421
sbag2
(g3
g4
NtRp422
(dp423
g7
F-4.7184988712950942
sg8
I186
sg9
VCHEMBL328475
p424
sbag2
(g3
g4
NtRp425
(dp426
g7
F-1.2527629684953681
sg8
I187
sg9
VCHEMBL94225
p427
sbag2
(g3
g4
NtRp428
(dp429
g7
F-6.7844570626376433
sg8
I189
sg9
VCHEMBL195786
p430
sbag2
(g3
g4
NtRp431
(dp432
g7
F-5.393627546352362
sg8
I190
sg9
VCHEMBL441366
p433
sbag2
(g3
g4
NtRp434
(dp435
g7
F-6.7979404129749303
sg8
I191
sg9
VCHEMBL384709
p436
sbag2
(g3
g4
NtRp437
(dp438
g7
F-5.2094861528414214
sg8
I192
sg9
VCHEMBL189080
p439
sbag2
(g3
g4
NtRp440
(dp441
g7
F1.5141277326297755
sg8
I193
sg9
VCHEMBL180707
p442
sbag2
(g3
g4
NtRp443
(dp444
g7
F-5.1873858058407549
sg8
I195
sg9
VCHEMBL285632
p445
sbag2
(g3
g4
NtRp446
(dp447
g7
F-5.8141305318250662
sg8
I196
sg9
VCHEMBL362272
p448
sbag2
(g3
g4
NtRp449
(dp450
g7
F0.35667494393873245
sg8
I197
sg9
VCHEMBL367574
p451
sbag2
(g3
g4
NtRp452
(dp453
g7
F-5.598421958998375
sg8
I199
sg9
VCHEMBL438516
p454
sbag2
(g3
g4
NtRp455
(dp456
g7
F0.52763274208237199
sg8
I200
sg9
VCHEMBL219004
p457
sbag2
(g3
g4
NtRp458
(dp459
g7
F-4.1431347263915326
sg8
I201
sg9
VCHEMBL195212
p460
sbag2
(g3
g4
NtRp461
(dp462
g7
F-3.6888794541139363
sg8
I203
sg9
VCHEMBL425439
p463
sbag2
(g3
g4
NtRp464
(dp465
g7
F-4.8097423517168654
sg8
I204
sg9
VCHEMBL93266
p466
sbag2
(g3
g4
NtRp467
(dp468
g7
F-4.5538768916005408
sg8
I205
sg9
VCHEMBL395308
p469
sbag2
(g3
g4
NtRp470
(dp471
g7
F-3.044522437723423
sg8
I206
sg9
VCHEMBL394788
p472
sbag2
(g3
g4
NtRp473
(dp474
g7
F-3.5835189384561099
sg8
I207
sg9
VCHEMBL245133
p475
sbag2
(g3
g4
NtRp476
(dp477
g7
F-3.3662608117812591
sg8
I208
sg9
VCHEMBL101807
p478
sbag2
(g3
g4
NtRp479
(dp480
g7
F-4.7273878187123408
sg8
I212
sg9
VCHEMBL195208
p481
sbag2
(g3
g4
NtRp482
(dp483
g7
F-1.0986122886681098
sg8
I213
sg9
VCHEMBL183584
p484
sbag2
(g3
g4
NtRp485
(dp486
g7
F-6.1092475827643655
sg8
I216
sg9
VCHEMBL8145
p487
sbag2
(g3
g4
NtRp488
(dp489
g7
F-3.912023005428146
sg8
I217
sg9
VCHEMBL435090
p490
sbag2
(g3
g4
NtRp491
(dp492
g7
F-2.8903717578961645
sg8
I218
sg9
VCHEMBL1201151
p493
sbag2
(g3
g4
NtRp494
(dp495
g7
F-0.076961041136128394
sg8
I219
sg9
VCHEMBL366928
p496
sbag2
(g3
g4
NtRp497
(dp498
g7
F-3.8914120515240218
sg8
I220
sg9
VCHEMBL103305
p499
sbag2
(g3
g4
NtRp500
(dp501
g7
F-6.9077552789821368
sg8
I224
sg9
VCHEMBL311662
p502
sbag2
(g3
g4
NtRp503
(dp504
g7
F-6.2519038831658884
sg8
I225
sg9
VCHEMBL192068
p505
sbag2
(g3
g4
NtRp506
(dp507
g7
F-5.6094717951849598
sg8
I226
sg9
VCHEMBL360651
p508
sbag2
(g3
g4
NtRp509
(dp510
g7
F-3.1780538303479458
sg8
I227
sg9
VCHEMBL195878
p511
sbag2
(g3
g4
NtRp512
(dp513
g7
F-0.75141608868392118
sg8
I228
sg9
VCHEMBL182237
p514
sbag2
(g3
g4
NtRp515
(dp516
g7
F-0.18232155679395459
sg8
I229
sg9
VCHEMBL183086
p517
sbag2
(g3
g4
NtRp518
(dp519
g7
F-3.8066624897703196
sg8
I230
sg9
VCHEMBL426641
p520
sbag2
(g3
g4
NtRp521
(dp522
g7
F-4.2341065045972597
sg8
I231
sg9
VCHEMBL195465
p523
sbag2
(g3
g4
NtRp524
(dp525
g7
F-6.0161571596983539
sg8
I233
sg9
VCHEMBL374799
p526
sbag2
(g3
g4
NtRp527
(dp528
g7
F-5.7203117766074119
sg8
I234
sg9
VCHEMBL225349
p529
sbag2
(g3
g4
NtRp530
(dp531
g7
F-2.8903717578961645
sg8
I235
sg9
VCHEMBL222434
p532
sbag2
(g3
g4
NtRp533
(dp534
g7
F-2.8903717578961645
sg8
I236
sg9
VCHEMBL373743
p535
sbag2
(g3
g4
NtRp536
(dp537
g7
F-3.970291913552122
sg8
I237
sg9
VCHEMBL451496
p538
sbag2
(g3
g4
NtRp539
(dp540
g7
F-5.9295891433898946
sg8
I238
sg9
VCHEMBL186643
p541
sbag2
(g3
g4
NtRp542
(dp543
g7
F-0.40546510810816438
sg8
I239
sg9
VCHEMBL362718
p544
sbag2
(g3
g4
NtRp545
(dp546
g7
F-6.7452363494843626
sg8
I240
sg9
VCHEMBL74758
p547
sbag2
(g3
g4
NtRp548
(dp549
g7
F-0.47000362924573563
sg8
I241
sg9
VCHEMBL418327
p550
sbag2
(g3
g4
NtRp551
(dp552
g7
F-6.1944053911046719
sg8
I243
sg9
VCHEMBL83451
p553
sbag2
(g3
g4
NtRp554
(dp555
g7
F-5.1929568508902104
sg8
I244
sg9
VCHEMBL77609
p556
sbag2
(g3
g4
NtRp557
(dp558
g7
F-5.5606816310155276
sg8
I245
sg9
VCHEMBL187207
p559
sbag2
(g3
g4
NtRp560
(dp561
g7
F-3.8918202981106265
sg8
I246
sg9
VCHEMBL284453
p562
sbag2
(g3
g4
NtRp563
(dp564
g7
F0.35667494393873245
sg8
I247
sg9
VCHEMBL181248
p565
sbag2
(g3
g4
NtRp566
(dp567
g7
F0.10536051565782628
sg8
I248
sg9
VCHEMBL183371
p568
sbag2
(g3
g4
NtRp569
(dp570
g7
F-4.0604430105464191
sg8
I249
sg9
VCHEMBL439806
p571
sbag2
(g3
g4
NtRp572
(dp573
g7
F-3.8066624897703196
sg8
I250
sg9
VCHEMBL180538
p574
sbag2
(g3
g4
NtRp575
(dp576
g7
F-2.6390573296152584
sg8
I251
sg9
VCHEMBL30950
p577
sbag2
(g3
g4
NtRp578
(dp579
g7
F-1.2809338454620642
sg8
I252
sg9
VCHEMBL121879
p580
sbag2
(g3
g4
NtRp581
(dp582
g7
F-5.2203558250783244
sg8
I253
sg9
VCHEMBL427533
p583
sbag2
(g3
g4
NtRp584
(dp585
g7
F-2.3025850929940459
sg8
I255
sg9
VCHEMBL373095
p586
sbag2
(g3
g4
NtRp587
(dp588
g7
F-5.0751738152338266
sg8
I256
sg9
VCHEMBL93207
p589
sbag2
(g3
g4
NtRp590
(dp591
g7
F-0.33647223662121289
sg8
I257
sg9
VCHEMBL178470
p592
sbag2
(g3
g4
NtRp593
(dp594
g7
F-0.69314718055994529
sg8
I258
sg9
VCHEMBL185480
p595
sbag2
(g3
g4
NtRp596
(dp597
g7
F-3.2958368660043291
sg8
I259
sg9
VCHEMBL389683
p598
sbag2
(g3
g4
NtRp599
(dp600
g7
F-6.5012896705403893
sg8
I260
sg9
VCHEMBL449038
p601
sbag2
(g3
g4
NtRp602
(dp603
g7
F-4.7184988712950942
sg8
I261
sg9
VCHEMBL225022
p604
sbag2
(g3
g4
NtRp605
(dp606
g7
F-6.0935697700451357
sg8
I262
sg9
VCHEMBL389393
p607
sbag2
(g3
g4
NtRp608
(dp609
g7
F-4.499809670330265
sg8
I263
sg9
VCHEMBL218220
p610
sbag2
(g3
g4
NtRp611
(dp612
g7
F-0.69314718055994529
sg8
I264
sg9
VCHEMBL360802
p613
sbag2
(g3
g4
NtRp614
(dp615
g7
F-1.4816045409242156
sg8
I265
sg9
VCHEMBL332625
p616
sbag2
(g3
g4
NtRp617
(dp618
g7
F-5.5834963087816991
sg8
I266
sg9
VCHEMBL194936
p619
sbag2
(g3
g4
NtRp620
(dp621
g7
F-5.3471075307174685
sg8
I267
sg9
VCHEMBL192154
p622
sbag2
(g3
g4
NtRp623
(dp624
g7
F-0.26236426446749106
sg8
I268
sg9
VCHEMBL91758
p625
sbag2
(g3
g4
NtRp626
(dp627
g7
F-0.47000362924573563
sg8
I269
sg9
VCHEMBL71584
p628
sbag2
(g3
g4
NtRp629
(dp630
g7
F-0.26236426446749106
sg8
I272
sg9
VCHEMBL433581
p631
sbag2
(g3
g4
NtRp632
(dp633
g7
F-3.5251833614431467
sg8
I273
sg9
VCHEMBL100617
p634
sbag2
(g3
g4
NtRp635
(dp636
g7
F-4.2621163380013236
sg8
I277
sg9
VCHEMBL434346
p637
sbag2
(g3
g4
NtRp638
(dp639
g7
F-4.2626798770413155
sg8
I279
sg9
VCHEMBL33890
p640
sbag2
(g3
g4
NtRp641
(dp642
g7
F-0.91629073187415511
sg8
I280
sg9
VCHEMBL359671
p643
sbag2
(g3
g4
NtRp644
(dp645
g7
F-6.7696419768525029
sg8
I281
sg9
VCHEMBL204664
p646
sbag2
(g3
g4
NtRp647
(dp648
g7
F-6.7214257007906433
sg8
I282
sg9
VCHEMBL425399
p649
sbag2
(g3
g4
NtRp650
(dp651
g7
F-6.9077552789821368
sg8
I283
sg9
VCHEMBL201364
p652
sbag2
(g3
g4
NtRp653
(dp654
g7
F-5.2729995585637468
sg8
I284
sg9
VCHEMBL381298
p655
sbag2
(g3
g4
NtRp656
(dp657
g7
F-6.1484682959176471
sg8
I285
sg9
VCHEMBL204025
p658
sbag2
(g3
g4
NtRp659
(dp660
g7
F-3.7376696182833684
sg8
I286
sg9
VCHEMBL264655
p661
sbag2
(g3
g4
NtRp662
(dp663
g7
F-3.2580965380214821
sg8
I287
sg9
VCHEMBL202500
p664
sbag2
(g3
g4
NtRp665
(dp666
g7
F-2.5649493574615367
sg8
I288
sg9
VCHEMBL202615
p667
sbag2
(g3
g4
NtRp668
(dp669
g7
F-5.768320995793772
sg8
I289
sg9
VCHEMBL201013
p670
sbag2
(g3
g4
NtRp671
(dp672
g7
F-5.9480349891806457
sg8
I290
sg9
VCHEMBL385279
p673
sbag2
(g3
g4
NtRp674
(dp675
g7
F-6.0776422433490342
sg8
I291
sg9
VCHEMBL219387
p676
sbag2
(g3
g4
NtRp677
(dp678
g7
F-1.2237754316221157
sg8
I292
sg9
VCHEMBL90794
p679
sbag2
(g3
g4
NtRp680
(dp681
g7
F-2.8903717578961645
sg8
I293
sg9
VCHEMBL195371
p682
sbag2
(g3
g4
NtRp683
(dp684
g7
F-3.8501476017100584
sg8
I294
sg9
VCHEMBL187915
p685
sbag2
(g3
g4
NtRp686
(dp687
g7
F-4.5108595065168497
sg8
I295
sg9
VCHEMBL364092
p688
sbag2
(g3
g4
NtRp689
(dp690
g7
F-3.0007198150650303
sg8
I296
sg9
VCHEMBL93826
p691
sbag2
(g3
g4
NtRp692
(dp693
g7
F-3.0910424533583161
sg8
I297
sg9
VCHEMBL193726
p694
sbag2
(g3
g4
NtRp695
(dp696
g7
F-1.6486586255873816
sg8
I298
sg9
VCHEMBL420244
p697
sbag2
(g3
g4
NtRp698
(dp699
g7
F-4.5849674786705723
sg8
I299
sg9
VCHEMBL192218
p700
sbag2
(g3
g4
NtRp701
(dp702
g7
F-0.3293037471426003
sg8
I300
sg9
VCHEMBL441499
p703
sbag2
(g3
g4
NtRp704
(dp705
g7
F-4.6634390941120669
sg8
I301
sg9
VCHEMBL426461
p706
sbag2
(g3
g4
NtRp707
(dp708
g7
F-0.91629073187415511
sg8
I303
sg9
VCHEMBL183084
p709
sbag2
(g3
g4
NtRp710
(dp711
g7
F-6.2897155709089976
sg8
I304
sg9
VCHEMBL187000
p712
sbag2
(g3
g4
NtRp713
(dp714
g7
F-5.4680601411351315
sg8
I305
sg9
VCHEMBL206584
p715
sbag2
(g3
g4
NtRp716
(dp717
g7
F-4.3040650932041702
sg8
I306
sg9
VCHEMBL203565
p718
sbag2
(g3
g4
NtRp719
(dp720
g7
F-3.9889840465642745
sg8
I307
sg9
VCHEMBL382598
p721
sbag2
(g3
g4
NtRp722
(dp723
g7
F-4.4067192472642533
sg8
I308
sg9
VCHEMBL385358
p724
sbag2
(g3
g4
NtRp725
(dp726
g7
F-4.3694478524670215
sg8
I309
sg9
VCHEMBL383533
p727
sbag2
(g3
g4
NtRp728
(dp729
g7
F-4.3820266346738812
sg8
I310
sg9
VCHEMBL219577
p730
sbag2
(g3
g4
NtRp731
(dp732
g7
F-0
sg8
I311
sg9
VCHEMBL391910
p733
sbag2
(g3
g4
NtRp734
(dp735
g7
F-2.0794415416798357
sg8
I312
sg9
VCHEMBL241303
p736
sbag2
(g3
g4
NtRp737
(dp738
g7
F-2.9957322735539909
sg8
I313
sg9
VCHEMBL240227
p739
sbag2
(g3
g4
NtRp740
(dp741
g7
F0.41551544396166579
sg8
I314
sg9
VCHEMBL362428
p742
sbag2
(g3
g4
NtRp743
(dp744
g7
F0.69314718055994529
sg8
I315
sg9
VCHEMBL367350
p745
sbag2
(g3
g4
NtRp746
(dp747
g7
F0.35667494393873245
sg8
I317
sg9
VCHEMBL434525
p748
sbag2
(g3
g4
NtRp749
(dp750
g7
F-4.6728288344619058
sg8
I318
sg9
VCHEMBL365999
p751
sbag2
(g3
g4
NtRp752
(dp753
g7
F-4.5429755823949733
sg8
I319
sg9
VCHEMBL323119
p754
sbag2
(g3
g4
NtRp755
(dp756
g7
F-5.3565862746720123
sg8
I323
sg9
VCHEMBL198411
p757
sbag2
(g3
g4
NtRp758
(dp759
g7
F-6.0661080901037474
sg8
I324
sg9
VCHEMBL186945
p760
sbag2
(g3
g4
NtRp761
(dp762
g7
F-6.1202974189509503
sg8
I325
sg9
VCHEMBL197667
p763
sbag2
(g3
g4
NtRp764
(dp765
g7
F-6.3919171133926023
sg8
I326
sg9
VCHEMBL206406
p766
sbag2
(g3
g4
NtRp767
(dp768
g7
F-5.4161004022044201
sg8
I327
sg9
VCHEMBL381697
p769
sbag2
(g3
g4
NtRp770
(dp771
g7
F-5.0689042022202315
sg8
I328
sg9
VCHEMBL204922
p772
sbag2
(g3
g4
NtRp773
(dp774
g7
F-6.4831073514571989
sg8
I329
sg9
VCHEMBL206600
p775
sbag2
(g3
g4
NtRp776
(dp777
g7
F-6.1903154058531475
sg8
I330
sg9
VCHEMBL206227
p778
sbag2
(g3
g4
NtRp779
(dp780
g7
F-4.5325994931532563
sg8
I331
sg9
VCHEMBL211816
p781
sbag2
(g3
g4
NtRp782
(dp783
g7
F-5.8861040314501558
sg8
I332
sg9
VCHEMBL208929
p784
sbag2
(g3
g4
NtRp785
(dp786
g7
F-6.1527326947041043
sg8
I333
sg9
VCHEMBL209623
p787
sbag2
(g3
g4
NtRp788
(dp789
g7
F-4.4067192472642533
sg8
I334
sg9
VCHEMBL211887
p790
sbag2
(g3
g4
NtRp791
(dp792
g7
F0.69314718055994529
sg8
I335
sg9
VCHEMBL181862
p793
sbag2
(g3
g4
NtRp794
(dp795
g7
F0.35667494393873245
sg8
I336
sg9
VCHEMBL184202
p796
sbag2
(g3
g4
NtRp797
(dp798
g7
F-6.1985600140005843
sg8
I338
sg9
VCHEMBL1096975
p799
sbag2
(g3
g4
NtRp800
(dp801
g7
F-6.6656837177824082
sg8
I339
sg9
VCHEMBL205934
p802
sbag2
(g3
g4
NtRp803
(dp804
g7
F-5.8141305318250662
sg8
I340
sg9
VCHEMBL381337
p805
sbag2
(g3
g4
NtRp806
(dp807
g7
F-5.181783550292085
sg8
I341
sg9
VCHEMBL206814
p808
sbag2
(g3
g4
NtRp809
(dp810
g7
F-5.7004435733906869
sg8
I342
sg9
VCHEMBL191238
p811
sbag2
(g3
g4
NtRp812
(dp813
g7
F-1.3862943611198906
sg8
I343
sg9
VCHEMBL1358
p814
sbag2
(g3
g4
NtRp815
(dp816
g7
F-5.768320995793772
sg8
I347
sg9
VCHEMBL77620
p817
sbag2
(g3
g4
NtRp818
(dp819
g7
F-3.044522437723423
sg8
I348
sg9
VCHEMBL331996
p820
sbag2
(g3
g4
NtRp821
(dp822
g7
F-3.2580965380214821
sg8
I349
sg9
VCHEMBL363634
p823
sbag2
(g3
g4
NtRp824
(dp825
g7
F-3.4330189939851112
sg8
I350
sg9
VCHEMBL101997
p826
sbag2
(g3
g4
NtRp827
(dp828
g7
F-5.575949103146316
sg8
I354
sg9
VCHEMBL185890
p829
sbag2
(g3
g4
NtRp830
(dp831
g7
F0.916290731874155
sg8
I355
sg9
VCHEMBL185083
p832
sbag2
(g3
g4
NtRp833
(dp834
g7
F-3.5553480614894135
sg8
I356
sg9
VCHEMBL24950
p835
sbag2
(g3
g4
NtRp836
(dp837
g7
F-6.0258659738253142
sg8
I358
sg9
VCHEMBL373987
p838
sbag2
(g3
g4
NtRp839
(dp840
g7
F-6.4052284580308418
sg8
I359
sg9
VCHEMBL213950
p841
sbag2
(g3
g4
NtRp842
(dp843
g7
F-3.2958368660043291
sg8
I360
sg9
VCHEMBL389907
p844
sbag2
(g3
g4
NtRp845
(dp846
g7
F-6.3315018498936908
sg8
I361
sg9
VCHEMBL316292
p847
sbag2
(g3
g4
NtRp848
(dp849
g7
F-5.8377304471659395
sg8
I362
sg9
VCHEMBL363633
p850
sbag2
(g3
g4
NtRp851
(dp852
g7
F-2.4849066497880004
sg8
I363
sg9
VCHEMBL182850
p853
sbag2
(g3
g4
NtRp854
(dp855
g7
F-0.53062825106217038
sg8
I364
sg9
VCHEMBL361751
p856
sbag2
(g3
g4
NtRp857
(dp858
g7
F-5.0814043649844631
sg8
I365
sg9
VCHEMBL188189
p859
sbag2
(g3
g4
NtRp860
(dp861
g7
F-3.3945083935113587
sg8
I366
sg9
VCHEMBL412907
p862
sbag2
(g3
g4
NtRp863
(dp864
g7
F-4.1743872698956368
sg8
I367
sg9
VCHEMBL316003
p865
sbag2
(g3
g4
NtRp866
(dp867
g7
F-4.219507705176107
sg8
I368
sg9
VCHEMBL33808
p868
sbag2
(g3
g4
NtRp869
(dp870
g7
F-3.1780538303479458
sg8
I369
sg9
VCHEMBL360410
p871
sbag2
(g3
g4
NtRp872
(dp873
g7
F-6.4488893941468577
sg8
I370
sg9
VCHEMBL196530
p874
sbag2
(g3
g4
NtRp875
(dp876
g7
F-5.7589017738772803
sg8
I371
sg9
VCHEMBL203810
p877
sbag2
(g3
g4
NtRp878
(dp879
g7
F-6.0161571596983539
sg8
I372
sg9
VCHEMBL203061
p880
sbag2
(g3
g4
NtRp881
(dp882
g7
F-5.1929568508902104
sg8
I373
sg9
VCHEMBL440283
p883
sbag2
(g3
g4
NtRp884
(dp885
g7
F0.69314718055994529
sg8
I374
sg9
VCHEMBL359633
p886
sbag2
(g3
g4
NtRp887
(dp888
g7
F-6.2952660014396464
sg8
I375
sg9
VCHEMBL83060
p889
sbag2
(g3
g4
NtRp890
(dp891
g7
F-4.5432947822700038
sg8
I376
sg9
VCHEMBL1627356
p892
sbag2
(g3
g4
NtRp893
(dp894
g7
F-4.4426512564903167
sg8
I377
sg9
VCHEMBL1087288
p895
sbag2
(g3
g4
NtRp896
(dp897
g7
F-0.78845736036427028
sg8
I378
sg9
VCHEMBL1087545
p898
sbag2
(g3
g4
NtRp899
(dp900
g7
F-1.7578579175523736
sg8
I381
sg9
VCHEMBL1087298
p901
sbag2
(g3
g4
NtRp902
(dp903
g7
F-1.8405496333974869
sg8
I383
sg9
VCHEMBL1086652
p904
sbag2
(g3
g4
NtRp905
(dp906
g7
F-6.2106000770246528
sg8
I386
sg9
VCHEMBL184003
p907
sbag2
(g3
g4
NtRp908
(dp909
g7
F-6.6883547139467616
sg8
I387
sg9
VCHEMBL182751
p910
sbag2
(g3
g4
NtRp911
(dp912
g7
F-6.0234475929610332
sg8
I388
sg9
VCHEMBL33230
p913
sbag2
(g3
g4
NtRp914
(dp915
g7
F-3.7612001156935624
sg8
I389
sg9
VCHEMBL491705
p916
sbag2
(g3
g4
NtRp917
(dp918
g7
F-1.7578579175523736
sg8
I390
sg9
VCHEMBL1088343
p919
sbag2
(g3
g4
NtRp920
(dp921
g7
F-6.9077552789821368
sg8
I392
sg9
VCHEMBL1086388
p922
sbag2
(g3
g4
NtRp923
(dp924
g7
F-5.1929568508902104
sg8
I393
sg9
VCHEMBL1082529
p925
sbag2
(g3
g4
NtRp926
(dp927
g7
F-3.7612001156935624
sg8
I394
sg9
VCHEMBL192876
p928
sbag2
(g3
g4
NtRp929
(dp930
g7
F-5.0875963352323836
sg8
I395
sg9
VCHEMBL192055
p931
sbag2
(g3
g4
NtRp932
(dp933
g7
F-2.5649493574615367
sg8
I397
sg9
VCHEMBL1084127
p934
sbag2
(g3
g4
NtRp935
(dp936
g7
F0.80296204656715187
sg8
I399
sg9
VCHEMBL691
p937
sbag2
(g3
g4
NtRp938
(dp939
g7
F-5.0434251169192468
sg8
I402
sg9
VCHEMBL340111
p940
sbag2
(g3
g4
NtRp941
(dp942
g7
F-1.3862943611198906
sg8
I403
sg9
VCHEMBL92635
p943
sbag2
(g3
g4
NtRp944
(dp945
g7
F-0.91629073187415511
sg8
I405
sg9
VCHEMBL181944
p946
sbag2
(g3
g4
NtRp947
(dp948
g7
F-1.0986122886681098
sg8
I406
sg9
VCHEMBL85650
p949
sbag2
(g3
g4
NtRp950
(dp951
g7
F0.10536051565782628
sg8
I407
sg9
VCHEMBL183388
p952
sbag2
(g3
g4
NtRp953
(dp954
g7
F-4.8598124043616719
sg8
I408
sg9
VCHEMBL211614
p955
sbag2
(g3
g4
NtRp956
(dp957
g7
F-4.9487598903781684
sg8
I409
sg9
VCHEMBL214693
p958
sbag2
(g3
g4
NtRp959
(dp960
g7
F-4.9052747784384296
sg8
I410
sg9
VCHEMBL44
p961
sbag2
(g3
g4
NtRp962
(dp963
g7
F-3.9396381724611196
sg8
I422
sg9
VCHEMBL196283
p964
sbag2
(g3
g4
NtRp965
(dp966
g7
F-6.3062752869480159
sg8
I423
sg9
VCHEMBL195154
p967
sbag2
(g3
g4
NtRp968
(dp969
g7
F-3.8286413964890951
sg8
I424
sg9
VCHEMBL363498
p970
sbag2
(g3
g4
NtRp971
(dp972
g7
F-5.0937502008067623
sg8
I425
sg9
VCHEMBL183368
p973
sbag2
(g3
g4
NtRp974
(dp975
g7
F-4.0604430105464191
sg8
I426
sg9
VCHEMBL215409
p976
sbag2
(g3
g4
NtRp977
(dp978
g7
F-3.8958936234982624
sg8
I427
sg9
VCHEMBL384268
p979
sbag2
(g3
g4
NtRp980
(dp981
g7
F-5.1059454739005803
sg8
I428
sg9
VCHEMBL313849
p982
sbag2
(g3
g4
NtRp983
(dp984
g7
F-6.3919171133926023
sg8
I429
sg9
VCHEMBL203348
p985
sbag2
(g3
g4
NtRp986
(dp987
g7
F-2.8903717578961645
sg8
I430
sg9
VCHEMBL371072
p988
sbag2
(g3
g4
NtRp989
(dp990
g7
F1.3093333199837622
sg8
I431
sg9
VCHEMBL180873
p991
sbag2
(g3
g4
NtRp992
(dp993
g7
F-4.8040210447332568
sg8
I433
sg9
VCHEMBL191711
p994
sbag2
(g3
g4
NtRp995
(dp996
g7
F-4.5643481914678361
sg8
I434
sg9
VCHEMBL225081
p997
sbag2
(g3
g4
NtRp998
(dp999
g7
F-5.0434251169192468
sg8
I435
sg9
VCHEMBL231812
p1000
sbag2
(g3
g4
NtRp1001
(dp1002
g7
F-0
sg8
I436
sg9
VCHEMBL182887
p1003
sbag2
(g3
g4
NtRp1004
(dp1005
g7
F-1.4586150226995167
sg8
I437
sg9
VCHEMBL281499
p1006
sbag2
(g3
g4
NtRp1007
(dp1008
g7
F-1.2809338454620642
sg8
I439
sg9
VCHEMBL386948
p1009
sbag2
(g3
g4
NtRp1010
(dp1011
g7
F-4.8751973232011512
sg8
I440
sg9
VCHEMBL362966
p1012
sbag2
(g3
g4
NtRp1013
(dp1014
g7
F-4.7957905455967413
sg8
I441
sg9
VCHEMBL380359
p1015
sbag2
(g3
g4
NtRp1016
(dp1017
g7
F-4.9836066217083363
sg8
I442
sg9
VCHEMBL213337
p1018
sbag2
(g3
g4
NtRp1019
(dp1020
g7
F-6.6758232216348476
sg8
I443
sg9
VCHEMBL385693
p1021
sbag2
(g3
g4
NtRp1022
(dp1023
g7
F-1.1314021114911006
sg8
I444
sg9
VCHEMBL192765
p1024
sbag2
(g3
g4
NtRp1025
(dp1026
g7
F-4.5217885770490405
sg8
I445
sg9
VCHEMBL193727
p1027
sbag2
(g3
g4
NtRp1028
(dp1029
g7
F-5.0304379213924353
sg8
I446
sg9
VCHEMBL183367
p1030
sbag2
(g3
g4
NtRp1031
(dp1032
g7
F-4.3820266346738812
sg8
I447
sg9
VCHEMBL1395826
p1033
sbag2
(g3
g4
NtRp1034
(dp1035
g7
F-4.499809670330265
sg8
I448
sg9
VCHEMBL1434189
p1036
sbag2
(g3
g4
NtRp1037
(dp1038
g7
F-6.0063531596017325
sg8
I449
sg9
VCHEMBL371126
p1039
sbag2
(g3
g4
NtRp1040
(dp1041
g7
F-3.0910424533583161
sg8
I450
sg9
VCHEMBL216024
p1042
sbag2
(g3
g4
NtRp1043
(dp1044
g7
F-1.7173950539391927
sg8
I451
sg9
VCHEMBL472468
p1045
sbag2
(g3
g4
NtRp1046
(dp1047
g7
F-4.1108738641733114
sg8
I452
sg9
VCHEMBL420623
p1048
sbag2
(g3
g4
NtRp1049
(dp1050
g7
F-5.575949103146316
sg8
I454
sg9
VCHEMBL209803
p1051
sbag2
(g3
g4
NtRp1052
(dp1053
g7
F-3.4011973816621555
sg8
I455
sg9
VCHEMBL209402
p1054
sbag2
(g3
g4
NtRp1055
(dp1056
g7
F-5.2983173665480363
sg8
I456
sg9
VCHEMBL204970
p1057
sbag2
(g3
g4
NtRp1058
(dp1059
g7
F-0
sg8
I457
sg9
VCHEMBL203472
p1060
sbag2
(g3
g4
NtRp1061
(dp1062
g7
F-5.0434251169192468
sg8
I458
sg9
VCHEMBL425092
p1063
sbag2
(g3
g4
NtRp1064
(dp1065
g7
F-3.713572066704308
sg8
I459
sg9
VCHEMBL380469
p1066
sbag2
(g3
g4
NtRp1067
(dp1068
g7
F-4.8520302639196169
sg8
I460
sg9
VCHEMBL208978
p1069
sbag2
(g3
g4
NtRp1070
(dp1071
g7
F-5.1704839950381514
sg8
I461
sg9
VCHEMBL377644
p1072
sbag2
(g3
g4
NtRp1073
(dp1074
g7
F-5.6970934865054046
sg8
I462
sg9
VCHEMBL232023
p1075
sbag2
(g3
g4
NtRp1076
(dp1077
g7
F-1.0986122886681098
sg8
I463
sg9
VCHEMBL191836
p1078
sbag2
(g3
g4
NtRp1079
(dp1080
g7
F-4.5849674786705723
sg8
I464
sg9
VCHEMBL189356
p1081
sbag2
(g3
g4
NtRp1082
(dp1083
g7
F-4.5432947822700038
sg8
I465
sg9
VCHEMBL93546
p1084
sbag2
(g3
g4
NtRp1085
(dp1086
g7
F-4.3820266346738812
sg8
I467
sg9
VCHEMBL520107
p1087
sbag2
(g3
g4
NtRp1088
(dp1089
g7
F-5.5412635451584258
sg8
I468
sg9
VCHEMBL1441930
p1090
sbag2
(g3
g4
NtRp1091
(dp1092
g7
F-1.3609765531356006
sg8
I469
sg9
VCHEMBL85881
p1093
sbag2
(g3
g4
NtRp1094
(dp1095
g7
F-3.4011973816621555
sg8
I470
sg9
VCHEMBL347560
p1096
sbag2
(g3
g4
NtRp1097
(dp1098
g7
F-5.9026333334013659
sg8
I471
sg9
VCHEMBL25580
p1099
sbag2
(g3
g4
NtRp1100
(dp1101
g7
F-3.6635616461296463
sg8
I472
sg9
VCHEMBL221515
p1102
sbag2
(g3
g4
NtRp1103
(dp1104
g7
F-2.7080502011022101
sg8
I473
sg9
VCHEMBL389394
p1105
sbag2
(g3
g4
NtRp1106
(dp1107
g7
F-3.4339872044851463
sg8
I474
sg9
VCHEMBL374277
p1108
sbag2
(g3
g4
NtRp1109
(dp1110
g7
F-3.572345637857985
sg8
I475
sg9
VCHEMBL226379
p1111
sbag2
(g3
g4
NtRp1112
(dp1113
g7
F-4.7874917427820458
sg8
I476
sg9
VCHEMBL1318094
p1114
sbag2
(g3
g4
NtRp1115
(dp1116
g7
F-0.26236426446749106
sg8
I477
sg9
VCHEMBL368449
p1117
sbag2
(g3
g4
NtRp1118
(dp1119
g7
F-2.2192034840549946
sg8
I478
sg9
VCHEMBL92900
p1120
sbag2
(g3
g4
NtRp1121
(dp1122
g7
F-4.290459441148391
sg8
I479
sg9
VCHEMBL191759
p1123
sbag2
(g3
g4
NtRp1124
(dp1125
g7
F-5.4424177105217932
sg8
I480
sg9
VCHEMBL365941
p1126
sbag2
(g3
g4
NtRp1127
(dp1128
g7
F-4.962844630259907
sg8
I481
sg9
VCHEMBL191808
p1129
sbag2
(g3
g4
NtRp1130
(dp1131
g7
F-1.275362800412609
sg8
I482
sg9
VCHEMBL360978
p1132
sbag2
(g3
g4
NtRp1133
(dp1134
g7
F-5.0937502008067623
sg8
I483
sg9
VCHEMBL372011
p1135
sbag2
(g3
g4
NtRp1136
(dp1137
g7
F-4.5517694092609764
sg8
I485
sg9
VCHEMBL200232
p1138
sbag2
(g3
g4
NtRp1139
(dp1140
g7
F-6.0014148779611505
sg8
I486
sg9
VCHEMBL379234
p1141
sbag2
(g3
g4
NtRp1142
(dp1143
g7
F-5.6058020662959978
sg8
I487
sg9
VCHEMBL203402
p1144
sbag2
(g3
g4
NtRp1145
(dp1146
g7
F-6.4393503711000983
sg8
I488
sg9
VCHEMBL202673
p1147
sbag2
(g3
g4
NtRp1148
(dp1149
g7
F-4.8598124043616719
sg8
I489
sg9
VCHEMBL203072
p1150
sbag2
(g3
g4
NtRp1151
(dp1152
g7
F-5.5333894887275203
sg8
I490
sg9
VCHEMBL204434
p1153
sbag2
(g3
g4
NtRp1154
(dp1155
g7
F-3.1780538303479458
sg8
I491
sg9
VCHEMBL383691
p1156
sbag2
(g3
g4
NtRp1157
(dp1158
g7
F-1.6094379124341003
sg8
I492
sg9
VCHEMBL202472
p1159
sbag2
(g3
g4
NtRp1160
(dp1161
g7
F-6.7934661325800096
sg8
I493
sg9
VCHEMBL378581
p1162
sbag2
(g3
g4
NtRp1163
(dp1164
g7
F-2.3978952727983707
sg8
I494
sg9
VCHEMBL241300
p1165
sbag2
(g3
g4
NtRp1166
(dp1167
g7
F-5.934894195619588
sg8
I495
sg9
VCHEMBL393179
p1168
sbag2
(g3
g4
NtRp1169
(dp1170
g7
F-3.6888794541139363
sg8
I496
sg9
VCHEMBL442249
p1171
sbag2
(g3
g4
NtRp1172
(dp1173
g7
F-4.2341065045972597
sg8
I497
sg9
VCHEMBL238959
p1174
sbag2
(g3
g4
NtRp1175
(dp1176
g7
F-2.4069451083182885
sg8
I498
sg9
VCHEMBL1087919
p1177
sbag2
(g3
g4
NtRp1178
(dp1179
g7
F-4.7004803657924166
sg8
I500
sg9
VCHEMBL153405
p1180
sbag2
(g3
g4
NtRp1181
(dp1182
g7
F-0
sg8
I501
sg9
VCHEMBL327320
p1183
sbag2
(g3
g4
NtRp1184
(dp1185
g7
F-2.6390573296152584
sg8
I504
sg9
VCHEMBL178559
p1186
sbag2
(g3
g4
NtRp1187
(dp1188
g7
F-3.7909846770510898
sg8
I505
sg9
VCHEMBL94080
p1189
sbag2
(g3
g4
NtRp1190
(dp1191
g7
F-0.54232429082536171
sg8
I506
sg9
VCHEMBL180973
p1192
sbag2
(g3
g4
NtRp1193
(dp1194
g7
F-5.5031747401749289
sg8
I507
sg9
VCHEMBL1098709
p1195
sbag2
(g3
g4
NtRp1196
(dp1197
g7
F-3.8613610906259179
sg8
I508
sg9
VCHEMBL1098710
p1198
sbag2
(g3
g4
NtRp1199
(dp1200
g7
F-3.4339872044851463
sg8
I509
sg9
VCHEMBL144431
p1201
sbag2
(g3
g4
NtRp1202
(dp1203
g7
F-5.0106352940962555
sg8
I510
sg9
VCHEMBL415864
p1204
sbag2
(g3
g4
NtRp1205
(dp1206
g7
F-4.9272536851572051
sg8
I511
sg9
VCHEMBL189658
p1207
sbag2
(g3
g4
NtRp1208
(dp1209
g7
F-5.4595855141441589
sg8
I512
sg9
VCHEMBL193064
p1210
sbag2
(g3
g4
NtRp1211
(dp1212
g7
F-6.0185932144962342
sg8
I513
sg9
VCHEMBL186513
p1213
sbag2
(g3
g4
NtRp1214
(dp1215
g7
F-1.9021075263969205
sg8
I514
sg9
VCHEMBL30439
p1216
sbag2
(g3
g4
NtRp1217
(dp1218
g7
F-3.3322045101752038
sg8
I516
sg9
VCHEMBL312186
p1219
sbag2
(g3
g4
NtRp1220
(dp1221
g7
F0.77652878949899629
sg8
I517
sg9
VCHEMBL81
p1222
sbag2
(g3
g4
NtRp1223
(dp1224
g7
F-3.6375861597263857
sg8
I542
sg9
VCHEMBL180253
p1225
sbag2
(g3
g4
NtRp1226
(dp1227
g7
F-1.3862943611198906
sg8
I543
sg9
VCHEMBL93705
p1228
sbag2
(g3
g4
NtRp1229
(dp1230
g7
F-6.1737861039019366
sg8
I546
sg9
VCHEMBL190104
p1231
sbag2
(g3
g4
NtRp1232
(dp1233
g7
F0.15082288973458366
sg8
I547
sg9
VCHEMBL360498
p1234
sbag2
(g3
g4
NtRp1235
(dp1236
g7
F-1.6094379124341003
sg8
I548
sg9
VCHEMBL1082528
p1237
sbag2
(g3
g4
NtRp1238
(dp1239
g7
F-4.7874917427820458
sg8
I550
sg9
VCHEMBL1083187
p1240
sbag2
(g3
g4
NtRp1241
(dp1242
g7
F-4.6913478822291435
sg8
I551
sg9
VCHEMBL31128
p1243
sbag2
(g3
g4
NtRp1244
(dp1245
g7
F-5.1704839950381514
sg8
I552
sg9
VCHEMBL367588
p1246
sbag2
(g3
g4
NtRp1247
(dp1248
g7
F-4.1743872698956368
sg8
I554
sg9
VCHEMBL186597
p1249
sbag2
(g3
g4
NtRp1250
(dp1251
g7
F-2.9444389791664403
sg8
I555
sg9
VCHEMBL145576
p1252
sbag2
(g3
g4
NtRp1253
(dp1254
g7
F-4.7361984483944957
sg8
I556
sg9
VCHEMBL361258
p1255
sbag2
(g3
g4
NtRp1256
(dp1257
g7
F-3.4011973816621555
sg8
I557
sg9
VCHEMBL363367
p1258
sbag2
(g3
g4
NtRp1259
(dp1260
g7
F-6.9077552789821368
sg8
I558
sg9
VCHEMBL81591
p1261
sbag2
(g3
g4
NtRp1262
(dp1263
g7
F0.10536051565782628
sg8
I559
sg9
VCHEMBL181369
p1264
sbag2
(g3
g4
NtRp1265
(dp1266
g7
F-0
sg8
I560
sg9
VCHEMBL92660
p1267
sbag2
(g3
g4
NtRp1268
(dp1269
g7
F-0.26236426446749106
sg8
I562
sg9
VCHEMBL135
p1270
sbag2
(g3
g4
NtRp1271
(dp1272
g7
F-6.3099182782265162
sg8
I608
sg9
VCHEMBL57150
p1273
sbag2
(g3
g4
NtRp1274
(dp1275
g7
F-1.2237754316221157
sg8
I609
sg9
VCHEMBL94116
p1276
sbag2
(g3
g4
NtRp1277
(dp1278
g7
F-3.044522437723423
sg8
I611
sg9
VCHEMBL433944
p1279
sbag2
(g3
g4
NtRp1280
(dp1281
g7
F-4.6539603501575231
sg8
I612
sg9
VCHEMBL371624
p1282
sbag2
(g3
g4
NtRp1283
(dp1284
g7
F-3.4339872044851463
sg8
I613
sg9
VCHEMBL371788
p1285
sbag2
(g3
g4
NtRp1286
(dp1287
g7
F-3.0910424533583161
sg8
I614
sg9
VCHEMBL189200
p1288
sbag2
(g3
g4
NtRp1289
(dp1290
g7
F-2.6390573296152584
sg8
I615
sg9
VCHEMBL44426
p1291
sbag2
(g3
g4
NtRp1292
(dp1293
g7
F-4.4067192472642533
sg8
I617
sg9
VCHEMBL187087
p1294
sbag2
(g3
g4
NtRp1295
(dp1296
g7
F-2.1400661634962708
sg8
I618
sg9
VCHEMBL200021
p1297
sbag2
(g3
g4
NtRp1298
(dp1299
g7
F-2.0149030205422647
sg8
I619
sg9
VCHEMBL316132
p1300
sbag2
(g3
g4
NtRp1301
(dp1302
g7
F-6.1612073216950769
sg8
I620
sg9
VCHEMBL363963
p1303
sbag2
(g3
g4
NtRp1304
(dp1305
g7
F-3.3568971227655755
sg8
I621
sg9
VCHEMBL89994
p1306
sbag2
(g3
g4
NtRp1307
(dp1308
g7
F-4.7791234931115296
sg8
I622
sg9
VCHEMBL195118
p1309
sbag2
(g3
g4
NtRp1310
(dp1311
g7
F-5.7651911027848444
sg8
I624
sg9
VCHEMBL441537
p1312
sbag2
(g3
g4
NtRp1313
(dp1314
g7
F-4.3694478524670215
sg8
I625
sg9
VCHEMBL377694
p1315
sbag2
(g3
g4
NtRp1316
(dp1317
g7
F-3.0910424533583161
sg8
I626
sg9
VCHEMBL192386
p1318
sbag2
(g3
g4
NtRp1319
(dp1320
g7
F-0.76546784213957142
sg8
I627
sg9
VCHEMBL362020
p1321
sbag2
(g3
g4
NtRp1322
(dp1323
g7
F-6.4377516497364011
sg8
I628
sg9
VCHEMBL183152
p1324
sbag2
(g3
g4
NtRp1325
(dp1326
g7
F-5.0039463059454592
sg8
I629
sg9
VCHEMBL33053
p1327
sbag2
(g3
g4
NtRp1328
(dp1329
g7
F-3.1527360223636558
sg8
I630
sg9
VCHEMBL387335
p1330
sbag2
(g3
g4
NtRp1331
(dp1332
g7
F-5.2983173665480363
sg8
I631
sg9
VCHEMBL192587
p1333
sbag2
(g3
g4
NtRp1334
(dp1335
g7
F-1.791759469228055
sg8
I632
sg9
VCHEMBL370849
p1336
sbag2
(g3
g4
NtRp1337
(dp1338
g7
F1.5141277326297755
sg8
I633
sg9
VCHEMBL178679
p1339
sbag2
(g3
g4
NtRp1340
(dp1341
g7
F-4.6913478822291435
sg8
I634
sg9
VCHEMBL185126
p1342
sbag2
(g3
g4
NtRp1343
(dp1344
g7
F-4.7621739347977563
sg8
I635
sg9
VCHEMBL185918
p1345
sbag2
(g3
g4
NtRp1346
(dp1347
g7
F-1.205970806988609
sg8
I636
sg9
VCHEMBL264216
p1348
sbag2
(g3
g4
NtRp1349
(dp1350
g7
F-6.4520489544372257
sg8
I637
sg9
VCHEMBL198679
p1351
sbag2
(g3
g4
NtRp1352
(dp1353
g7
F-0
sg8
I638
sg9
VCHEMBL121978
p1354
sbag2
(g3
g4
NtRp1355
(dp1356
g7
F-0.33647223662121289
sg8
I639
sg9
VCHEMBL334096
p1357
sbag2
(g3
g4
NtRp1358
(dp1359
g7
F-3.6375861597263857
sg8
I640
sg9
VCHEMBL192539
p1360
sbag2
(g3
g4
NtRp1361
(dp1362
g7
F-1.8082887711792655
sg8
I641
sg9
VCHEMBL94030
p1363
sbag2
(g3
g4
NtRp1364
(dp1365
g7
F-2.5649493574615367
sg8
I643
sg9
VCHEMBL186598
p1366
sbag2
(g3
g4
NtRp1367
(dp1368
g7
F-2.6026896854443837
sg8
I644
sg9
VCHEMBL316119
p1369
sbag2
(g3
g4
NtRp1370
(dp1371
g7
F0.22314355131420971
sg8
I645
sg9
VCHEMBL180146
p1372
sbag2
(g3
g4
NtRp1373
(dp1374
g7
F-5.9635793436184459
sg8
I646
sg9
VCHEMBL377224
p1375
sbag2
(g3
g4
NtRp1376
(dp1377
g7
F-5.8406416573733981
sg8
I647
sg9
VCHEMBL377848
p1378
sbag2
(g3
g4
NtRp1379
(dp1380
g7
F-3.9318256327243257
sg8
I648
sg9
VCHEMBL204185
p1381
sbag2
(g3
g4
NtRp1382
(dp1383
g7
F-5.0751738152338266
sg8
I649
sg9
VCHEMBL264349
p1384
sbag2
(g3
g4
NtRp1385
(dp1386
g7
F-5.2781146592305168
sg8
I650
sg9
VCHEMBL378675
p1387
sbag2
(g3
g4
NtRp1388
(dp1389
g7
F-1.3862943611198906
sg8
I651
sg9
VCHEMBL1402
p1390
sbag2
(g3
g4
NtRp1391
(dp1392
g7
F-2.3025850929940459
sg8
I652
sg9
VCHEMBL369935
p1393
sbag2
(g3
g4
NtRp1394
(dp1395
g7
F-4.9416424226093039
sg8
I653
sg9
VCHEMBL216279
p1396
sbag2
(g3
g4
NtRp1397
(dp1398
g7
F-6.2205901700997392
sg8
I654
sg9
VCHEMBL219126
p1399
sbag2
(g3
g4
NtRp1400
(dp1401
g7
F-4.990432586778736
sg8
I655
sg9
VCHEMBL381566
p1402
sbag2
(g3
g4
NtRp1403
(dp1404
g7
F-4.255612709818223
sg8
I656
sg9
VCHEMBL209429
p1405
sbag2
(g3
g4
NtRp1406
(dp1407
g7
F-4.7361984483944957
sg8
I657
sg9
VCHEMBL379109
p1408
sbag2
(g3
g4
NtRp1409
(dp1410
g7
F-4.8202815656050371
sg8
I658
sg9
VCHEMBL379821
p1411
sbag2
(g3
g4
NtRp1412
(dp1413
g7
F-0.35767444427181588
sg8
I659
sg9
VCHEMBL179518
p1414
sbag2
(g3
g4
NtRp1415
(dp1416
g7
F-6.7080840838530698
sg8
I660
sg9
VCHEMBL187069
p1417
sbag2
(g3
g4
NtRp1418
(dp1419
g7
F-3.044522437723423
sg8
I661
sg9
VCHEMBL363425
p1420
sbag2
(g3
g4
NtRp1421
(dp1422
g7
F-5.9914645471079817
sg8
I662
sg9
VCHEMBL597498
p1423
sbag2
(g3
g4
NtRp1424
(dp1425
g7
F-1.2237754316221157
sg8
I663
sg9
VCHEMBL1088631
p1426
sbag2
(g3
g4
NtRp1427
(dp1428
g7
F-5.43372200355424
sg8
I670
sg9
VCHEMBL211800
p1429
sbag2
(g3
g4
NtRp1430
(dp1431
g7
F-6.4361503683694279
sg8
I671
sg9
VCHEMBL379567
p1432
sbag2
(g3
g4
NtRp1433
(dp1434
g7
F-5.8636311755980968
sg8
I672
sg9
VCHEMBL379595
p1435
sbag2
(g3
g4
NtRp1436
(dp1437
g7
F-5.2832037287379885
sg8
I673
sg9
VCHEMBL211870
p1438
sbag2
(g3
g4
NtRp1439
(dp1440
g7
F-1.9459101490553132
sg8
I674
sg9
VCHEMBL1084120
p1441
sbag2
(g3
g4
NtRp1442
(dp1443
g7
F-6.1758672701057611
sg8
I676
sg9
VCHEMBL187937
p1444
sbag2
(g3
g4
NtRp1445
(dp1446
g7
F-6.5736801669606457
sg8
I677
sg9
VCHEMBL380717
p1447
sbag2
(g3
g4
NtRp1448
(dp1449
g7
F-5.9215784196438159
sg8
I678
sg9
VCHEMBL362355
p1450
sbag2
(g3
g4
NtRp1451
(dp1452
g7
F-5.2781146592305168
sg8
I679
sg9
VCHEMBL221676
p1453
sbag2
(g3
g4
NtRp1454
(dp1455
g7
F-5.7365722974791922
sg8
I680
sg9
VCHEMBL1254532
p1456
sbag2
(g3
g4
NtRp1457
(dp1458
g7
F-6.1025585946135692
sg8
I681
sg9
VCHEMBL363955
p1459
sbag2
(g3
g4
NtRp1460
(dp1461
g7
F-4.5747109785033828
sg8
I682
sg9
VCHEMBL379008
p1462
sbag2
(g3
g4
NtRp1463
(dp1464
g7
F-4.0073331852324712
sg8
I683
sg9
VCHEMBL1087547
p1465
sbag2
(g3
g4
NtRp1466
(dp1467
g7
F-3.1354942159291497
sg8
I685
sg9
VCHEMBL1086644
p1468
sbag2
(g3
g4
NtRp1469
(dp1470
g7
F-0.18232155679395459
sg8
I688
sg9
VCHEMBL1086775
p1471
sbag2
(g3
g4
NtRp1472
(dp1473
g7
F-5.5093883366279774
sg8
I691
sg9
VCHEMBL192016
p1474
sbag2
(g3
g4
NtRp1475
(dp1476
g7
F-2.4849066497880004
sg8
I692
sg9
VCHEMBL191841
p1477
sbag2
(g3
g4
NtRp1478
(dp1479
g7
F-3.1354942159291497
sg8
I693
sg9
VCHEMBL238960
p1480
sbag2
(g3
g4
NtRp1481
(dp1482
g7
F-2.0541237336955462
sg8
I694
sg9
VCHEMBL238961
p1483
sbag2
(g3
g4
NtRp1484
(dp1485
g7
F-0.95551144502743635
sg8
I695
sg9
VCHEMBL85090
p1486
sbag2
(g3
g4
NtRp1487
(dp1488
g7
F0.51082562376599072
sg8
I696
sg9
VCHEMBL184360
p1489
sbag2
(g3
g4
NtRp1490
(dp1491
g7
F0.84397007029452897
sg8
I697
sg9
VCHEMBL180176
p1492
sbag2
(g3
g4
NtRp1493
(dp1494
g7
F0.69314718055994529
sg8
I698
sg9
VCHEMBL437695
p1495
sbag2
(g3
g4
NtRp1496
(dp1497
g7
F-3.3672958299864741
sg8
I699
sg9
VCHEMBL209530
p1498
sbag2
(g3
g4
NtRp1499
(dp1500
g7
F-6.9077552789821368
sg8
I700
sg9
VCHEMBL1276308
p1501
sbag2
(g3
g4
NtRp1502
(dp1503
g7
F-5.598421958998375
sg8
I701
sg9
VCHEMBL388418
p1504
sbag2
(g3
g4
NtRp1505
(dp1506
g7
F-4.2484952420493594
sg8
I702
sg9
VCHEMBL1433745
p1507
sbag2
(g3
g4
NtRp1508
(dp1509
g7
F-5.1929568508902104
sg8
I703
sg9
VCHEMBL1475062
p1510
sbag2
(g3
g4
NtRp1511
(dp1512
g7
F-4.7874917427820458
sg8
I704
sg9
VCHEMBL1597831
p1513
sbag2
(g3
g4
NtRp1514
(dp1515
g7
F-2.6390573296152584
sg8
I705
sg9
VCHEMBL471627
p1516
sbag2
(g3
g4
NtRp1517
(dp1518
g7
F-6.0637852086876078
sg8
I706
sg9
VCHEMBL1599080
p1519
sbag2
(g3
g4
NtRp1520
(dp1521
g7
F-6.4329400927391793
sg8
I707
sg9
VCHEMBL375334
p1522
sbag2
(g3
g4
NtRp1523
(dp1524
g7
F-4.0775374439057197
sg8
I708
sg9
VCHEMBL222522
p1525
sbag2
(g3
g4
NtRp1526
(dp1527
g7
F-2.9957322735539909
sg8
I709
sg9
VCHEMBL222580
p1528
sbag2
(g3
g4
NtRp1529
(dp1530
g7
F-6.363028103540465
sg8
I710
sg9
VCHEMBL1083188
p1531
sbag2
(g3
g4
NtRp1532
(dp1533
g7
F-4.5217885770490405
sg8
I711
sg9
VCHEMBL191716
p1534
sbag2
(g3
g4
NtRp1535
(dp1536
g7
F-4.219507705176107
sg8
I712
sg9
VCHEMBL311640
p1537
sbag2
(g3
g4
NtRp1538
(dp1539
g7
F-6.4583382833447898
sg8
I713
sg9
VCHEMBL194772
p1540
sbag2
(g3
g4
NtRp1541
(dp1542
g7
F-2.2300144001592104
sg8
I714
sg9
VCHEMBL329849
p1543
sbag2
(g3
g4
NtRp1544
(dp1545
g7
F-2.6713862167306188
sg8
I716
sg9
VCHEMBL362425
p1546
sbag2
(g3
g4
NtRp1547
(dp1548
g7
F-4.7706846244656651
sg8
I717
sg9
VCHEMBL363177
p1549
sbag2
(g3
g4
NtRp1550
(dp1551
g7
F-6.2859980945088649
sg8
I718
sg9
VCHEMBL364329
p1552
sbag2
(g3
g4
NtRp1553
(dp1554
g7
F-4.4659081186545837
sg8
I719
sg9
VCHEMBL192187
p1555
sbag2
(g3
g4
NtRp1556
(dp1557
g7
F0.35667494393873245
sg8
I721
sg9
VCHEMBL183489
p1558
sbag2
(g3
g4
NtRp1559
(dp1560
g7
F-4.7874917427820458
sg8
I722
sg9
VCHEMBL193518
p1561
sbag2
(g3
g4
NtRp1562
(dp1563
g7
F-3.3318473035273621
sg8
I724
sg9
VCHEMBL174502
p1564
sbag2
(g3
g4
NtRp1565
(dp1566
g7
F-6.1800166536525722
sg8
I728
sg9
VCHEMBL361226
p1567
sbag2
(g3
g4
NtRp1568
(dp1569
g7
F-6.045005314036012
sg8
I729
sg9
VCHEMBL379543
p1570
sbag2
(g3
g4
NtRp1571
(dp1572
g7
F-2.3025850929940459
sg8
I730
sg9
VCHEMBL68940
p1573
sbag2
(g3
g4
NtRp1574
(dp1575
g7
F-3.2188758248682006
sg8
I731
sg9
VCHEMBL93308
p1576
sbag2
(g3
g4
NtRp1577
(dp1578
g7
F0.916290731874155
sg8
I732
sg9
VCHEMBL361601
p1579
sbag2
(g3
g4
NtRp1580
(dp1581
g7
F-4.0249944840873075
sg8
I733
sg9
VCHEMBL328810
p1582
sbag2
(g3
g4
NtRp1583
(dp1584
g7
F0.22314355131420971
sg8
I737
sg9
VCHEMBL181404
p1585
sbag2
(g3
g4
NtRp1586
(dp1587
g7
F-6.1633148040346413
sg8
I738
sg9
VCHEMBL189822
p1588
sbag2
(g3
g4
NtRp1589
(dp1590
g7
F-4.3438054218536841
sg8
I739
sg9
VCHEMBL192782
p1591
sbag2
(g3
g4
NtRp1592
(dp1593
g7
F-4.290459441148391
sg8
I740
sg9
VCHEMBL192901
p1594
sbag2
(g3
g4
NtRp1595
(dp1596
g7
F-3.4965075614664802
sg8
I741
sg9
VCHEMBL362307
p1597
sbag2
(g3
g4
NtRp1598
(dp1599
g7
F-6.4800445619266531
sg8
I742
sg9
VCHEMBL291002
p1600
sbag2
(g3
g4
NtRp1601
(dp1602
g7
F-6.5652649700353614
sg8
I743
sg9
VCHEMBL190487
p1603
sbag2
(g3
g4
NtRp1604
(dp1605
g7
F-4.0500443033255209
sg8
I744
sg9
VCHEMBL195991
p1606
sbag2
(g3
g4
NtRp1607
(dp1608
g7
F-0.33647223662121289
sg8
I745
sg9
VCHEMBL328190
p1609
sbag2
(g3
g4
NtRp1610
(dp1611
g7
F-0.69314718055994529
sg8
I749
sg9
VCHEMBL190038
p1612
sbag2
(g3
g4
NtRp1613
(dp1614
g7
F0.22314355131420971
sg8
I750
sg9
VCHEMBL304552
p1615
sbag2
(g3
g4
NtRp1616
(dp1617
g7
F-2.1972245773362196
sg8
I761
sg9
VCHEMBL1627354
p1618
sbag2
(g3
g4
NtRp1619
(dp1620
g7
F-2.0014800002101243
sg8
I763
sg9
VCHEMBL85536
p1621
sbag2
(g3
g4
NtRp1622
(dp1623
g7
F0.77652878949899629
sg8
I764
sg9
VCHEMBL178665
p1624
sbag2
(g3
g4
NtRp1625
(dp1626
g7
F-2.7725887222397811
sg8
I765
sg9
VCHEMBL435696
p1627
sbag2
(g3
g4
NtRp1628
(dp1629
g7
F-6.776506992372183
sg8
I766
sg9
VCHEMBL371564
p1630
sbag2
(g3
g4
NtRp1631
(dp1632
g7
F-3.8286413964890951
sg8
I767
sg9
VCHEMBL1628170
p1633
sbag2
(g3
g4
NtRp1634
(dp1635
g7
F-3.380994674344636
sg8
I768
sg9
VCHEMBL91740
p1636
sbag2
(g3
g4
NtRp1637
(dp1638
g7
F-2.3978952727983707
sg8
I769
sg9
VCHEMBL30707
p1639
sbag2
(g3
g4
NtRp1640
(dp1641
g7
F-1.5173226235262947
sg8
I772
sg9
VCHEMBL954
p1642
sbag2
(g3
g4
NtRp1643
(dp1644
g7
F-0.18232155679395459
sg8
I773
sg9
VCHEMBL184974
p1645
sbag2
(g3
g4
NtRp1646
(dp1647
g7
F-5.9839362806871907
sg8
I774
sg9
VCHEMBL1627353
p1648
sbag2
(g3
g4
NtRp1649
(dp1650
g7
F-1.9286186519452522
sg8
I775
sg9
VCHEMBL373625
p1651
sbag2
(g3
g4
NtRp1652
(dp1653
g7
F-5.4249500174814029
sg8
I776
sg9
VCHEMBL188846
p1654
sbag2
(g3
g4
NtRp1655
(dp1656
g7
F-1.0438040521731147
sg8
I777
sg9
VCHEMBL196131
p1657
sbag2
(g3
g4
NtRp1658
(dp1659
g7
F-6.2747620212419388
sg8
I778
sg9
VCHEMBL30574
p1660
sbag2
(g3
g4
NtRp1661
(dp1662
g7
F-5.1590552992145291
sg8
I779
sg9
VCHEMBL427180
p1663
sbag2
(g3
g4
NtRp1664
(dp1665
g7
F-5.6454468976432377
sg8
I780
sg9
VCHEMBL194265
p1666
sbag2
(g3
g4
NtRp1667
(dp1668
g7
F-6.5638555265321274
sg8
I781
sg9
VCHEMBL195788
p1669
sbag2
(g3
g4
NtRp1670
(dp1671
g7
F-5.1298987149230735
sg8
I782
sg9
VCHEMBL194334
p1672
sbag2
(g3
g4
NtRp1673
(dp1674
g7
F0.22314355131420971
sg8
I784
sg9
VCHEMBL183344
p1675
sbag2
(g3
g4
NtRp1676
(dp1677
g7
F0.35667494393873245
sg8
I785
sg9
VCHEMBL369545
p1678
sbag2
(g3
g4
NtRp1679
(dp1680
g7
F-3.4011973816621555
sg8
I787
sg9
VCHEMBL361078
p1681
sbag2
(g3
g4
NtRp1682
(dp1683
g7
F-3.8918202981106265
sg8
I788
sg9
VCHEMBL187393
p1684
sbag2
(g3
g4
NtRp1685
(dp1686
g7
F-4.4308167988433134
sg8
I789
sg9
VCHEMBL194762
p1687
sbag2
(g3
g4
NtRp1688
(dp1689
g7
F-1.791759469228055
sg8
I790
sg9
VCHEMBL188051
p1690
sbag2
(g3
g4
NtRp1691
(dp1692
g7
F-2.2512917986064953
sg8
I791
sg9
VCHEMBL420017
p1693
sbag2
(g3
g4
NtRp1694
(dp1695
g7
F0.51082562376599072
sg8
I792
sg9
VCHEMBL184367
p1696
sbag2
(g3
g4
NtRp1697
(dp1698
g7
F-6.2146080984221914
sg8
I793
sg9
VCHEMBL356693
p1699
sbag2
(g3
g4
NtRp1700
(dp1701
g7
F-6.444131256700441
sg8
I794
sg9
VCHEMBL1702774
p1702
sbag2
(g3
g4
NtRp1703
(dp1704
g7
F-2.7080502011022101
sg8
I795
sg9
VCHEMBL149791
p1705
sbag2
(g3
g4
NtRp1706
(dp1707
g7
F-4.6821312271242199
sg8
I796
sg9
VCHEMBL372029
p1708
sbag2
(g3
g4
NtRp1709
(dp1710
g7
F-2.3025850929940459
sg8
I798
sg9
VCHEMBL370282
p1711
sbag2
(g3
g4
NtRp1712
(dp1713
g7
F-1.0079579203999789
sg8
I799
sg9
VCHEMBL180702
p1714
sbag2
(g3
g4
NtRp1715
(dp1716
g7
F-5.6524891802686508
sg8
I800
sg9
VCHEMBL103650
p1717
sbag2
(g3
g4
NtRp1718
(dp1719
g7
F-0.40546510810816438
sg8
I802
sg9
VCHEMBL181936
p1720
sbag2
(g3
g4
NtRp1721
(dp1722
g7
F-0.40546510810816438
sg8
I803
sg9
VCHEMBL183782
p1723
sbag2
(g3
g4
NtRp1724
(dp1725
g7
F-6.804614520062624
sg8
I804
sg9
VCHEMBL187673
p1726
sbag2
(g3
g4
NtRp1727
(dp1728
g7
F-4.7874917427820458
sg8
I805
sg9
VCHEMBL421368
p1729
sbag2
(g3
g4
NtRp1730
(dp1731
g7
F-3.7830526241311859
sg8
I806
sg9
VCHEMBL98470
p1732
sbag2
(g3
g4
NtRp1733
(dp1734
g7
F-5.9532433342877846
sg8
I810
sg9
VCHEMBL197757
p1735
sbag2
(g3
g4
NtRp1736
(dp1737
g7
F-6.0913098820776979
sg8
I811
sg9
VCHEMBL191715
p1738
sbag2
(g3
g4
NtRp1739
(dp1740
g7
F0.35667494393873245
sg8
I812
sg9
VCHEMBL122208
p1741
sbag2
(g3
g4
NtRp1742
(dp1743
g7
F-6.3368257311464413
sg8
I813
sg9
VCHEMBL153395
p1744
sbag2
(g3
g4
NtRp1745
(dp1746
g7
F-3.2958368660043291
sg8
I814
sg9
VCHEMBL195289
p1747
sbag2
(g3
g4
NtRp1748
(dp1749
g7
F-3.6635616461296463
sg8
I815
sg9
VCHEMBL33899
p1750
sbag2
(g3
g4
NtRp1751
(dp1752
g7
F-1.7227665977411035
sg8
I817
sg9
VCHEMBL93230
p1753
sbag2
(g3
g4
NtRp1754
(dp1755
g7
F-5.857933154483459
sg8
I818
sg9
VCHEMBL1475434
p1756
sbag2
(g3
g4
NtRp1757
(dp1758
g7
F-5.1357984370502621
sg8
I819
sg9
VCHEMBL1552932
p1759
sbag2
(g3
g4
NtRp1760
(dp1761
g7
F-4.499809670330265
sg8
I820
sg9
VCHEMBL1593653
p1762
sbag2
(g3
g4
NtRp1763
(dp1764
g7
F-4.0073331852324712
sg8
I821
sg9
VCHEMBL192390
p1765
sbag2
(g3
g4
NtRp1766
(dp1767
g7
F-1.2809338454620642
sg8
I822
sg9
VCHEMBL340606
p1768
sbag2
(g3
g4
NtRp1769
(dp1770
g7
F-5.7430031878094825
sg8
I823
sg9
VCHEMBL195280
p1771
sbag2
(g3
g4
NtRp1772
(dp1773
g7
F-5.1761497325738288
sg8
I824
sg9
VCHEMBL191646
p1774
sbag2
(g3
g4
NtRp1775
(dp1776
g7
F-0.52472852893498212
sg8
I826
sg9
VCHEMBL193482
p1777
sbag2
(g3
g4
NtRp1778
(dp1779
g7
F-2.8332133440562162
sg8
I827
sg9
VCHEMBL539927
p1780
sbag2
(g3
g4
NtRp1781
(dp1782
g7
F-1.3862943611198906
sg8
I835
sg9
VCHEMBL125362
p1783
sbag2
(g3
g4
NtRp1784
(dp1785
g7
F-0.96698384618967315
sg8
I836
sg9
VCHEMBL1087557
p1786
sbag2
(g3
g4
NtRp1787
(dp1788
g7
F-5.7365722974791922
sg8
I838
sg9
VCHEMBL1087683
p1789
sbag2
(g3
g4
NtRp1790
(dp1791
g7
F-6.9077552789821368
sg8
I839
sg9
VCHEMBL551269
p1792
sbag2
(g3
g4
NtRp1793
(dp1794
g7
F-3.8501476017100584
sg8
I840
sg9
VCHEMBL190682
p1795
sbag2
(g3
g4
NtRp1796
(dp1797
g7
F-2.3025850929940459
sg8
I841
sg9
VCHEMBL1087812
p1798
sbag2
(g3
g4
NtRp1799
(dp1800
g7
F-0.18232155679395459
sg8
I842
sg9
VCHEMBL1083178
p1801
sbag2
(g3
g4
NtRp1802
(dp1803
g7
F-4.7095302013123339
sg8
I844
sg9
VCHEMBL1083179
p1804
sbag2
(g3
g4
NtRp1805
(dp1806
g7
F-6.9077552789821368
sg8
I845
sg9
VCHEMBL1083497
p1807
sbag2
(g3
g4
NtRp1808
(dp1809
g7
F-1.6486586255873816
sg8
I846
sg9
VCHEMBL363872
p1810
sbag2
(g3
g4
NtRp1811
(dp1812
g7
F0.51082562376599072
sg8
I847
sg9
VCHEMBL184421
p1813
sbag2
(g3
g4
NtRp1814
(dp1815
g7
F-0.69314718055994529
sg8
I848
sg9
VCHEMBL185383
p1816
sbag2
(g3
g4
NtRp1817
(dp1818
g7
F-0.95551144502743635
sg8
I849
sg9
VCHEMBL362623
p1819
sbag2
(g3
g4
NtRp1820
(dp1821
g7
F-2.9601050959108397
sg8
I852
sg9
VCHEMBL226329
p1822
sbag2
(g3
g4
NtRp1823
(dp1824
g7
F-5.9989365619466826
sg8
I853
sg9
VCHEMBL200799
p1825
sbag2
(g3
g4
NtRp1826
(dp1827
g7
F-3.1780538303479458
sg8
I854
sg9
VCHEMBL371012
p1828
sbag2
(g3
g4
NtRp1829
(dp1830
g7
F-5.4595855141441589
sg8
I855
sg9
VCHEMBL426849
p1831
sbag2
(g3
g4
NtRp1832
(dp1833
g7
F-4.499809670330265
sg8
I856
sg9
VCHEMBL202248
p1834
sbag2
(g3
g4
NtRp1835
(dp1836
g7
F-6.1202974189509503
sg8
I857
sg9
VCHEMBL212418
p1837
sbag2
(g3
g4
NtRp1838
(dp1839
g7
F-6.1398845522262553
sg8
I858
sg9
VCHEMBL362356
p1840
sbag2
(g3
g4
NtRp1841
(dp1842
g7
F-1.8718021769015913
sg8
I859
sg9
VCHEMBL511971
p1843
sbag2
(g3
g4
NtRp1844
(dp1845
g7
F-1.6863989535702288
sg8
I860
sg9
VCHEMBL1085669
p1846
sbag2
(g3
g4
NtRp1847
(dp1848
g7
F-1.7227665977411035
sg8
I863
sg9
VCHEMBL1085899
p1849
sbag2
(g3
g4
NtRp1850
(dp1851
g7
F-5.5721540321777647
sg8
I866
sg9
VCHEMBL364419
p1852
sbag2
(g3
g4
NtRp1853
(dp1854
g7
F-1.2809338454620642
sg8
I867
sg9
VCHEMBL91807
p1855
sbag2
(g3
g4
NtRp1856
(dp1857
g7
F-3.2580965380214821
sg8
I869
sg9
VCHEMBL202624
p1858
sbag2
(g3
g4
NtRp1859
(dp1860
g7
F-4.0943445622221004
sg8
I870
sg9
VCHEMBL372997
p1861
sbag2
(g3
g4
NtRp1862
(dp1863
g7
F-1.8405496333974869
sg8
I871
sg9
VCHEMBL183044
p1864
sbag2
(g3
g4
NtRp1865
(dp1866
g7
F1.6094379124341003
sg8
I872
sg9
VCHEMBL198803
p1867
sbag2
(g3
g4
NtRp1868
(dp1869
g7
F-2.6390573296152584
sg8
I873
sg9
VCHEMBL214091
p1870
sbag2
(g3
g4
NtRp1871
(dp1872
g7
F-5.393627546352362
sg8
I874
sg9
VCHEMBL214972
p1873
sbag2
(g3
g4
NtRp1874
(dp1875
g7
F-2.6946271807700692
sg8
I876
sg9
VCHEMBL90072
p1876
sbag2
(g3
g4
NtRp1877
(dp1878
g7
F-5.9661467391236922
sg8
I878
sg9
VCHEMBL188957
p1879
sbag2
(g3
g4
NtRp1880
(dp1881
g7
F-4.9487598903781684
sg8
I879
sg9
VCHEMBL209851
p1882
sbag2
(g3
g4
NtRp1883
(dp1884
g7
F-6.9077552789821368
sg8
I881
sg9
VCHEMBL381489
p1885
sbag2
(g3
g4
NtRp1886
(dp1887
g7
F-3.2188758248682006
sg8
I882
sg9
VCHEMBL204697
p1888
sbag2
(g3
g4
NtRp1889
(dp1890
g7
F-6.7799219074722519
sg8
I883
sg9
VCHEMBL211739
p1891
sbag2
(g3
g4
NtRp1892
(dp1893
g7
F-6.4167322825123261
sg8
I884
sg9
VCHEMBL213529
p1894
sbag2
(g3
g4
NtRp1895
(dp1896
g7
F-2.3978952727983707
sg8
I885
sg9
VCHEMBL1082539
p1897
sbag2
(g3
g4
NtRp1898
(dp1899
g7
F-3.1780538303479458
sg8
I887
sg9
VCHEMBL187219
p1900
sbag2
(g3
g4
NtRp1901
(dp1902
g7
F-2.9957322735539909
sg8
I888
sg9
VCHEMBL394357
p1903
sbag2
(g3
g4
NtRp1904
(dp1905
g7
F-6.6871086078665147
sg8
I889
sg9
VCHEMBL242818
p1906
sbag2
(g3
g4
NtRp1907
(dp1908
g7
F-5.8345182966452551
sg8
I890
sg9
VCHEMBL94170
p1909
sbag2
(g3
g4
NtRp1910
(dp1911
g7
F-6.2146080984221914
sg8
I892
sg9
VCHEMBL106773
p1912
sbag2
(g3
g4
NtRp1913
(dp1914
g7
F-4.5643481914678361
sg8
I893
sg9
VCHEMBL192000
p1915
sbag2
(g3
g4
NtRp1916
(dp1917
g7
F-5.4595855141441589
sg8
I894
sg9
VCHEMBL329630
p1918
sbag2
(g3
g4
NtRp1919
(dp1920
g7
F-5.1474944768134527
sg8
I895
sg9
VCHEMBL432454
p1921
sbag2
(g3
g4
NtRp1922
(dp1923
g7
F-0.78845736036427028
sg8
I896
sg9
VCHEMBL184491
p1924
sbag2
(g3
g4
NtRp1925
(dp1926
g7
F-2.2082744135228043
sg8
I897
sg9
VCHEMBL393982
p1927
sbag2
(g3
g4
NtRp1928
(dp1929
g7
F-0.69314718055994529
sg8
I898
sg9
VCHEMBL240438
p1930
sbag2
(g3
g4
NtRp1931
(dp1932
g7
F-6.2363695902037044
sg8
I899
sg9
VCHEMBL188246
p1933
sbag2
(g3
g4
NtRp1934
(dp1935
g7
F-4.3820266346738812
sg8
I900
sg9
VCHEMBL346455
p1936
sbag2
(g3
g4
NtRp1937
(dp1938
g7
F-4.9344739331306915
sg8
I901
sg9
VCHEMBL377254
p1939
sbag2
(g3
g4
NtRp1940
(dp1941
g7
F-3.1354942159291497
sg8
I902
sg9
VCHEMBL213829
p1942
sbag2
(g3
g4
NtRp1943
(dp1944
g7
F-6.678342114654332
sg8
I903
sg9
VCHEMBL455215
p1945
sbag2
(g3
g4
NtRp1946
(dp1947
g7
F-4.4188406077965983
sg8
I904
sg9
VCHEMBL364492
p1948
sbag2
(g3
g4
NtRp1949
(dp1950
g7
F-2.33214389523559
sg8
I906
sg9
VCHEMBL469510
p1951
sbag2
(g3
g4
NtRp1952
(dp1953
g7
F0.10536051565782628
sg8
I907
sg9
VCHEMBL368688
p1954
sbag2
(g3
g4
NtRp1955
(dp1956
g7
F-3.0910424533583161
sg8
I908
sg9
VCHEMBL1087546
p1957
sbag2
(g3
g4
NtRp1958
(dp1959
g7
F-1.547562508716013
sg8
I910
sg9
VCHEMBL92027
p1960
sbag2
(g3
g4
NtRp1961
(dp1962
g7
F-0.53062825106217038
sg8
I912
sg9
VCHEMBL125119
p1963
sbag2
(g3
g4
NtRp1964
(dp1965
g7
F-6.3681871863504922
sg8
I913
sg9
VCHEMBL414859
p1966
sbag2
(g3
g4
NtRp1967
(dp1968
g7
F-3.2188758248682006
sg8
I914
sg9
VCHEMBL46903
p1969
sbag2
(g3
g4
NtRp1970
(dp1971
g7
F-2.3025850929940459
sg8
I916
sg9
VCHEMBL195311
p1972
sbag2
(g3
g4
NtRp1973
(dp1974
g7
F-6.7334018918373593
sg8
I917
sg9
VCHEMBL1455849
p1975
sbag2
(g3
g4
NtRp1976
(dp1977
g7
F-4.3820266346738812
sg8
I918
sg9
VCHEMBL1356953
p1978
sbag2
(g3
g4
NtRp1979
(dp1980
g7
F-5.8324395068644632
sg8
I919
sg9
VCHEMBL1097284
p1981
sbag2
(g3
g4
NtRp1982
(dp1983
g7
F-3.6888794541139363
sg8
I920
sg9
VCHEMBL426897
p1984
sbag2
(g3
g4
NtRp1985
(dp1986
g7
F-1.0986122886681098
sg8
I921
sg9
VCHEMBL386502
p1987
sbag2
(g3
g4
NtRp1988
(dp1989
g7
F-3.8712010109078911
sg8
I922
sg9
VCHEMBL223026
p1990
sbag2
(g3
g4
NtRp1991
(dp1992
g7
F-5.9532433342877846
sg8
I923
sg9
VCHEMBL91452
p1993
sbag2
(g3
g4
NtRp1994
(dp1995
g7
F-3.1780538303479458
sg8
I924
sg9
VCHEMBL144897
p1996
sbag2
(g3
g4
NtRp1997
(dp1998
g7
F1.2039728043259361
sg8
I925
sg9
VCHEMBL433769
p1999
sbag2
(g3
g4
NtRp2000
(dp2001
g7
F-4.4886363697321396
sg8
I926
sg9
VCHEMBL282292
p2002
sbag2
(g3
g4
NtRp2003
(dp2004
g7
F0.35667494393873245
sg8
I927
sg9
VCHEMBL179852
p2005
sbag2
(g3
g4
NtRp2006
(dp2007
g7
F-3.4339872044851463
sg8
I928
sg9
VCHEMBL286115
p2008
sbag2
(g3
g4
NtRp2009
(dp2010
g7
F-3.4330189939851112
sg8
I930
sg9
VCHEMBL327515
p2011
sbag2
(g3
g4
NtRp2012
(dp2013
g7
F-1.9021075263969205
sg8
I934
sg9
VCHEMBL315866
p2014
sbag2
(g3
g4
NtRp2015
(dp2016
g7
F-6.8977049431286357
sg8
I935
sg9
VCHEMBL183033
p2017
sbag2
(g3
g4
NtRp2018
(dp2019
g7
F-6.363028103540465
sg8
I936
sg9
VCHEMBL190025
p2020
sbag2
(g3
g4
NtRp2021
(dp2022
g7
F-6.6631326959908028
sg8
I937
sg9
VCHEMBL198088
p2023
sbag2
(g3
g4
NtRp2024
(dp2025
g7
F-6.3117348091529148
sg8
I938
sg9
VCHEMBL30769
p2026
sbag2
(g3
g4
NtRp2027
(dp2028
g7
F-0.53062825106217038
sg8
I939
sg9
VCHEMBL180792
p2029
sbag2
(g3
g4
NtRp2030
(dp2031
g7
F-0.87546873735389985
sg8
I942
sg9
VCHEMBL369724
p2032
sbag2
(g3
g4
NtRp2033
(dp2034
g7
F-4.2621163380013236
sg8
I943
sg9
VCHEMBL100231
p2035
sbag2
(g3
g4
NtRp2036
(dp2037
g7
F-5.4380793089231956
sg8
I947
sg9
VCHEMBL195217
p2038
sbag2
(g3
g4
NtRp2039
(dp2040
g7
F-2.4765384001174837
sg8
I948
sg9
VCHEMBL420611
p2041
sbag2
(g3
g4
NtRp2042
(dp2043
g7
F-3.4011973816621555
sg8
I949
sg9
VCHEMBL1434556
p2044
sbag2
(g3
g4
NtRp2045
(dp2046
g7
F-3.912023005428146
sg8
I950
sg9
VCHEMBL1414407
p2047
sbag2
(g3
g4
NtRp2048
(dp2049
g7
F-4.1743872698956368
sg8
I951
sg9
VCHEMBL282575
p2050
sbag2
(g3
g4
NtRp2051
(dp2052
g7
F-0.26236426446749106
sg8
I952
sg9
VCHEMBL361056
p2053
sbag2
(g3
g4
NtRp2054
(dp2055
g7
F-1.9459101490553132
sg8
I953
sg9
VCHEMBL313825
p2056
sbag2
(g3
g4
NtRp2057
(dp2058
g7
F-2.174751721484161
sg8
I954
sg9
VCHEMBL83623
p2059
sbag2
(g3
g4
NtRp2060
(dp2061
g7
F-6.6957989170584913
sg8
I955
sg9
VCHEMBL188516
p2062
sbag2
(g3
g4
NtRp2063
(dp2064
g7
F0.35667494393873245
sg8
I956
sg9
VCHEMBL183263
p2065
sbag2
(g3
g4
NtRp2066
(dp2067
g7
F1.2729656758128873
sg8
I958
sg9
VCHEMBL178334
p2068
sbag2
(g3
g4
NtRp2069
(dp2070
g7
F-3.784189633918261
sg8
I960
sg9
VCHEMBL187311
p2071
sbag2
(g3
g4
NtRp2072
(dp2073
g7
F-2.3978952727983707
sg8
I961
sg9
VCHEMBL419110
p2074
sbag2
(g3
g4
NtRp2075
(dp2076
g7
F-4.1907147860417941
sg8
I962
sg9
VCHEMBL319678
p2077
sbag2
(g3
g4
NtRp2078
(dp2079
g7
F-1.3711807233098425
sg8
I966
sg9
VCHEMBL182157
p2080
sbag2
(g3
g4
NtRp2081
(dp2082
g7
F-0
sg8
I967
sg9
VCHEMBL267385
p2083
sbag2
(g3
g4
NtRp2084
(dp2085
g7
F-0.69314718055994529
sg8
I969
sg9
VCHEMBL489
p2086
sbag2
(g3
g4
NtRp2087
(dp2088
g7
F-3.5553480614894135
sg8
I973
sg9
VCHEMBL192260
p2089
sbag2
(g3
g4
NtRp2090
(dp2091
g7
F-3.8292933578291501
sg8
I974
sg9
VCHEMBL100595
p2092
sbag2
(g3
g4
NtRp2093
(dp2094
g7
F0.916290731874155
sg8
I978
sg9
VCHEMBL183467
p2095
sbag2
(g3
g4
NtRp2096
(dp2097
g7
F-0
sg8
I980
sg9
VCHEMBL329892
p2098
sbag2
(g3
g4
NtRp2099
(dp2100
g7
F-3.9721769282478934
sg8
I981
sg9
VCHEMBL89995
p2101
sbag2
(g3
g4
NtRp2102
(dp2103
g7
F-6.0730445341004051
sg8
I982
sg9
VCHEMBL189556
p2104
sbag2
(g3
g4
NtRp2105
(dp2106
g7
F-6.253828811575473
sg8
I983
sg9
VCHEMBL1231453
p2107
sbag2
(g3
g4
NtRp2108
(dp2109
g7
F0.49429632181478012
sg8
I984
sg9
VCHEMBL207324
p2110
sbag2
(g3
g4
NtRp2111
(dp2112
g7
F-5.521460917862246
sg8
I985
sg9
VCHEMBL204376
p2113
sbag2
(g3
g4
NtRp2114
(dp2115
g7
F-4.0430512678345503
sg8
I986
sg9
VCHEMBL460647
p2116
sbag2
(g3
g4
NtRp2117
(dp2118
g7
F-5.3752784076841653
sg8
I987
sg9
VCHEMBL216334
p2119
sbag2
(g3
g4
NtRp2120
(dp2121
g7
F-6.4723462945009009
sg8
I988
sg9
VCHEMBL385949
p2122
sbag2
(g3
g4
NtRp2123
(dp2124
g7
F-5.8636311755980968
sg8
I989
sg9
VCHEMBL378883
p2125
sbag2
(g3
g4
NtRp2126
(dp2127
g7
F-4.3944491546724391
sg8
I990
sg9
VCHEMBL215428
p2128
sbag2
(g3
g4
NtRp2129
(dp2130
g7
F-3.5263605246161616
sg8
I991
sg9
VCHEMBL214692
p2131
sbag2
(g3
g4
NtRp2132
(dp2133
g7
F-5.3612921657094255
sg8
I992
sg9
VCHEMBL372783
p2134
sbag2
(g3
g4
NtRp2135
(dp2136
g7
F-4.7004803657924166
sg8
I993
sg9
VCHEMBL250110
p2137
sbag2
(g3
g4
NtRp2138
(dp2139
g7
F-6.1377270540862341
sg8
I994
sg9
VCHEMBL188299
p2140
sbag2
(g3
g4
NtRp2141
(dp2142
g7
F-2.1282317058492679
sg8
I995
sg9
VCHEMBL469511
p2143
sbag2
(g3
g4
NtRp2144
(dp2145
g7
F-5.4071717714601188
sg8
I996
sg9
VCHEMBL211953
p2146
sbag2
(g3
g4
NtRp2147
(dp2148
g7
F-5.5174528964647074
sg8
I997
sg9
VCHEMBL214034
p2149
sbag2
(g3
g4
NtRp2150
(dp2151
g7
F-5.4380793089231956
sg8
I998
sg9
VCHEMBL211666
p2152
sbag2
(g3
g4
NtRp2153
(dp2154
g7
F-5.43372200355424
sg8
I999
sg9
VCHEMBL206500
p2155
sbag2
(g3
g4
NtRp2156
(dp2157
g7
F-6.0753460310886842
sg8
I1000
sg9
VCHEMBL206439
p2158
sbag2
(g3
g4
NtRp2159
(dp2160
g7
F-4.4886363697321396
sg8
I1001
sg9
VCHEMBL10560
p2161
sbag2
(g3
g4
NtRp2162
(dp2163
g7
F-6.9077552789821368
sg8
I1002
sg9
VCHEMBL1087290
p2164
sbag2
(g3
g4
NtRp2165
(dp2166
g7
F-0.87546873735389985
sg8
I1003
sg9
VCHEMBL1086774
p2167
sbag2
(g3
g4
NtRp2168
(dp2169
g7
F-5.0106352940962555
sg8
I1006
sg9
VCHEMBL1087040
p2170
sbag2
(g3
g4
NtRp2171
(dp2172
g7
F-1.824549292051046
sg8
I1007
sg9
VCHEMBL1088337
p2173
sbag2
(g3
g4
NtRp2174
(dp2175
g7
F-1.6094379124341003
sg8
I1008
sg9
VCHEMBL1088629
p2176
sbag2
(g3
g4
NtRp2177
(dp2178
g7
F-4.9972122737641147
sg8
I1010
sg9
VCHEMBL231810
p2179
sbag2
(g3
g4
NtRp2180
(dp2181
g7
F-2.1972245773362196
sg8
I1011
sg9
VCHEMBL1088483
p2182
sbag2
(g3
g4
NtRp2183
(dp2184
g7
F-4.4067192472642533
sg8
I1014
sg9
VCHEMBL1222036
p2185
sbag2
(g3
g4
NtRp2186
(dp2187
g7
F-6.678342114654332
sg8
I1015
sg9
VCHEMBL1082743
p2188
sbag2
(g3
g4
NtRp2189
(dp2190
g7
F-2.33214389523559
sg8
I1016
sg9
VCHEMBL192621
p2191
sbag2
(g3
g4
NtRp2192
(dp2193
g7
F-2.1972245773362196
sg8
I1017
sg9
VCHEMBL192586
p2194
sbag2
(g3
g4
NtRp2195
(dp2196
g7
F-3.912023005428146
sg8
I1018
sg9
VCHEMBL434577
p2197
sbag2
(g3
g4
NtRp2198
(dp2199
g7
F-5.7365722974791922
sg8
I1019
sg9
VCHEMBL384708
p2200
sbag2
(g3
g4
NtRp2201
(dp2202
g7
F-4.6539603501575231
sg8
I1020
sg9
VCHEMBL221626
p2203
sbag2
(g3
g4
NtRp2204
(dp2205
g7
F-3.6888794541139363
sg8
I1021
sg9
VCHEMBL222452
p2206
sbag2
(g3
g4
NtRp2207
(dp2208
g7
F-6.9077552789821368
sg8
I1022
sg9
VCHEMBL219467
p2209
sbag2
(g3
g4
NtRp2210
(dp2211
g7
F-6.9077552789821368
sg8
I1023
sg9
VCHEMBL592043
p2212
sbag2
(g3
g4
NtRp2213
(dp2214
g7
F-2.3978952727983707
sg8
I1024
sg9
VCHEMBL1085668
p2215
sbag2
(g3
g4
NtRp2216
(dp2217
g7
F-2.1633230256605378
sg8
I1027
sg9
VCHEMBL1084922
p2218
sbag2
(g3
g4
NtRp2219
(dp2220
g7
F-5.7137328055093688
sg8
I1029
sg9
VCHEMBL205070
p2221
sbag2
(g3
g4
NtRp2222
(dp2223
g7
F-6.2146080984221914
sg8
I1030
sg9
VCHEMBL203860
p2224
sbag2
(g3
g4
NtRp2225
(dp2226
g7
F0.51082562376599072
sg8
I1031
sg9
VCHEMBL372337
p2227
sbag2
(g3
g4
NtRp2228
(dp2229
g7
F0.10536051565782628
sg8
I1032
sg9
VCHEMBL180995
p2230
sbag2
(g3
g4
NtRp2231
(dp2232
g7
F-5.0562458053483077
sg8
I1033
sg9
VCHEMBL203123
p2233
sbag2
(g3
g4
NtRp2234
(dp2235
g7
F-4.6913478822291435
sg8
I1034
sg9
VCHEMBL381976
p2236
sbag2
(g3
g4
NtRp2237
(dp2238
g7
F-2.6390573296152584
sg8
I1035
sg9
VCHEMBL201834
p2239
sbag2
(g3
g4
NtRp2240
(dp2241
g7
F-6.0867747269123065
sg8
I1036
sg9
VCHEMBL213457
p2242
sbag2
(g3
g4
NtRp2243
(dp2244
g7
F-4.9416424226093039
sg8
I1037
sg9
VCHEMBL211358
p2245
sbag2
(g3
g4
NtRp2246
(dp2247
g7
F-5.8289456176102075
sg8
I1038
sg9
VCHEMBL214291
p2248
sbag2
(g3
g4
NtRp2249
(dp2250
g7
F-6.4297194780391376
sg8
I1039
sg9
VCHEMBL424725
p2251
sbag2
(g3
g4
NtRp2252
(dp2253
g7
F-5.9401712527204316
sg8
I1041
sg9
VCHEMBL210063
p2254
sbag2
(g3
g4
NtRp2255
(dp2256
g7
F-5.5606816310155276
sg8
I1043
sg9
VCHEMBL385514
p2257
sbag2
(g3
g4
NtRp2258
(dp2259
g7
F-3.4339872044851463
sg8
I1045
sg9
VCHEMBL240230
p2260
sbag2
(g3
g4
NtRp2261
(dp2262
g7
F-6.0867747269123065
sg8
I1046
sg9
VCHEMBL394213
p2263
sbag2
(g3
g4
NtRp2264
(dp2265
g7
F-3.6888794541139363
sg8
I1047
sg9
VCHEMBL193146
p2266
sbag2
(g3
g4
NtRp2267
(dp2268
g7
F-5.3518581334760666
sg8
I1048
sg9
VCHEMBL191974
p2269
sbag2
(g3
g4
NtRp2270
(dp2271
g7
F-6.3189681137464344
sg8
I1050
sg9
VCHEMBL309245
p2272
sbag2
(g3
g4
NtRp2273
(dp2274
g7
F-2.3025850929940459
sg8
I1051
sg9
VCHEMBL193108
p2275
sbag2
(g3
g4
NtRp2276
(dp2277
g7
F0.69314718055994529
sg8
I1052
sg9
VCHEMBL182794
p2278
sbag2
(g3
g4
NtRp2279
(dp2280
g7
F-3.4011973816621555
sg8
I1054
sg9
VCHEMBL150461
p2281
sbag2
(g3
g4
NtRp2282
(dp2283
g7
F-2.3978952727983707
sg8
I1055
sg9
VCHEMBL104367
p2284
sbag2
(g3
g4
NtRp2285
(dp2286
g7
F0.51082562376599072
sg8
I1056
sg9
VCHEMBL46740
p2287
sbag2
(g3
g4
NtRp2288
(dp2289
g7
F-3.2347491740244907
sg8
I1059
sg9
VCHEMBL441457
p2290
sbag2
(g3
g4
NtRp2291
(dp2292
g7
F-5.2470240721604862
sg8
I1061
sg9
VCHEMBL189287
p2293
sbag2
(g3
g4
NtRp2294
(dp2295
g7
F-3.9815490680767565
sg8
I1062
sg9
VCHEMBL93326
p2296
sbag2
(g3
g4
NtRp2297
(dp2298
g7
F-2.0794415416798357
sg8
I1063
sg9
VCHEMBL93391
p2299
sbag2
(g3
g4
NtRp2300
(dp2301
g7
F-6.2225762680713688
sg8
I1064
sg9
VCHEMBL198089
p2302
sbag2
(g3
g4
NtRp2303
(dp2304
g7
F-3.1354942159291497
sg8
I1065
sg9
VCHEMBL185012
p2305
sbag2
(g3
g4
NtRp2306
(dp2307
g7
F-0.83290912293510388
sg8
I1066
sg9
VCHEMBL122237
p2308
sbag2
(g3
g4
NtRp2309
(dp2310
g7
F0.22314355131420971
sg8
I1067
sg9
VCHEMBL361005
p2311
sbag2
(g3
g4
NtRp2312
(dp2313
g7
F0.69314718055994529
sg8
I1068
sg9
VCHEMBL184679
p2314
sbag2
(g3
g4
NtRp2315
(dp2316
g7
F-2.0794415416798357
sg8
I1069
sg9
VCHEMBL187105
p2317
sbag2
(g3
g4
NtRp2318
(dp2319
g7
F-4.5643481914678361
sg8
I1070
sg9
VCHEMBL1405
p2320
sbag2
(g3
g4
NtRp2321
(dp2322
g7
F-3.6841181370122258
sg8
I1074
sg9
VCHEMBL98558
p2323
sbag2
(g3
g4
NtRp2324
(dp2325
g7
F-5.0434251169192468
sg8
I1078
sg9
VCHEMBL188528
p2326
sbag2
(g3
g4
NtRp2327
(dp2328
g7
F1.2039728043259361
sg8
I1079
sg9
VCHEMBL181368
p2329
sbag2
(g3
g4
NtRp2330
(dp2331
g7
F-5.5373342670185366
sg8
I1080
sg9
VCHEMBL195290
p2332
sbag2
(g3
g4
NtRp2333
(dp2334
g7
F-3.5550623063795967
sg8
I1081
sg9
VCHEMBL103294
p2335
sbag2
(g3
g4
NtRp2336
(dp2337
g7
F-3.6635616461296463
sg8
I1085
sg9
VCHEMBL363412
p2338
sbag2
(g3
g4
NtRp2339
(dp2340
g7
F-6.9077552789821368
sg8
I1086
sg9
VCHEMBL79335
p2341
sbag2
(g3
g4
NtRp2342
(dp2343
g7
F-3.1179499062782403
sg8
I1087
sg9
VCHEMBL327471
p2344
sbag2
(g3
g4
NtRp2345
(dp2346
g7
F-3.6888794541139363
sg8
I1089
sg9
VCHEMBL195389
p2347
sbag2
(g3
g4
NtRp2348
(dp2349
g7
F-5.3471075307174685
sg8
I1090
sg9
VCHEMBL360189
p2350
sbag2
(g3
g4
NtRp2351
(dp2352
g7
F-1.824549292051046
sg8
I1091
sg9
VCHEMBL71585
p2353
sbag2
(g3
g4
NtRp2354
(dp2355
g7
F-3.2950958507796098
sg8
I1092
sg9
VCHEMBL100763
p2356
sbag2
(g3
g4
NtRp2357
(dp2358
g7
F-1.9878743481543455
sg8
I1096
sg9
VCHEMBL365484
p2359
sbag2
(g3
g4
NtRp2360
(dp2361
g7
F-6.9077552789821368
sg8
I1097
sg9
VCHEMBL103
p2362
sbag2
(g3
g4
NtRp2363
(dp2364
g7
F-3.4242626545931514
sg8
I1099
sg9
VCHEMBL91052
p2365
sbag2
(g3
g4
NtRp2366
(dp2367
g7
F-6.9077552789821368
sg8
I1100
sg9
VCHEMBL311034
p2368
sbag2
(g3
g4
NtRp2369
(dp2370
g7
F-3.5524868292083815
sg8
I1101
sg9
VCHEMBL92335
p2371
sbag2
(g3
g4
NtRp2372
(dp2373
g7
F-3.5553480614894135
sg8
I1102
sg9
VCHEMBL189077
p2374
sbag2
(g3
g4
NtRp2375
(dp2376
g7
F-3.4657359027997265
sg8
I1103
sg9
VCHEMBL1627351
p2377
sbag2
(g3
g4
NtRp2378
(dp2379
g7
F-3.8918202981106265
sg8
I1105
sg9
VCHEMBL360338
p2380
sbag2
(g3
g4
NtRp2381
(dp2382
g7
F-0.97455963999813078
sg8
I1106
sg9
VCHEMBL178857
p2383
sbag2
(g3
g4
NtRp2384
(dp2385
g7
F-3.7541989202345789
sg8
I1107
sg9
VCHEMBL90008
p2386
sbag2
(g3
g4
NtRp2387
(dp2388
g7
F-6.7031881132408628
sg8
I1108
sg9
VCHEMBL188882
p2389
sbag2
(g3
g4
NtRp2390
(dp2391
g7
F-5.3423342519648109
sg8
I1109
sg9
VCHEMBL360385
p2392
sbag2
(g3
g4
NtRp2393
(dp2394
g7
F0.69314718055994529
sg8
I1110
sg9
VCHEMBL182980
p2395
sbag2
(g3
g4
NtRp2396
(dp2397
g7
F-4.7535901911063645
sg8
I1112
sg9
VCHEMBL195039
p2398
sbag2
(g3
g4
NtRp2399
(dp2400
g7
F-3.6633052029945059
sg8
I1113
sg9
VCHEMBL319211
p2401
sbag2
(g3
g4
NtRp2402
(dp2403
g7
F-2.5649493574615367
sg8
I1117
sg9
VCHEMBL180085
p2404
sbag2
(g3
g4
NtRp2405
(dp2406
g7
F-0.87546873735389985
sg8
I1118
sg9
VCHEMBL183162
p2407
sbag2
(g3
g4
NtRp2408
(dp2409
g7
F1.2039728043259361
sg8
I1119
sg9
VCHEMBL427324
p2410
sbag2
(g3
g4
NtRp2411
(dp2412
g7
F-3.912023005428146
sg8
I1120
sg9
VCHEMBL357824
p2413
sbag2
(g3
g4
NtRp2414
(dp2415
g7
F-1.3862943611198906
sg8
I1121
sg9
VCHEMBL1087418
p2416
sbag2
(g3
g4
NtRp2417
(dp2418
g7
F-5.4939663835528538
sg8
I1123
sg9
VCHEMBL1094732
p2419
sbag2
(g3
g4
NtRp2420
(dp2421
g7
F-4.3081109517237133
sg8
I1124
sg9
VCHEMBL1097377
p2422
sbag2
(g3
g4
NtRp2423
(dp2424
g7
F-6.1527326947041043
sg8
I1125
sg9
VCHEMBL425246
p2425
sbag2
(g3
g4
NtRp2426
(dp2427
g7
F-6.4967749901858625
sg8
I1126
sg9
VCHEMBL380032
p2428
sbag2
(g3
g4
NtRp2429
(dp2430
g7
F-3.8286413964890951
sg8
I1127
sg9
VCHEMBL211349
p2431
sbag2
(g3
g4
NtRp2432
(dp2433
g7
F-4.4308167988433134
sg8
I1128
sg9
VCHEMBL234524
p2434
sbag2
(g3
g4
NtRp2435
(dp2436
g7
F-6.6871086078665147
sg8
I1129
sg9
VCHEMBL396947
p2437
sbag2
(g3
g4
NtRp2438
(dp2439
g7
F-6.261491684321042
sg8
I1130
sg9
VCHEMBL203340
p2440
sbag2
(g3
g4
NtRp2441
(dp2442
g7
F-6.3716118472318568
sg8
I1131
sg9
VCHEMBL380720
p2443
sbag2
(g3
g4
NtRp2444
(dp2445
g7
F-6.9077552789821368
sg8
I1132
sg9
VCHEMBL205614
p2446
sbag2
(g3
g4
NtRp2447
(dp2448
g7
F-2.9957322735539909
sg8
I1133
sg9
VCHEMBL481189
p2449
sbag2
(g3
g4
NtRp2450
(dp2451
g7
F-6.9077552789821368
sg8
I1134
sg9
VCHEMBL519599
p2452
sbag2
(g3
g4
NtRp2453
(dp2454
g7
F-3.9512437185814275
sg8
I1135
sg9
VCHEMBL222453
p2455
sbag2
(g3
g4
NtRp2456
(dp2457
g7
F-1.5040773967762742
sg8
I1136
sg9
VCHEMBL1087297
p2458
sbag2
(g3
g4
NtRp2459
(dp2460
g7
F-1.4350845252893227
sg8
I1138
sg9
VCHEMBL1087426
p2461
sbag2
(g3
g4
NtRp2462
(dp2463
g7
F-0.095310179804324935
sg8
I1140
sg9
VCHEMBL1088485
p2464
sbag2
(g3
g4
NtRp2465
(dp2466
g7
F-4.6347289882296359
sg8
I1143
sg9
VCHEMBL183889
p2467
sbag2
(g3
g4
NtRp2468
(dp2469
g7
F-6.9077552789821368
sg8
I1144
sg9
VCHEMBL1083805
p2470
sbag2
(g3
g4
NtRp2471
(dp2472
g7
F-1.5686159179138452
sg8
I1145
sg9
VCHEMBL1085161
p2473
sbag2
(g3
g4
NtRp2474
(dp2475
g7
F-1.8405496333974869
sg8
I1146
sg9
VCHEMBL1082864
p2476
sbag2
(g3
g4
NtRp2477
(dp2478
g7
F-4.1271343850450917
sg8
I1149
sg9
VCHEMBL225514
p2479
sbag2
(g3
g4
NtRp2480
(dp2481
g7
F-3.6109179126442243
sg8
I1150
sg9
VCHEMBL222454
p2482
sbag2
(g3
g4
NtRp2483
(dp2484
g7
F-6.1202974189509503
sg8
I1151
sg9
VCHEMBL215593
p2485
sbag2
(g3
g4
NtRp2486
(dp2487
g7
F-3.6109179126442243
sg8
I1152
sg9
VCHEMBL391909
p2488
sbag2
(g3
g4
NtRp2489
(dp2490
g7
F-1.8870696490323797
sg8
I1153
sg9
VCHEMBL241256
p2491
sbag2
(g3
g4
NtRp2492
(dp2493
g7
F-2.3125354238472138
sg8
I1154
sg9
VCHEMBL241484
p2494
sbag2
(g3
g4
NtRp2495
(dp2496
g7
F-1.589235205116581
sg8
I1155
sg9
VCHEMBL396119
p2497
sbag2
(g3
g4
NtRp2498
(dp2499
g7
F-2.1972245773362196
sg8
I1156
sg9
VCHEMBL1084129
p2500
sbag2
(g3
g4
NtRp2501
(dp2502
g7
F-5.7430031878094825
sg8
I1158
sg9
VCHEMBL1085172
p2503
sbag2
(g3
g4
NtRp2504
(dp2505
g7
F-5.6419070709381138
sg8
I1159
sg9
VCHEMBL372030
p2506
sbag2
(g3
g4
NtRp2507
(dp2508
g7
F-6.7638849085624351
sg8
I1160
sg9
VCHEMBL382873
p2509
sbag2
(g3
g4
NtRp2510
(dp2511
g7
F-3.6888794541139363
sg8
I1161
sg9
VCHEMBL202155
p2512
sbag2
(g3
g4
NtRp2513
(dp2514
g7
F-6.0520891689244172
sg8
I1162
sg9
VCHEMBL437065
p2515
sbag2
(g3
g4
NtRp2516
(dp2517
g7
F-6.4457198193855785
sg8
I1163
sg9
VCHEMBL381495
p2518
sbag2
(g3
g4
NtRp2519
(dp2520
g7
F0.69314718055994529
sg8
I1164
sg9
VCHEMBL92748
p2521
sbag2
(g3
g4
NtRp2522
(dp2523
g7
F-3.068052935133617
sg8
I1165
sg9
VCHEMBL226267
p2524
sbag2
(g3
g4
NtRp2525
(dp2526
g7
F-2.0541237336955462
sg8
I1166
sg9
VCHEMBL226268
p2527
sbag2
(g3
g4
NtRp2528
(dp2529
g7
F-2.388762789235098
sg8
I1167
sg9
VCHEMBL226327
p2530
sbag2
(g3
g4
NtRp2531
(dp2532
g7
F-6.5652649700353614
sg8
I1168
sg9
VCHEMBL213838
p2533
sbag2
(g3
g4
NtRp2534
(dp2535
g7
F-5.6698809229805196
sg8
I1170
sg9
VCHEMBL190467
p2536
sbag2
(g3
g4
NtRp2537
(dp2538
g7
F-5.1929568508902104
sg8
I1171
sg9
VCHEMBL192849
p2539
sbag2
(g3
g4
NtRp2540
(dp2541
g7
F-5.4806389233419912
sg8
I1172
sg9
VCHEMBL205119
p2542
sbag2
(g3
g4
NtRp2543
(dp2544
g7
F-2.7725887222397811
sg8
I1173
sg9
VCHEMBL202607
p2545
sbag2
(g3
g4
NtRp2546
(dp2547
g7
F-1.9459101490553132
sg8
I1174
sg9
VCHEMBL371637
p2548
sbag2
(g3
g4
NtRp2549
(dp2550
g7
F-6.1717005974109149
sg8
I1175
sg9
VCHEMBL204315
p2551
sbag2
(g3
g4
NtRp2552
(dp2553
g7
F-5.6094717951849598
sg8
I1176
sg9
VCHEMBL210143
p2554
sbag2
(g3
g4
NtRp2555
(dp2556
g7
F-3.9318256327243257
sg8
I1177
sg9
VCHEMBL208085
p2557
sbag2
(g3
g4
NtRp2558
(dp2559
g7
F-4.6051701859880918
sg8
I1178
sg9
VCHEMBL383112
p2560
sbag2
(g3
g4
NtRp2561
(dp2562
g7
F-4.7273878187123408
sg8
I1179
sg9
VCHEMBL209978
p2563
sbag2
(g3
g4
NtRp2564
(dp2565
g7
F-2.7080502011022101
sg8
I1180
sg9
VCHEMBL341367
p2566
sbag2
(g3
g4
NtRp2567
(dp2568
g7
F-2.1972245773362196
sg8
I1181
sg9
VCHEMBL357283
p2569
sbag2
(g3
g4
NtRp2570
(dp2571
g7
F-5.9712618397904622
sg8
I1182
sg9
VCHEMBL216596
p2572
sbag2
(g3
g4
NtRp2573
(dp2574
g7
F-5.2626901889048856
sg8
I1183
sg9
VCHEMBL1628029
p2575
sbag2
(g3
g4
NtRp2576
(dp2577
g7
F-5.5174528964647074
sg8
I1184
sg9
VCHEMBL188517
p2578
sbag2
(g3
g4
NtRp2579
(dp2580
g7
F-2.1713368063840917
sg8
I1185
sg9
VCHEMBL513397
p2581
sbag2
(g3
g4
NtRp2582
(dp2583
g7
F-0
sg8
I1186
sg9
VCHEMBL121720
p2584
sbag2
(g3
g4
NtRp2585
(dp2586
g7
F-6.694562058521095
sg8
I1187
sg9
VCHEMBL1162
p2587
sbag2
(g3
g4
NtRp2588
(dp2589
g7
F-5.7589017738772803
sg8
I1188
sg9
VCHEMBL245378
p2590
sbag2
(g3
g4
NtRp2591
(dp2592
g7
F-6.4614681763537174
sg8
I1189
sg9
VCHEMBL249700
p2593
sbag2
(g3
g4
NtRp2594
(dp2595
g7
F-6.5072777123850116
sg8
I1190
sg9
VCHEMBL457035
p2596
sbag2
(g3
g4
NtRp2597
(dp2598
g7
F-0.10436001532424286
sg8
I1191
sg9
VCHEMBL1818254
p2599
sbag2
(g3
g4
NtRp2600
(dp2601
g7
F-4.4543472962535073
sg8
I1192
sg9
VCHEMBL1782331
p2602
sbag2
(g3
g4
NtRp2603
(dp2604
g7
F-6.0714303287458637
sg8
I1193
sg9
VCHEMBL2103774
p2605
sbag2
(g3
g4
NtRp2606
(dp2607
g7
F1.6094379124341003
sg8
I1194
sg9
VCHEMBL2024377
p2608
sbag2
(g3
g4
NtRp2609
(dp2610
g7
F0.51082562376599072
sg8
I1195
sg9
VCHEMBL2024376
p2611
sbag2
(g3
g4
NtRp2612
(dp2613
g7
F-0.40546510810816438
sg8
I1196
sg9
VCHEMBL2113002
p2614
sbag2
(g3
g4
NtRp2615
(dp2616
g7
F-1.0986122886681098
sg8
I1197
sg9
VCHEMBL2111532
p2617
sbag2
(g3
g4
NtRp2618
(dp2619
g7
F-5.4595855141441589
sg8
I1201
sg9
VCHEMBL2112469
p2620
sbag2
(g3
g4
NtRp2621
(dp2622
g7
F-0.095310179804324935
sg8
I1202
sg9
VCHEMBL2113027
p2623
sbag2
(g3
g4
NtRp2624
(dp2625
g7
F0.030459207484708574
sg8
I1203
sg9
VCHEMBL2113001
p2626
sbag2
(g3
g4
NtRp2627
(dp2628
g7
F-5.6698809229805196
sg8
I1204
sg9
VCHEMBL2071180
p2629
sbag2
(g3
g4
NtRp2630
(dp2631
g7
F-5.1357984370502621
sg8
I1205
sg9
VCHEMBL1208076
p2632
sbag2
(g3
g4
NtRp2633
(dp2634
g7
F-4.5951198501345898
sg8
I1206
sg9
VCHEMBL2403361
p2635
sbag2
(g3
g4
NtRp2636
(dp2637
g7
F-6.1944053911046719
sg8
I1207
sg9
VCHEMBL2403363
p2638
sbag2
(g3
g4
NtRp2639
(dp2640
g7
F-4.7004803657924166
sg8
I1208
sg9
VCHEMBL2403346
p2641
sbag2
(g3
g4
NtRp2642
(dp2643
g7
F-2.6390573296152584
sg8
I1209
sg9
VCHEMBL2403357
p2644
sbag2
(g3
g4
NtRp2645
(dp2646
g7
F-5.4380793089231956
sg8
I1210
sg9
VCHEMBL2403359
p2647
sbag2
(g3
g4
NtRp2648
(dp2649
g7
F-4.4308167988433134
sg8
I1211
sg9
VCHEMBL2403358
p2650
sbag2
(g3
g4
NtRp2651
(dp2652
g7
F-5.4380793089231956
sg8
I1212
sg9
VCHEMBL2403360
p2653
sbag2
(g3
g4
NtRp2654
(dp2655
g7
F-4.8441870864585912
sg8
I1213
sg9
VCHEMBL2401849
p2656
sbag2
(g3
g4
NtRp2657
(dp2658
g7
F-4.3694478524670215
sg8
I1214
sg9
VCHEMBL2403362
p2659
sbag2
(g3
g4
NtRp2660
(dp2661
g7
F-4.2766661190160553
sg8
I1215
sg9
VCHEMBL2403349
p2662
sbag2
(g3
g4
NtRp2663
(dp2664
g7
F-1.589235205116581
sg8
I1216
sg9
VCHEMBL2403356
p2665
sbag2
(g3
g4
NtRp2666
(dp2667
g7
F-5.5134287461649825
sg8
I1217
sg9
VCHEMBL2401848
p2668
sbag2
(g3
g4
NtRp2669
(dp2670
g7
F-4.5849674786705723
sg8
I1218
sg9
VCHEMBL2403348
p2671
sbag2
(g3
g4
NtRp2672
(dp2673
g7
F-4.3040650932041702
sg8
I1219
sg9
VCHEMBL2403347
p2674
sbag2
(g3
g4
NtRp2675
(dp2676
g7
F-3.2188758248682006
sg8
I1220
sg9
VCHEMBL2403355
p2677
sba.