(lp1
ccopy_reg
_reconstructor
p2
(cdatamining.molecule
Molecule
p3
c__builtin__
object
p4
NtRp5
(dp6
S'pIC'
p7
F-2.258633205464863
sS'id'
p8
VCHEMBL219763
p9
sS'activity'
p10
I1
sbag2
(g3
g4
NtRp11
(dp12
g7
F-5.6131281063880705
sg8
VCHEMBL92720
p13
sg10
I1
sbag2
(g3
g4
NtRp14
(dp15
g7
F-3.2108436531709366
sg8
VCHEMBL330307
p16
sg10
I1
sbag2
(g3
g4
NtRp17
(dp18
g7
F-1.791759469228055
sg8
VCHEMBL370037
p19
sg10
I1
sbag2
(g3
g4
NtRp20
(dp21
g7
F-3.5553480614894135
sg8
VCHEMBL315761
p22
sg10
I1
sbag2
(g3
g4
NtRp23
(dp24
g7
F-0.26236426446749106
sg8
VCHEMBL180300
p25
sg10
I1
sbag2
(g3
g4
NtRp26
(dp27
g7
F-4.7361984483944957
sg8
VCHEMBL365290
p28
sg10
I1
sbag2
(g3
g4
NtRp29
(dp30
g7
F-6.2672005485413624
sg8
VCHEMBL191648
p31
sg10
I1
sbag2
(g3
g4
NtRp32
(dp33
g7
F-0.78845736036427028
sg8
VCHEMBL184431
p34
sg10
I1
sbag2
(g3
g4
NtRp35
(dp36
g7
F-6.3261494731550991
sg8
VCHEMBL364551
p37
sg10
I1
sbag2
(g3
g4
NtRp38
(dp39
g7
F-1.6094379124341003
sg8
VCHEMBL124482
p40
sg10
I1
sbag2
(g3
g4
NtRp41
(dp42
g7
F-5.5053315359323625
sg8
VCHEMBL198410
p43
sg10
I1
sbag2
(g3
g4
NtRp44
(dp45
g7
F-1.547562508716013
sg8
VCHEMBL420068
p46
sg10
I1
sbag2
(g3
g4
NtRp47
(dp48
g7
F-4.7273878187123408
sg8
VCHEMBL1200324
p49
sg10
I1
sbag2
(g3
g4
NtRp50
(dp51
g7
F-1.7047480922384253
sg8
VCHEMBL93793
p52
sg10
I1
sbag2
(g3
g4
NtRp53
(dp54
g7
F-1.9169226121820611
sg8
VCHEMBL184448
p55
sg10
I1
sbag2
(g3
g4
NtRp56
(dp57
g7
F-4.8121843553724171
sg8
VCHEMBL195466
p58
sg10
I1
sbag2
(g3
g4
NtRp59
(dp60
g7
F-0
sg8
VCHEMBL183049
p61
sg10
I1
sbag2
(g3
g4
NtRp62
(dp63
g7
F-5.3471075307174685
sg8
VCHEMBL77135
p64
sg10
I1
sbag2
(g3
g4
NtRp65
(dp66
g7
F0.22314355131420971
sg8
VCHEMBL183092
p67
sg10
I1
sbag2
(g3
g4
NtRp68
(dp69
g7
F-5.1929568508902104
sg8
VCHEMBL78413
p70
sg10
I1
sbag2
(g3
g4
NtRp71
(dp72
g7
F-3.0440461338325417
sg8
VCHEMBL316080
p73
sg10
I1
sbag2
(g3
g4
NtRp74
(dp75
g7
F-5.0106352940962555
sg8
VCHEMBL434502
p76
sg10
I1
sbag2
(g3
g4
NtRp77
(dp78
g7
F-3.4965075614664802
sg8
VCHEMBL1628199
p79
sg10
I1
sbag2
(g3
g4
NtRp80
(dp81
g7
F-6.6463905148477291
sg8
VCHEMBL411
p82
sg10
I1
sbag2
(g3
g4
NtRp83
(dp84
g7
F-1.3862943611198906
sg8
VCHEMBL123025
p85
sg10
I1
sbag2
(g3
g4
NtRp86
(dp87
g7
F-5.9322451874480109
sg8
VCHEMBL153062
p88
sg10
I1
sbag2
(g3
g4
NtRp89
(dp90
g7
F-3.6635616461296463
sg8
VCHEMBL83
p91
sg10
I1
sbag2
(g3
g4
NtRp92
(dp93
g7
F-4.0604430105464191
sg8
VCHEMBL34679
p94
sg10
I1
sbag2
(g3
g4
NtRp95
(dp96
g7
F-0.91629073187415511
sg8
VCHEMBL328716
p97
sg10
I1
sbag2
(g3
g4
NtRp98
(dp99
g7
F-1.0986122886681098
sg8
VCHEMBL315271
p100
sg10
I1
sbag2
(g3
g4
NtRp101
(dp102
g7
F-6.5889264775335192
sg8
VCHEMBL188049
p103
sg10
I1
sbag2
(g3
g4
NtRp104
(dp105
g7
F-4.7874917427820458
sg8
VCHEMBL1462307
p106
sg10
I1
sbag2
(g3
g4
NtRp107
(dp108
g7
F-2.5649493574615367
sg8
VCHEMBL1087419
p109
sg10
I1
sbag2
(g3
g4
NtRp110
(dp111
g7
F-5.2470240721604862
sg8
VCHEMBL1087041
p112
sg10
I1
sbag2
(g3
g4
NtRp113
(dp114
g7
F-6.9077552789821368
sg8
VCHEMBL1348802
p115
sg10
I1
sbag2
(g3
g4
NtRp116
(dp117
g7
F-4.2484952420493594
sg8
VCHEMBL1322939
p118
sg10
I1
sbag2
(g3
g4
NtRp119
(dp120
g7
F-0
sg8
VCHEMBL1253498
p121
sg10
I1
sbag2
(g3
g4
NtRp122
(dp123
g7
F-0.58778666490211906
sg8
VCHEMBL184372
p124
sg10
I1
sbag2
(g3
g4
NtRp125
(dp126
g7
F-1.1939224684724346
sg8
VCHEMBL1083186
p127
sg10
I1
sbag2
(g3
g4
NtRp128
(dp129
g7
F-4.1588830833596715
sg8
VCHEMBL1085429
p130
sg10
I1
sbag2
(g3
g4
NtRp131
(dp132
g7
F-1.6094379124341003
sg8
VCHEMBL1084128
p133
sg10
I1
sbag2
(g3
g4
NtRp134
(dp135
g7
F-0.33647223662121289
sg8
VCHEMBL124474
p136
sg10
I1
sbag2
(g3
g4
NtRp137
(dp138
g7
F-3.6109179126442243
sg8
VCHEMBL231811
p139
sg10
I1
sbag2
(g3
g4
NtRp140
(dp141
g7
F-3.2188758248682006
sg8
VCHEMBL385801
p142
sg10
I1
sbag2
(g3
g4
NtRp143
(dp144
g7
F-3.7128400915587796
sg8
VCHEMBL1087682
p145
sg10
I1
sbag2
(g3
g4
NtRp146
(dp147
g7
F-0.47000362924573563
sg8
VCHEMBL1087811
p148
sg10
I1
sbag2
(g3
g4
NtRp149
(dp150
g7
F-2.7725887222397811
sg8
VCHEMBL1086389
p151
sg10
I1
sbag2
(g3
g4
NtRp152
(dp153
g7
F-1.1151415906193203
sg8
VCHEMBL427496
p154
sg10
I1
sbag2
(g3
g4
NtRp155
(dp156
g7
F-5.1059454739005803
sg8
VCHEMBL225404
p157
sg10
I1
sbag2
(g3
g4
NtRp158
(dp159
g7
F-4.5325994931532563
sg8
VCHEMBL222501
p160
sg10
I1
sbag2
(g3
g4
NtRp161
(dp162
g7
F-2.8449093838194073
sg8
VCHEMBL226269
p163
sg10
I1
sbag2
(g3
g4
NtRp164
(dp165
g7
F-6.6463905148477291
sg8
VCHEMBL1081361
p166
sg10
I1
sbag2
(g3
g4
NtRp167
(dp168
g7
F-1.0473189942805592
sg8
VCHEMBL219003
p169
sg10
I1
sbag2
(g3
g4
NtRp170
(dp171
g7
F-0.83290912293510388
sg8
VCHEMBL329902
p172
sg10
I1
sbag2
(g3
g4
NtRp173
(dp174
g7
F-3.970291913552122
sg8
VCHEMBL235496
p175
sg10
I1
sbag2
(g3
g4
NtRp176
(dp177
g7
F-4.0253516907351496
sg8
VCHEMBL235497
p178
sg10
I1
sbag2
(g3
g4
NtRp179
(dp180
g7
F-5.7868973813667077
sg8
VCHEMBL1084913
p181
sg10
I1
sbag2
(g3
g4
NtRp182
(dp183
g7
F-1.1939224684724346
sg8
VCHEMBL1082224
p184
sg10
I1
sbag2
(g3
g4
NtRp185
(dp186
g7
F-1.5686159179138452
sg8
VCHEMBL1083194
p187
sg10
I1
sbag2
(g3
g4
NtRp188
(dp189
g7
F0.51082562376599072
sg8
VCHEMBL184371
p190
sg10
I1
sbag2
(g3
g4
NtRp191
(dp192
g7
F-5.8861040314501558
sg8
VCHEMBL188458
p193
sg10
I1
sbag2
(g3
g4
NtRp194
(dp195
g7
F-5.2781146592305168
sg8
VCHEMBL361272
p196
sg10
I1
sbag2
(g3
g4
NtRp197
(dp198
g7
F-0.91629073187415511
sg8
VCHEMBL431611
p199
sg10
I1
sbag2
(g3
g4
NtRp200
(dp201
g7
F-4.6539603501575231
sg8
VCHEMBL33568
p202
sg10
I1
sbag2
(g3
g4
NtRp203
(dp204
g7
F-2.5649493574615367
sg8
VCHEMBL241257
p205
sg10
I1
sbag2
(g3
g4
NtRp206
(dp207
g7
F-5.1647859739235145
sg8
VCHEMBL396118
p208
sg10
I1
sbag2
(g3
g4
NtRp209
(dp210
g7
F-1.4350845252893227
sg8
VCHEMBL1088344
p211
sg10
I1
sbag2
(g3
g4
NtRp212
(dp213
g7
F-5.4806389233419912
sg8
VCHEMBL150279
p214
sg10
I1
sbag2
(g3
g4
NtRp215
(dp216
g7
F-6.5750758405996201
sg8
VCHEMBL365625
p217
sg10
I1
sbag2
(g3
g4
NtRp218
(dp219
g7
F-6.6528630293533473
sg8
VCHEMBL365016
p220
sg10
I1
sbag2
(g3
g4
NtRp221
(dp222
g7
F-5.0106352940962555
sg8
VCHEMBL398841
p223
sg10
I1
sbag2
(g3
g4
NtRp224
(dp225
g7
F-1.3609765531356006
sg8
VCHEMBL359774
p226
sg10
I1
sbag2
(g3
g4
NtRp227
(dp228
g7
F-3.6635616461296463
sg8
VCHEMBL179929
p229
sg10
I1
sbag2
(g3
g4
NtRp230
(dp231
g7
F-0.64185388617239469
sg8
VCHEMBL470993
p232
sg10
I1
sbag2
(g3
g4
NtRp233
(dp234
g7
F-1.9021075263969205
sg8
VCHEMBL511269
p235
sg10
I1
sbag2
(g3
g4
NtRp236
(dp237
g7
F-2.7850112422383382
sg8
VCHEMBL469512
p238
sg10
I1
sbag2
(g3
g4
NtRp239
(dp240
g7
F-4.5325994931532563
sg8
VCHEMBL470785
p241
sg10
I1
sbag2
(g3
g4
NtRp242
(dp243
g7
F-4.6051701859880918
sg8
VCHEMBL1087289
p244
sg10
I1
sbag2
(g3
g4
NtRp245
(dp246
g7
F-0.91629073187415511
sg8
VCHEMBL1086776
p247
sg10
I1
sbag2
(g3
g4
NtRp248
(dp249
g7
F-2.9449651565003379
sg8
VCHEMBL101382
p250
sg10
I1
sbag2
(g3
g4
NtRp251
(dp252
g7
F-0.53062825106217038
sg8
VCHEMBL185114
p253
sg10
I1
sbag2
(g3
g4
NtRp254
(dp255
g7
F-6.8834625864130921
sg8
VCHEMBL377171
p256
sg10
I1
sbag2
(g3
g4
NtRp257
(dp258
g7
F-3.929862923556477
sg8
VCHEMBL385680
p259
sg10
I1
sbag2
(g3
g4
NtRp260
(dp261
g7
F-6.1820849067166321
sg8
VCHEMBL204902
p262
sg10
I1
sbag2
(g3
g4
NtRp263
(dp264
g7
F-5.4293456289544411
sg8
VCHEMBL206727
p265
sg10
I1
sbag2
(g3
g4
NtRp266
(dp267
g7
F-4.6151205168412597
sg8
VCHEMBL206547
p268
sg10
I1
sbag2
(g3
g4
NtRp269
(dp270
g7
F-2.341805806147327
sg8
VCHEMBL471626
p271
sg10
I1
sbag2
(g3
g4
NtRp272
(dp273
g7
F-4.836281906951478
sg8
VCHEMBL511492
p274
sg10
I1
sbag2
(g3
g4
NtRp275
(dp276
g7
F-4.4308167988433134
sg8
VCHEMBL212992
p277
sg10
I1
sbag2
(g3
g4
NtRp278
(dp279
g7
F-3.3322045101752038
sg8
VCHEMBL93792
p280
sg10
I1
sbag2
(g3
g4
NtRp281
(dp282
g7
F-4.836281906951478
sg8
VCHEMBL196836
p283
sg10
I1
sbag2
(g3
g4
NtRp284
(dp285
g7
F-4.5108595065168497
sg8
VCHEMBL25228
p286
sg10
I1
sbag2
(g3
g4
NtRp287
(dp288
g7
F-4.2710950739665998
sg8
VCHEMBL219390
p289
sg10
I1
sbag2
(g3
g4
NtRp290
(dp291
g7
F-3.912023005428146
sg8
VCHEMBL328675
p292
sg10
I1
sbag2
(g3
g4
NtRp293
(dp294
g7
F-5.2257466737132017
sg8
VCHEMBL194326
p295
sg10
I1
sbag2
(g3
g4
NtRp296
(dp297
g7
F-6.3403593037277517
sg8
VCHEMBL209269
p298
sg10
I1
sbag2
(g3
g4
NtRp299
(dp300
g7
F-6.8341087388138382
sg8
VCHEMBL33888
p301
sg10
I1
sbag2
(g3
g4
NtRp302
(dp303
g7
F-1.7749523509116738
sg8
VCHEMBL93586
p304
sg10
I1
sbag2
(g3
g4
NtRp305
(dp306
g7
F-3.4330189939851112
sg8
VCHEMBL328388
p307
sg10
I1
sbag2
(g3
g4
NtRp308
(dp309
g7
F-1.3660916538023711
sg8
VCHEMBL385993
p310
sg10
I1
sbag2
(g3
g4
NtRp311
(dp312
g7
F-3.8286413964890951
sg8
VCHEMBL523477
p313
sg10
I1
sbag2
(g3
g4
NtRp314
(dp315
g7
F-3.6888794541139363
sg8
VCHEMBL191300
p316
sg10
I1
sbag2
(g3
g4
NtRp317
(dp318
g7
F-4.0604430105464191
sg8
VCHEMBL447837
p319
sg10
I1
sbag2
(g3
g4
NtRp320
(dp321
g7
F-1.547562508716013
sg8
VCHEMBL94280
p322
sg10
I1
sbag2
(g3
g4
NtRp323
(dp324
g7
F-6.6592939196836376
sg8
VCHEMBL187314
p325
sg10
I1
sbag2
(g3
g4
NtRp326
(dp327
g7
F-3.3032169733019514
sg8
VCHEMBL371308
p328
sg10
I1
sbag2
(g3
g4
NtRp329
(dp330
g7
F-3.5835189384561099
sg8
VCHEMBL191710
p331
sg10
I1
sbag2
(g3
g4
NtRp332
(dp333
g7
F-0.99325177301028345
sg8
VCHEMBL313941
p334
sg10
I1
sbag2
(g3
g4
NtRp335
(dp336
g7
F-5.8749307308520304
sg8
VCHEMBL426085
p337
sg10
I1
sbag2
(g3
g4
NtRp338
(dp339
g7
F-5.7930136083841441
sg8
VCHEMBL202691
p340
sg10
I1
sbag2
(g3
g4
NtRp341
(dp342
g7
F-6.1758672701057611
sg8
VCHEMBL211493
p343
sg10
I1
sbag2
(g3
g4
NtRp344
(dp345
g7
F-6.7833252006039597
sg8
VCHEMBL377475
p346
sg10
I1
sbag2
(g3
g4
NtRp347
(dp348
g7
F-6.4409465406329209
sg8
VCHEMBL204024
p349
sg10
I1
sbag2
(g3
g4
NtRp350
(dp351
g7
F0.51082562376599072
sg8
VCHEMBL183333
p352
sg10
I1
sbag2
(g3
g4
NtRp353
(dp354
g7
F-0
sg8
VCHEMBL185231
p355
sg10
I1
sbag2
(g3
g4
NtRp356
(dp357
g7
F-3.4404180948154366
sg8
VCHEMBL382734
p358
sg10
I1
sbag2
(g3
g4
NtRp359
(dp360
g7
F-4.6913478822291435
sg8
VCHEMBL195807
p361
sg10
I1
sbag2
(g3
g4
NtRp362
(dp363
g7
F-6.1944053911046719
sg8
VCHEMBL31127
p364
sg10
I1
sbag2
(g3
g4
NtRp365
(dp366
g7
F0.69314718055994529
sg8
VCHEMBL198914
p367
sg10
I1
sbag2
(g3
g4
NtRp368
(dp369
g7
F0.916290731874155
sg8
VCHEMBL372808
p370
sg10
I1
sbag2
(g3
g4
NtRp371
(dp372
g7
F0.51082562376599072
sg8
VCHEMBL197495
p373
sg10
I1
sbag2
(g3
g4
NtRp374
(dp375
g7
F-4.8283137373023015
sg8
VCHEMBL191901
p376
sg10
I1
sbag2
(g3
g4
NtRp377
(dp378
g7
F-3.6888794541139363
sg8
VCHEMBL214207
p379
sg10
I1
sbag2
(g3
g4
NtRp380
(dp381
g7
F-3.6375861597263857
sg8
VCHEMBL195216
p382
sg10
I1
sbag2
(g3
g4
NtRp383
(dp384
g7
F-0
sg8
VCHEMBL241301
p385
sg10
I1
sbag2
(g3
g4
NtRp386
(dp387
g7
F-2.5649493574615367
sg8
VCHEMBL241304
p388
sg10
I1
sbag2
(g3
g4
NtRp389
(dp390
g7
F-3.0910424533583161
sg8
VCHEMBL241485
p391
sg10
I1
sbag2
(g3
g4
NtRp392
(dp393
g7
F-1.3862943611198906
sg8
VCHEMBL437190
p394
sg10
I1
sbag2
(g3
g4
NtRp395
(dp396
g7
F-3.6381123370602833
sg8
VCHEMBL101083
p397
sg10
I1
sbag2
(g3
g4
NtRp398
(dp399
g7
F-1.9459101490553132
sg8
VCHEMBL50995
p400
sg10
I1
sbag2
(g3
g4
NtRp401
(dp402
g7
F-0.26236426446749106
sg8
VCHEMBL182402
p403
sg10
I1
sbag2
(g3
g4
NtRp404
(dp405
g7
F-4.9344739331306915
sg8
VCHEMBL188391
p406
sg10
I1
sbag2
(g3
g4
NtRp407
(dp408
g7
F0.22314355131420971
sg8
VCHEMBL184598
p409
sg10
I1
sbag2
(g3
g4
NtRp410
(dp411
g7
F-0.33647223662121289
sg8
VCHEMBL360315
p412
sg10
I1
sbag2
(g3
g4
NtRp413
(dp414
g7
F-4.0073331852324712
sg8
VCHEMBL371777
p415
sg10
I1
sbag2
(g3
g4
NtRp416
(dp417
g7
F-2.8903717578961645
sg8
VCHEMBL126164
p418
sg10
I1
sbag2
(g3
g4
NtRp419
(dp420
g7
F-2.9856819377004897
sg8
VCHEMBL101719
p421
sg10
I1
sbag2
(g3
g4
NtRp422
(dp423
g7
F-4.7184988712950942
sg8
VCHEMBL328475
p424
sg10
I1
sbag2
(g3
g4
NtRp425
(dp426
g7
F-1.2527629684953681
sg8
VCHEMBL94225
p427
sg10
I1
sbag2
(g3
g4
NtRp428
(dp429
g7
F-6.7844570626376433
sg8
VCHEMBL195786
p430
sg10
I1
sbag2
(g3
g4
NtRp431
(dp432
g7
F-5.393627546352362
sg8
VCHEMBL441366
p433
sg10
I1
sbag2
(g3
g4
NtRp434
(dp435
g7
F-6.7979404129749303
sg8
VCHEMBL384709
p436
sg10
I1
sbag2
(g3
g4
NtRp437
(dp438
g7
F-5.2094861528414214
sg8
VCHEMBL189080
p439
sg10
I1
sbag2
(g3
g4
NtRp440
(dp441
g7
F1.5141277326297755
sg8
VCHEMBL180707
p442
sg10
I1
sbag2
(g3
g4
NtRp443
(dp444
g7
F-5.1873858058407549
sg8
VCHEMBL285632
p445
sg10
I1
sbag2
(g3
g4
NtRp446
(dp447
g7
F-5.8141305318250662
sg8
VCHEMBL362272
p448
sg10
I1
sbag2
(g3
g4
NtRp449
(dp450
g7
F0.35667494393873245
sg8
VCHEMBL367574
p451
sg10
I1
sbag2
(g3
g4
NtRp452
(dp453
g7
F-5.598421958998375
sg8
VCHEMBL438516
p454
sg10
I1
sbag2
(g3
g4
NtRp455
(dp456
g7
F0.52763274208237199
sg8
VCHEMBL219004
p457
sg10
I1
sbag2
(g3
g4
NtRp458
(dp459
g7
F-4.1431347263915326
sg8
VCHEMBL195212
p460
sg10
I1
sbag2
(g3
g4
NtRp461
(dp462
g7
F-3.6888794541139363
sg8
VCHEMBL425439
p463
sg10
I1
sbag2
(g3
g4
NtRp464
(dp465
g7
F-4.8097423517168654
sg8
VCHEMBL93266
p466
sg10
I1
sbag2
(g3
g4
NtRp467
(dp468
g7
F-4.5538768916005408
sg8
VCHEMBL395308
p469
sg10
I1
sbag2
(g3
g4
NtRp470
(dp471
g7
F-3.044522437723423
sg8
VCHEMBL394788
p472
sg10
I1
sbag2
(g3
g4
NtRp473
(dp474
g7
F-3.5835189384561099
sg8
VCHEMBL245133
p475
sg10
I1
sbag2
(g3
g4
NtRp476
(dp477
g7
F-3.3662608117812591
sg8
VCHEMBL101807
p478
sg10
I1
sbag2
(g3
g4
NtRp479
(dp480
g7
F-4.7273878187123408
sg8
VCHEMBL195208
p481
sg10
I1
sbag2
(g3
g4
NtRp482
(dp483
g7
F-1.0986122886681098
sg8
VCHEMBL183584
p484
sg10
I1
sbag2
(g3
g4
NtRp485
(dp486
g7
F-6.1092475827643655
sg8
VCHEMBL8145
p487
sg10
I1
sbag2
(g3
g4
NtRp488
(dp489
g7
F-3.912023005428146
sg8
VCHEMBL435090
p490
sg10
I1
sbag2
(g3
g4
NtRp491
(dp492
g7
F-2.8903717578961645
sg8
VCHEMBL1201151
p493
sg10
I1
sbag2
(g3
g4
NtRp494
(dp495
g7
F-0.076961041136128394
sg8
VCHEMBL366928
p496
sg10
I1
sbag2
(g3
g4
NtRp497
(dp498
g7
F-3.8914120515240218
sg8
VCHEMBL103305
p499
sg10
I1
sbag2
(g3
g4
NtRp500
(dp501
g7
F-6.9077552789821368
sg8
VCHEMBL311662
p502
sg10
I1
sbag2
(g3
g4
NtRp503
(dp504
g7
F-6.2519038831658884
sg8
VCHEMBL192068
p505
sg10
I1
sbag2
(g3
g4
NtRp506
(dp507
g7
F-5.6094717951849598
sg8
VCHEMBL360651
p508
sg10
I1
sbag2
(g3
g4
NtRp509
(dp510
g7
F-3.1780538303479458
sg8
VCHEMBL195878
p511
sg10
I1
sbag2
(g3
g4
NtRp512
(dp513
g7
F-0.75141608868392118
sg8
VCHEMBL182237
p514
sg10
I1
sbag2
(g3
g4
NtRp515
(dp516
g7
F-0.18232155679395459
sg8
VCHEMBL183086
p517
sg10
I1
sbag2
(g3
g4
NtRp518
(dp519
g7
F-3.8066624897703196
sg8
VCHEMBL426641
p520
sg10
I1
sbag2
(g3
g4
NtRp521
(dp522
g7
F-4.2341065045972597
sg8
VCHEMBL195465
p523
sg10
I1
sbag2
(g3
g4
NtRp524
(dp525
g7
F-6.0161571596983539
sg8
VCHEMBL374799
p526
sg10
I1
sbag2
(g3
g4
NtRp527
(dp528
g7
F-5.7203117766074119
sg8
VCHEMBL225349
p529
sg10
I1
sbag2
(g3
g4
NtRp530
(dp531
g7
F-2.8903717578961645
sg8
VCHEMBL222434
p532
sg10
I1
sbag2
(g3
g4
NtRp533
(dp534
g7
F-2.8903717578961645
sg8
VCHEMBL373743
p535
sg10
I1
sbag2
(g3
g4
NtRp536
(dp537
g7
F-3.970291913552122
sg8
VCHEMBL451496
p538
sg10
I1
sbag2
(g3
g4
NtRp539
(dp540
g7
F-5.9295891433898946
sg8
VCHEMBL186643
p541
sg10
I1
sbag2
(g3
g4
NtRp542
(dp543
g7
F-0.40546510810816438
sg8
VCHEMBL362718
p544
sg10
I1
sbag2
(g3
g4
NtRp545
(dp546
g7
F-6.7452363494843626
sg8
VCHEMBL74758
p547
sg10
I1
sbag2
(g3
g4
NtRp548
(dp549
g7
F-0.47000362924573563
sg8
VCHEMBL418327
p550
sg10
I1
sbag2
(g3
g4
NtRp551
(dp552
g7
F-6.1944053911046719
sg8
VCHEMBL83451
p553
sg10
I1
sbag2
(g3
g4
NtRp554
(dp555
g7
F-5.1929568508902104
sg8
VCHEMBL77609
p556
sg10
I1
sbag2
(g3
g4
NtRp557
(dp558
g7
F-5.5606816310155276
sg8
VCHEMBL187207
p559
sg10
I1
sbag2
(g3
g4
NtRp560
(dp561
g7
F-3.8918202981106265
sg8
VCHEMBL284453
p562
sg10
I1
sbag2
(g3
g4
NtRp563
(dp564
g7
F0.35667494393873245
sg8
VCHEMBL181248
p565
sg10
I1
sbag2
(g3
g4
NtRp566
(dp567
g7
F0.10536051565782628
sg8
VCHEMBL183371
p568
sg10
I1
sbag2
(g3
g4
NtRp569
(dp570
g7
F-4.0604430105464191
sg8
VCHEMBL439806
p571
sg10
I1
sbag2
(g3
g4
NtRp572
(dp573
g7
F-3.8066624897703196
sg8
VCHEMBL180538
p574
sg10
I1
sbag2
(g3
g4
NtRp575
(dp576
g7
F-2.6390573296152584
sg8
VCHEMBL30950
p577
sg10
I1
sbag2
(g3
g4
NtRp578
(dp579
g7
F-1.2809338454620642
sg8
VCHEMBL121879
p580
sg10
I1
sbag2
(g3
g4
NtRp581
(dp582
g7
F-5.2203558250783244
sg8
VCHEMBL427533
p583
sg10
I1
sbag2
(g3
g4
NtRp584
(dp585
g7
F-2.3025850929940459
sg8
VCHEMBL373095
p586
sg10
I1
sbag2
(g3
g4
NtRp587
(dp588
g7
F-5.0751738152338266
sg8
VCHEMBL93207
p589
sg10
I1
sbag2
(g3
g4
NtRp590
(dp591
g7
F-0.33647223662121289
sg8
VCHEMBL178470
p592
sg10
I1
sbag2
(g3
g4
NtRp593
(dp594
g7
F-0.69314718055994529
sg8
VCHEMBL185480
p595
sg10
I1
sbag2
(g3
g4
NtRp596
(dp597
g7
F-3.2958368660043291
sg8
VCHEMBL389683
p598
sg10
I1
sbag2
(g3
g4
NtRp599
(dp600
g7
F-6.5012896705403893
sg8
VCHEMBL449038
p601
sg10
I1
sbag2
(g3
g4
NtRp602
(dp603
g7
F-4.7184988712950942
sg8
VCHEMBL225022
p604
sg10
I1
sbag2
(g3
g4
NtRp605
(dp606
g7
F-6.0935697700451357
sg8
VCHEMBL389393
p607
sg10
I1
sbag2
(g3
g4
NtRp608
(dp609
g7
F-4.499809670330265
sg8
VCHEMBL218220
p610
sg10
I1
sbag2
(g3
g4
NtRp611
(dp612
g7
F-0.69314718055994529
sg8
VCHEMBL360802
p613
sg10
I1
sbag2
(g3
g4
NtRp614
(dp615
g7
F-1.4816045409242156
sg8
VCHEMBL332625
p616
sg10
I1
sbag2
(g3
g4
NtRp617
(dp618
g7
F-5.5834963087816991
sg8
VCHEMBL194936
p619
sg10
I1
sbag2
(g3
g4
NtRp620
(dp621
g7
F-5.3471075307174685
sg8
VCHEMBL192154
p622
sg10
I1
sbag2
(g3
g4
NtRp623
(dp624
g7
F-0.26236426446749106
sg8
VCHEMBL91758
p625
sg10
I1
sbag2
(g3
g4
NtRp626
(dp627
g7
F-0.47000362924573563
sg8
VCHEMBL71584
p628
sg10
I1
sbag2
(g3
g4
NtRp629
(dp630
g7
F-0.26236426446749106
sg8
VCHEMBL433581
p631
sg10
I1
sbag2
(g3
g4
NtRp632
(dp633
g7
F-3.5251833614431467
sg8
VCHEMBL100617
p634
sg10
I1
sbag2
(g3
g4
NtRp635
(dp636
g7
F-4.2621163380013236
sg8
VCHEMBL434346
p637
sg10
I1
sbag2
(g3
g4
NtRp638
(dp639
g7
F-4.2626798770413155
sg8
VCHEMBL33890
p640
sg10
I1
sbag2
(g3
g4
NtRp641
(dp642
g7
F-0.91629073187415511
sg8
VCHEMBL359671
p643
sg10
I1
sbag2
(g3
g4
NtRp644
(dp645
g7
F-6.7696419768525029
sg8
VCHEMBL204664
p646
sg10
I1
sbag2
(g3
g4
NtRp647
(dp648
g7
F-6.7214257007906433
sg8
VCHEMBL425399
p649
sg10
I1
sbag2
(g3
g4
NtRp650
(dp651
g7
F-6.9077552789821368
sg8
VCHEMBL201364
p652
sg10
I1
sbag2
(g3
g4
NtRp653
(dp654
g7
F-5.2729995585637468
sg8
VCHEMBL381298
p655
sg10
I1
sbag2
(g3
g4
NtRp656
(dp657
g7
F-6.1484682959176471
sg8
VCHEMBL204025
p658
sg10
I1
sbag2
(g3
g4
NtRp659
(dp660
g7
F-3.7376696182833684
sg8
VCHEMBL264655
p661
sg10
I1
sbag2
(g3
g4
NtRp662
(dp663
g7
F-3.2580965380214821
sg8
VCHEMBL202500
p664
sg10
I1
sbag2
(g3
g4
NtRp665
(dp666
g7
F-2.5649493574615367
sg8
VCHEMBL202615
p667
sg10
I1
sbag2
(g3
g4
NtRp668
(dp669
g7
F-5.768320995793772
sg8
VCHEMBL201013
p670
sg10
I1
sbag2
(g3
g4
NtRp671
(dp672
g7
F-5.9480349891806457
sg8
VCHEMBL385279
p673
sg10
I1
sbag2
(g3
g4
NtRp674
(dp675
g7
F-6.0776422433490342
sg8
VCHEMBL219387
p676
sg10
I1
sbag2
(g3
g4
NtRp677
(dp678
g7
F-1.2237754316221157
sg8
VCHEMBL90794
p679
sg10
I1
sbag2
(g3
g4
NtRp680
(dp681
g7
F-2.8903717578961645
sg8
VCHEMBL195371
p682
sg10
I1
sbag2
(g3
g4
NtRp683
(dp684
g7
F-3.8501476017100584
sg8
VCHEMBL187915
p685
sg10
I1
sbag2
(g3
g4
NtRp686
(dp687
g7
F-4.5108595065168497
sg8
VCHEMBL364092
p688
sg10
I1
sbag2
(g3
g4
NtRp689
(dp690
g7
F-3.0007198150650303
sg8
VCHEMBL93826
p691
sg10
I1
sbag2
(g3
g4
NtRp692
(dp693
g7
F-3.0910424533583161
sg8
VCHEMBL193726
p694
sg10
I1
sbag2
(g3
g4
NtRp695
(dp696
g7
F-1.6486586255873816
sg8
VCHEMBL420244
p697
sg10
I1
sbag2
(g3
g4
NtRp698
(dp699
g7
F-4.5849674786705723
sg8
VCHEMBL192218
p700
sg10
I1
sbag2
(g3
g4
NtRp701
(dp702
g7
F-0.3293037471426003
sg8
VCHEMBL441499
p703
sg10
I1
sbag2
(g3
g4
NtRp704
(dp705
g7
F-4.6634390941120669
sg8
VCHEMBL426461
p706
sg10
I1
sbag2
(g3
g4
NtRp707
(dp708
g7
F-0.91629073187415511
sg8
VCHEMBL183084
p709
sg10
I1
sbag2
(g3
g4
NtRp710
(dp711
g7
F-6.2897155709089976
sg8
VCHEMBL187000
p712
sg10
I1
sbag2
(g3
g4
NtRp713
(dp714
g7
F-5.4680601411351315
sg8
VCHEMBL206584
p715
sg10
I1
sbag2
(g3
g4
NtRp716
(dp717
g7
F-4.3040650932041702
sg8
VCHEMBL203565
p718
sg10
I1
sbag2
(g3
g4
NtRp719
(dp720
g7
F-3.9889840465642745
sg8
VCHEMBL382598
p721
sg10
I1
sbag2
(g3
g4
NtRp722
(dp723
g7
F-4.4067192472642533
sg8
VCHEMBL385358
p724
sg10
I1
sbag2
(g3
g4
NtRp725
(dp726
g7
F-4.3694478524670215
sg8
VCHEMBL383533
p727
sg10
I1
sbag2
(g3
g4
NtRp728
(dp729
g7
F-4.3820266346738812
sg8
VCHEMBL219577
p730
sg10
I1
sbag2
(g3
g4
NtRp731
(dp732
g7
F-0
sg8
VCHEMBL391910
p733
sg10
I1
sbag2
(g3
g4
NtRp734
(dp735
g7
F-2.0794415416798357
sg8
VCHEMBL241303
p736
sg10
I1
sbag2
(g3
g4
NtRp737
(dp738
g7
F-2.9957322735539909
sg8
VCHEMBL240227
p739
sg10
I1
sbag2
(g3
g4
NtRp740
(dp741
g7
F0.41551544396166579
sg8
VCHEMBL362428
p742
sg10
I1
sbag2
(g3
g4
NtRp743
(dp744
g7
F0.69314718055994529
sg8
VCHEMBL367350
p745
sg10
I1
sbag2
(g3
g4
NtRp746
(dp747
g7
F0.35667494393873245
sg8
VCHEMBL434525
p748
sg10
I1
sbag2
(g3
g4
NtRp749
(dp750
g7
F-4.6728288344619058
sg8
VCHEMBL365999
p751
sg10
I1
sbag2
(g3
g4
NtRp752
(dp753
g7
F-4.5429755823949733
sg8
VCHEMBL323119
p754
sg10
I1
sbag2
(g3
g4
NtRp755
(dp756
g7
F-5.3565862746720123
sg8
VCHEMBL198411
p757
sg10
I1
sbag2
(g3
g4
NtRp758
(dp759
g7
F-6.0661080901037474
sg8
VCHEMBL186945
p760
sg10
I1
sbag2
(g3
g4
NtRp761
(dp762
g7
F-6.1202974189509503
sg8
VCHEMBL197667
p763
sg10
I1
sbag2
(g3
g4
NtRp764
(dp765
g7
F-6.3919171133926023
sg8
VCHEMBL206406
p766
sg10
I1
sbag2
(g3
g4
NtRp767
(dp768
g7
F-5.4161004022044201
sg8
VCHEMBL381697
p769
sg10
I1
sbag2
(g3
g4
NtRp770
(dp771
g7
F-5.0689042022202315
sg8
VCHEMBL204922
p772
sg10
I1
sbag2
(g3
g4
NtRp773
(dp774
g7
F-6.4831073514571989
sg8
VCHEMBL206600
p775
sg10
I1
sbag2
(g3
g4
NtRp776
(dp777
g7
F-6.1903154058531475
sg8
VCHEMBL206227
p778
sg10
I1
sbag2
(g3
g4
NtRp779
(dp780
g7
F-4.5325994931532563
sg8
VCHEMBL211816
p781
sg10
I1
sbag2
(g3
g4
NtRp782
(dp783
g7
F-5.8861040314501558
sg8
VCHEMBL208929
p784
sg10
I1
sbag2
(g3
g4
NtRp785
(dp786
g7
F-6.1527326947041043
sg8
VCHEMBL209623
p787
sg10
I1
sbag2
(g3
g4
NtRp788
(dp789
g7
F-4.4067192472642533
sg8
VCHEMBL211887
p790
sg10
I1
sbag2
(g3
g4
NtRp791
(dp792
g7
F0.69314718055994529
sg8
VCHEMBL181862
p793
sg10
I1
sbag2
(g3
g4
NtRp794
(dp795
g7
F0.35667494393873245
sg8
VCHEMBL184202
p796
sg10
I1
sbag2
(g3
g4
NtRp797
(dp798
g7
F-6.1985600140005843
sg8
VCHEMBL1096975
p799
sg10
I1
sbag2
(g3
g4
NtRp800
(dp801
g7
F-6.6656837177824082
sg8
VCHEMBL205934
p802
sg10
I1
sbag2
(g3
g4
NtRp803
(dp804
g7
F-5.8141305318250662
sg8
VCHEMBL381337
p805
sg10
I1
sbag2
(g3
g4
NtRp806
(dp807
g7
F-5.181783550292085
sg8
VCHEMBL206814
p808
sg10
I1
sbag2
(g3
g4
NtRp809
(dp810
g7
F-5.7004435733906869
sg8
VCHEMBL191238
p811
sg10
I1
sbag2
(g3
g4
NtRp812
(dp813
g7
F-1.3862943611198906
sg8
VCHEMBL1358
p814
sg10
I1
sbag2
(g3
g4
NtRp815
(dp816
g7
F-5.768320995793772
sg8
VCHEMBL77620
p817
sg10
I1
sbag2
(g3
g4
NtRp818
(dp819
g7
F-3.044522437723423
sg8
VCHEMBL331996
p820
sg10
I1
sbag2
(g3
g4
NtRp821
(dp822
g7
F-3.2580965380214821
sg8
VCHEMBL363634
p823
sg10
I1
sbag2
(g3
g4
NtRp824
(dp825
g7
F-3.4330189939851112
sg8
VCHEMBL101997
p826
sg10
I1
sbag2
(g3
g4
NtRp827
(dp828
g7
F-5.575949103146316
sg8
VCHEMBL185890
p829
sg10
I1
sbag2
(g3
g4
NtRp830
(dp831
g7
F0.916290731874155
sg8
VCHEMBL185083
p832
sg10
I1
sbag2
(g3
g4
NtRp833
(dp834
g7
F-3.5553480614894135
sg8
VCHEMBL24950
p835
sg10
I1
sbag2
(g3
g4
NtRp836
(dp837
g7
F-6.0258659738253142
sg8
VCHEMBL373987
p838
sg10
I1
sbag2
(g3
g4
NtRp839
(dp840
g7
F-6.4052284580308418
sg8
VCHEMBL213950
p841
sg10
I1
sbag2
(g3
g4
NtRp842
(dp843
g7
F-3.2958368660043291
sg8
VCHEMBL389907
p844
sg10
I1
sbag2
(g3
g4
NtRp845
(dp846
g7
F-6.3315018498936908
sg8
VCHEMBL316292
p847
sg10
I1
sbag2
(g3
g4
NtRp848
(dp849
g7
F-5.8377304471659395
sg8
VCHEMBL363633
p850
sg10
I1
sbag2
(g3
g4
NtRp851
(dp852
g7
F-2.4849066497880004
sg8
VCHEMBL182850
p853
sg10
I1
sbag2
(g3
g4
NtRp854
(dp855
g7
F-0.53062825106217038
sg8
VCHEMBL361751
p856
sg10
I1
sbag2
(g3
g4
NtRp857
(dp858
g7
F-5.0814043649844631
sg8
VCHEMBL188189
p859
sg10
I1
sbag2
(g3
g4
NtRp860
(dp861
g7
F-3.3945083935113587
sg8
VCHEMBL412907
p862
sg10
I1
sbag2
(g3
g4
NtRp863
(dp864
g7
F-4.1743872698956368
sg8
VCHEMBL316003
p865
sg10
I1
sbag2
(g3
g4
NtRp866
(dp867
g7
F-4.219507705176107
sg8
VCHEMBL33808
p868
sg10
I1
sbag2
(g3
g4
NtRp869
(dp870
g7
F-3.1780538303479458
sg8
VCHEMBL360410
p871
sg10
I1
sbag2
(g3
g4
NtRp872
(dp873
g7
F-6.4488893941468577
sg8
VCHEMBL196530
p874
sg10
I1
sbag2
(g3
g4
NtRp875
(dp876
g7
F-5.7589017738772803
sg8
VCHEMBL203810
p877
sg10
I1
sbag2
(g3
g4
NtRp878
(dp879
g7
F-6.0161571596983539
sg8
VCHEMBL203061
p880
sg10
I1
sbag2
(g3
g4
NtRp881
(dp882
g7
F-5.1929568508902104
sg8
VCHEMBL440283
p883
sg10
I1
sbag2
(g3
g4
NtRp884
(dp885
g7
F0.69314718055994529
sg8
VCHEMBL359633
p886
sg10
I1
sbag2
(g3
g4
NtRp887
(dp888
g7
F-6.2952660014396464
sg8
VCHEMBL83060
p889
sg10
I1
sbag2
(g3
g4
NtRp890
(dp891
g7
F-4.5432947822700038
sg8
VCHEMBL1627356
p892
sg10
I1
sbag2
(g3
g4
NtRp893
(dp894
g7
F-4.4426512564903167
sg8
VCHEMBL1087288
p895
sg10
I1
sbag2
(g3
g4
NtRp896
(dp897
g7
F-0.78845736036427028
sg8
VCHEMBL1087545
p898
sg10
I1
sbag2
(g3
g4
NtRp899
(dp900
g7
F-1.7578579175523736
sg8
VCHEMBL1087298
p901
sg10
I1
sbag2
(g3
g4
NtRp902
(dp903
g7
F-1.8405496333974869
sg8
VCHEMBL1086652
p904
sg10
I1
sbag2
(g3
g4
NtRp905
(dp906
g7
F-6.2106000770246528
sg8
VCHEMBL184003
p907
sg10
I1
sbag2
(g3
g4
NtRp908
(dp909
g7
F-6.6883547139467616
sg8
VCHEMBL182751
p910
sg10
I1
sbag2
(g3
g4
NtRp911
(dp912
g7
F-6.0234475929610332
sg8
VCHEMBL33230
p913
sg10
I1
sbag2
(g3
g4
NtRp914
(dp915
g7
F-3.7612001156935624
sg8
VCHEMBL491705
p916
sg10
I1
sbag2
(g3
g4
NtRp917
(dp918
g7
F-1.7578579175523736
sg8
VCHEMBL1088343
p919
sg10
I1
sbag2
(g3
g4
NtRp920
(dp921
g7
F-6.9077552789821368
sg8
VCHEMBL1086388
p922
sg10
I1
sbag2
(g3
g4
NtRp923
(dp924
g7
F-5.1929568508902104
sg8
VCHEMBL1082529
p925
sg10
I1
sbag2
(g3
g4
NtRp926
(dp927
g7
F-3.7612001156935624
sg8
VCHEMBL192876
p928
sg10
I1
sbag2
(g3
g4
NtRp929
(dp930
g7
F-5.0875963352323836
sg8
VCHEMBL192055
p931
sg10
I1
sbag2
(g3
g4
NtRp932
(dp933
g7
F-2.5649493574615367
sg8
VCHEMBL1084127
p934
sg10
I1
sbag2
(g3
g4
NtRp935
(dp936
g7
F0.80296204656715187
sg8
VCHEMBL691
p937
sg10
I1
sbag2
(g3
g4
NtRp938
(dp939
g7
F-5.0434251169192468
sg8
VCHEMBL340111
p940
sg10
I1
sbag2
(g3
g4
NtRp941
(dp942
g7
F-1.3862943611198906
sg8
VCHEMBL92635
p943
sg10
I1
sbag2
(g3
g4
NtRp944
(dp945
g7
F-0.91629073187415511
sg8
VCHEMBL181944
p946
sg10
I1
sbag2
(g3
g4
NtRp947
(dp948
g7
F-1.0986122886681098
sg8
VCHEMBL85650
p949
sg10
I1
sbag2
(g3
g4
NtRp950
(dp951
g7
F0.10536051565782628
sg8
VCHEMBL183388
p952
sg10
I1
sbag2
(g3
g4
NtRp953
(dp954
g7
F-4.8598124043616719
sg8
VCHEMBL211614
p955
sg10
I1
sbag2
(g3
g4
NtRp956
(dp957
g7
F-4.9487598903781684
sg8
VCHEMBL214693
p958
sg10
I1
sbag2
(g3
g4
NtRp959
(dp960
g7
F-4.9052747784384296
sg8
VCHEMBL44
p961
sg10
I1
sbag2
(g3
g4
NtRp962
(dp963
g7
F-3.9396381724611196
sg8
VCHEMBL196283
p964
sg10
I1
sbag2
(g3
g4
NtRp965
(dp966
g7
F-6.3062752869480159
sg8
VCHEMBL195154
p967
sg10
I1
sbag2
(g3
g4
NtRp968
(dp969
g7
F-3.8286413964890951
sg8
VCHEMBL363498
p970
sg10
I1
sbag2
(g3
g4
NtRp971
(dp972
g7
F-5.0937502008067623
sg8
VCHEMBL183368
p973
sg10
I1
sbag2
(g3
g4
NtRp974
(dp975
g7
F-4.0604430105464191
sg8
VCHEMBL215409
p976
sg10
I1
sbag2
(g3
g4
NtRp977
(dp978
g7
F-3.8958936234982624
sg8
VCHEMBL384268
p979
sg10
I1
sbag2
(g3
g4
NtRp980
(dp981
g7
F-5.1059454739005803
sg8
VCHEMBL313849
p982
sg10
I1
sbag2
(g3
g4
NtRp983
(dp984
g7
F-6.3919171133926023
sg8
VCHEMBL203348
p985
sg10
I1
sbag2
(g3
g4
NtRp986
(dp987
g7
F-2.8903717578961645
sg8
VCHEMBL371072
p988
sg10
I1
sbag2
(g3
g4
NtRp989
(dp990
g7
F1.3093333199837622
sg8
VCHEMBL180873
p991
sg10
I1
sbag2
(g3
g4
NtRp992
(dp993
g7
F-4.8040210447332568
sg8
VCHEMBL191711
p994
sg10
I1
sbag2
(g3
g4
NtRp995
(dp996
g7
F-4.5643481914678361
sg8
VCHEMBL225081
p997
sg10
I1
sbag2
(g3
g4
NtRp998
(dp999
g7
F-5.0434251169192468
sg8
VCHEMBL231812
p1000
sg10
I1
sbag2
(g3
g4
NtRp1001
(dp1002
g7
F-0
sg8
VCHEMBL182887
p1003
sg10
I1
sbag2
(g3
g4
NtRp1004
(dp1005
g7
F-1.4586150226995167
sg8
VCHEMBL281499
p1006
sg10
I1
sbag2
(g3
g4
NtRp1007
(dp1008
g7
F-1.2809338454620642
sg8
VCHEMBL386948
p1009
sg10
I1
sbag2
(g3
g4
NtRp1010
(dp1011
g7
F-4.8751973232011512
sg8
VCHEMBL362966
p1012
sg10
I1
sbag2
(g3
g4
NtRp1013
(dp1014
g7
F-4.7957905455967413
sg8
VCHEMBL380359
p1015
sg10
I1
sbag2
(g3
g4
NtRp1016
(dp1017
g7
F-4.9836066217083363
sg8
VCHEMBL213337
p1018
sg10
I1
sbag2
(g3
g4
NtRp1019
(dp1020
g7
F-6.6758232216348476
sg8
VCHEMBL385693
p1021
sg10
I1
sbag2
(g3
g4
NtRp1022
(dp1023
g7
F-1.1314021114911006
sg8
VCHEMBL192765
p1024
sg10
I1
sbag2
(g3
g4
NtRp1025
(dp1026
g7
F-4.5217885770490405
sg8
VCHEMBL193727
p1027
sg10
I1
sbag2
(g3
g4
NtRp1028
(dp1029
g7
F-5.0304379213924353
sg8
VCHEMBL183367
p1030
sg10
I1
sbag2
(g3
g4
NtRp1031
(dp1032
g7
F-4.3820266346738812
sg8
VCHEMBL1395826
p1033
sg10
I1
sbag2
(g3
g4
NtRp1034
(dp1035
g7
F-4.499809670330265
sg8
VCHEMBL1434189
p1036
sg10
I1
sbag2
(g3
g4
NtRp1037
(dp1038
g7
F-6.0063531596017325
sg8
VCHEMBL371126
p1039
sg10
I1
sbag2
(g3
g4
NtRp1040
(dp1041
g7
F-3.0910424533583161
sg8
VCHEMBL216024
p1042
sg10
I1
sbag2
(g3
g4
NtRp1043
(dp1044
g7
F-1.7173950539391927
sg8
VCHEMBL472468
p1045
sg10
I1
sbag2
(g3
g4
NtRp1046
(dp1047
g7
F-4.1108738641733114
sg8
VCHEMBL420623
p1048
sg10
I1
sbag2
(g3
g4
NtRp1049
(dp1050
g7
F-5.575949103146316
sg8
VCHEMBL209803
p1051
sg10
I1
sbag2
(g3
g4
NtRp1052
(dp1053
g7
F-3.4011973816621555
sg8
VCHEMBL209402
p1054
sg10
I1
sbag2
(g3
g4
NtRp1055
(dp1056
g7
F-5.2983173665480363
sg8
VCHEMBL204970
p1057
sg10
I1
sbag2
(g3
g4
NtRp1058
(dp1059
g7
F-0
sg8
VCHEMBL203472
p1060
sg10
I1
sbag2
(g3
g4
NtRp1061
(dp1062
g7
F-5.0434251169192468
sg8
VCHEMBL425092
p1063
sg10
I1
sbag2
(g3
g4
NtRp1064
(dp1065
g7
F-3.713572066704308
sg8
VCHEMBL380469
p1066
sg10
I1
sbag2
(g3
g4
NtRp1067
(dp1068
g7
F-4.8520302639196169
sg8
VCHEMBL208978
p1069
sg10
I1
sbag2
(g3
g4
NtRp1070
(dp1071
g7
F-5.1704839950381514
sg8
VCHEMBL377644
p1072
sg10
I1
sbag2
(g3
g4
NtRp1073
(dp1074
g7
F-5.6970934865054046
sg8
VCHEMBL232023
p1075
sg10
I1
sbag2
(g3
g4
NtRp1076
(dp1077
g7
F-1.0986122886681098
sg8
VCHEMBL191836
p1078
sg10
I1
sbag2
(g3
g4
NtRp1079
(dp1080
g7
F-4.5849674786705723
sg8
VCHEMBL189356
p1081
sg10
I1
sbag2
(g3
g4
NtRp1082
(dp1083
g7
F-4.5432947822700038
sg8
VCHEMBL93546
p1084
sg10
I1
sbag2
(g3
g4
NtRp1085
(dp1086
g7
F-4.3820266346738812
sg8
VCHEMBL520107
p1087
sg10
I1
sbag2
(g3
g4
NtRp1088
(dp1089
g7
F-5.5412635451584258
sg8
VCHEMBL1441930
p1090
sg10
I1
sbag2
(g3
g4
NtRp1091
(dp1092
g7
F-1.3609765531356006
sg8
VCHEMBL85881
p1093
sg10
I1
sbag2
(g3
g4
NtRp1094
(dp1095
g7
F-3.4011973816621555
sg8
VCHEMBL347560
p1096
sg10
I1
sbag2
(g3
g4
NtRp1097
(dp1098
g7
F-5.9026333334013659
sg8
VCHEMBL25580
p1099
sg10
I1
sbag2
(g3
g4
NtRp1100
(dp1101
g7
F-3.6635616461296463
sg8
VCHEMBL221515
p1102
sg10
I1
sbag2
(g3
g4
NtRp1103
(dp1104
g7
F-2.7080502011022101
sg8
VCHEMBL389394
p1105
sg10
I1
sbag2
(g3
g4
NtRp1106
(dp1107
g7
F-3.4339872044851463
sg8
VCHEMBL374277
p1108
sg10
I1
sbag2
(g3
g4
NtRp1109
(dp1110
g7
F-3.572345637857985
sg8
VCHEMBL226379
p1111
sg10
I1
sbag2
(g3
g4
NtRp1112
(dp1113
g7
F-4.7874917427820458
sg8
VCHEMBL1318094
p1114
sg10
I1
sbag2
(g3
g4
NtRp1115
(dp1116
g7
F-0.26236426446749106
sg8
VCHEMBL368449
p1117
sg10
I1
sbag2
(g3
g4
NtRp1118
(dp1119
g7
F-2.2192034840549946
sg8
VCHEMBL92900
p1120
sg10
I1
sbag2
(g3
g4
NtRp1121
(dp1122
g7
F-4.290459441148391
sg8
VCHEMBL191759
p1123
sg10
I1
sbag2
(g3
g4
NtRp1124
(dp1125
g7
F-5.4424177105217932
sg8
VCHEMBL365941
p1126
sg10
I1
sbag2
(g3
g4
NtRp1127
(dp1128
g7
F-4.962844630259907
sg8
VCHEMBL191808
p1129
sg10
I1
sbag2
(g3
g4
NtRp1130
(dp1131
g7
F-1.275362800412609
sg8
VCHEMBL360978
p1132
sg10
I1
sbag2
(g3
g4
NtRp1133
(dp1134
g7
F-5.0937502008067623
sg8
VCHEMBL372011
p1135
sg10
I1
sbag2
(g3
g4
NtRp1136
(dp1137
g7
F-4.5517694092609764
sg8
VCHEMBL200232
p1138
sg10
I1
sbag2
(g3
g4
NtRp1139
(dp1140
g7
F-6.0014148779611505
sg8
VCHEMBL379234
p1141
sg10
I1
sbag2
(g3
g4
NtRp1142
(dp1143
g7
F-5.6058020662959978
sg8
VCHEMBL203402
p1144
sg10
I1
sbag2
(g3
g4
NtRp1145
(dp1146
g7
F-6.4393503711000983
sg8
VCHEMBL202673
p1147
sg10
I1
sbag2
(g3
g4
NtRp1148
(dp1149
g7
F-4.8598124043616719
sg8
VCHEMBL203072
p1150
sg10
I1
sbag2
(g3
g4
NtRp1151
(dp1152
g7
F-5.5333894887275203
sg8
VCHEMBL204434
p1153
sg10
I1
sbag2
(g3
g4
NtRp1154
(dp1155
g7
F-3.1780538303479458
sg8
VCHEMBL383691
p1156
sg10
I1
sbag2
(g3
g4
NtRp1157
(dp1158
g7
F-1.6094379124341003
sg8
VCHEMBL202472
p1159
sg10
I1
sbag2
(g3
g4
NtRp1160
(dp1161
g7
F-6.7934661325800096
sg8
VCHEMBL378581
p1162
sg10
I1
sbag2
(g3
g4
NtRp1163
(dp1164
g7
F-2.3978952727983707
sg8
VCHEMBL241300
p1165
sg10
I1
sbag2
(g3
g4
NtRp1166
(dp1167
g7
F-5.934894195619588
sg8
VCHEMBL393179
p1168
sg10
I1
sbag2
(g3
g4
NtRp1169
(dp1170
g7
F-3.6888794541139363
sg8
VCHEMBL442249
p1171
sg10
I1
sbag2
(g3
g4
NtRp1172
(dp1173
g7
F-4.2341065045972597
sg8
VCHEMBL238959
p1174
sg10
I1
sbag2
(g3
g4
NtRp1175
(dp1176
g7
F-2.4069451083182885
sg8
VCHEMBL1087919
p1177
sg10
I1
sbag2
(g3
g4
NtRp1178
(dp1179
g7
F-4.7004803657924166
sg8
VCHEMBL153405
p1180
sg10
I1
sbag2
(g3
g4
NtRp1181
(dp1182
g7
F-0
sg8
VCHEMBL327320
p1183
sg10
I1
sbag2
(g3
g4
NtRp1184
(dp1185
g7
F-2.6390573296152584
sg8
VCHEMBL178559
p1186
sg10
I1
sbag2
(g3
g4
NtRp1187
(dp1188
g7
F-3.7909846770510898
sg8
VCHEMBL94080
p1189
sg10
I1
sbag2
(g3
g4
NtRp1190
(dp1191
g7
F-0.54232429082536171
sg8
VCHEMBL180973
p1192
sg10
I1
sbag2
(g3
g4
NtRp1193
(dp1194
g7
F-5.5031747401749289
sg8
VCHEMBL1098709
p1195
sg10
I1
sbag2
(g3
g4
NtRp1196
(dp1197
g7
F-3.8613610906259179
sg8
VCHEMBL1098710
p1198
sg10
I1
sbag2
(g3
g4
NtRp1199
(dp1200
g7
F-3.4339872044851463
sg8
VCHEMBL144431
p1201
sg10
I1
sbag2
(g3
g4
NtRp1202
(dp1203
g7
F-5.0106352940962555
sg8
VCHEMBL415864
p1204
sg10
I1
sbag2
(g3
g4
NtRp1205
(dp1206
g7
F-4.9272536851572051
sg8
VCHEMBL189658
p1207
sg10
I1
sbag2
(g3
g4
NtRp1208
(dp1209
g7
F-5.4595855141441589
sg8
VCHEMBL193064
p1210
sg10
I1
sbag2
(g3
g4
NtRp1211
(dp1212
g7
F-6.0185932144962342
sg8
VCHEMBL186513
p1213
sg10
I1
sbag2
(g3
g4
NtRp1214
(dp1215
g7
F-1.9021075263969205
sg8
VCHEMBL30439
p1216
sg10
I1
sbag2
(g3
g4
NtRp1217
(dp1218
g7
F-3.3322045101752038
sg8
VCHEMBL312186
p1219
sg10
I1
sbag2
(g3
g4
NtRp1220
(dp1221
g7
F0.77652878949899629
sg8
VCHEMBL81
p1222
sg10
I1
sbag2
(g3
g4
NtRp1223
(dp1224
g7
F-3.6375861597263857
sg8
VCHEMBL180253
p1225
sg10
I1
sbag2
(g3
g4
NtRp1226
(dp1227
g7
F-1.3862943611198906
sg8
VCHEMBL93705
p1228
sg10
I1
sbag2
(g3
g4
NtRp1229
(dp1230
g7
F-6.1737861039019366
sg8
VCHEMBL190104
p1231
sg10
I1
sbag2
(g3
g4
NtRp1232
(dp1233
g7
F0.15082288973458366
sg8
VCHEMBL360498
p1234
sg10
I1
sbag2
(g3
g4
NtRp1235
(dp1236
g7
F-1.6094379124341003
sg8
VCHEMBL1082528
p1237
sg10
I1
sbag2
(g3
g4
NtRp1238
(dp1239
g7
F-4.7874917427820458
sg8
VCHEMBL1083187
p1240
sg10
I1
sbag2
(g3
g4
NtRp1241
(dp1242
g7
F-4.6913478822291435
sg8
VCHEMBL31128
p1243
sg10
I1
sbag2
(g3
g4
NtRp1244
(dp1245
g7
F-5.1704839950381514
sg8
VCHEMBL367588
p1246
sg10
I1
sbag2
(g3
g4
NtRp1247
(dp1248
g7
F-4.1743872698956368
sg8
VCHEMBL186597
p1249
sg10
I1
sbag2
(g3
g4
NtRp1250
(dp1251
g7
F-2.9444389791664403
sg8
VCHEMBL145576
p1252
sg10
I1
sbag2
(g3
g4
NtRp1253
(dp1254
g7
F-4.7361984483944957
sg8
VCHEMBL361258
p1255
sg10
I1
sbag2
(g3
g4
NtRp1256
(dp1257
g7
F-3.4011973816621555
sg8
VCHEMBL363367
p1258
sg10
I1
sbag2
(g3
g4
NtRp1259
(dp1260
g7
F-6.9077552789821368
sg8
VCHEMBL81591
p1261
sg10
I1
sbag2
(g3
g4
NtRp1262
(dp1263
g7
F0.10536051565782628
sg8
VCHEMBL181369
p1264
sg10
I1
sbag2
(g3
g4
NtRp1265
(dp1266
g7
F-0
sg8
VCHEMBL92660
p1267
sg10
I1
sbag2
(g3
g4
NtRp1268
(dp1269
g7
F-0.26236426446749106
sg8
VCHEMBL135
p1270
sg10
I1
sbag2
(g3
g4
NtRp1271
(dp1272
g7
F-6.3099182782265162
sg8
VCHEMBL57150
p1273
sg10
I1
sbag2
(g3
g4
NtRp1274
(dp1275
g7
F-1.2237754316221157
sg8
VCHEMBL94116
p1276
sg10
I1
sbag2
(g3
g4
NtRp1277
(dp1278
g7
F-3.044522437723423
sg8
VCHEMBL433944
p1279
sg10
I1
sbag2
(g3
g4
NtRp1280
(dp1281
g7
F-4.6539603501575231
sg8
VCHEMBL371624
p1282
sg10
I1
sbag2
(g3
g4
NtRp1283
(dp1284
g7
F-3.4339872044851463
sg8
VCHEMBL371788
p1285
sg10
I1
sbag2
(g3
g4
NtRp1286
(dp1287
g7
F-3.0910424533583161
sg8
VCHEMBL189200
p1288
sg10
I1
sbag2
(g3
g4
NtRp1289
(dp1290
g7
F-2.6390573296152584
sg8
VCHEMBL44426
p1291
sg10
I1
sbag2
(g3
g4
NtRp1292
(dp1293
g7
F-4.4067192472642533
sg8
VCHEMBL187087
p1294
sg10
I1
sbag2
(g3
g4
NtRp1295
(dp1296
g7
F-2.1400661634962708
sg8
VCHEMBL200021
p1297
sg10
I1
sbag2
(g3
g4
NtRp1298
(dp1299
g7
F-2.0149030205422647
sg8
VCHEMBL316132
p1300
sg10
I1
sbag2
(g3
g4
NtRp1301
(dp1302
g7
F-6.1612073216950769
sg8
VCHEMBL363963
p1303
sg10
I1
sbag2
(g3
g4
NtRp1304
(dp1305
g7
F-3.3568971227655755
sg8
VCHEMBL89994
p1306
sg10
I1
sbag2
(g3
g4
NtRp1307
(dp1308
g7
F-4.7791234931115296
sg8
VCHEMBL195118
p1309
sg10
I1
sbag2
(g3
g4
NtRp1310
(dp1311
g7
F-5.7651911027848444
sg8
VCHEMBL441537
p1312
sg10
I1
sbag2
(g3
g4
NtRp1313
(dp1314
g7
F-4.3694478524670215
sg8
VCHEMBL377694
p1315
sg10
I1
sbag2
(g3
g4
NtRp1316
(dp1317
g7
F-3.0910424533583161
sg8
VCHEMBL192386
p1318
sg10
I1
sbag2
(g3
g4
NtRp1319
(dp1320
g7
F-0.76546784213957142
sg8
VCHEMBL362020
p1321
sg10
I1
sbag2
(g3
g4
NtRp1322
(dp1323
g7
F-6.4377516497364011
sg8
VCHEMBL183152
p1324
sg10
I1
sbag2
(g3
g4
NtRp1325
(dp1326
g7
F-5.0039463059454592
sg8
VCHEMBL33053
p1327
sg10
I1
sbag2
(g3
g4
NtRp1328
(dp1329
g7
F-3.1527360223636558
sg8
VCHEMBL387335
p1330
sg10
I1
sbag2
(g3
g4
NtRp1331
(dp1332
g7
F-5.2983173665480363
sg8
VCHEMBL192587
p1333
sg10
I1
sbag2
(g3
g4
NtRp1334
(dp1335
g7
F-1.791759469228055
sg8
VCHEMBL370849
p1336
sg10
I1
sbag2
(g3
g4
NtRp1337
(dp1338
g7
F1.5141277326297755
sg8
VCHEMBL178679
p1339
sg10
I1
sbag2
(g3
g4
NtRp1340
(dp1341
g7
F-4.6913478822291435
sg8
VCHEMBL185126
p1342
sg10
I1
sbag2
(g3
g4
NtRp1343
(dp1344
g7
F-4.7621739347977563
sg8
VCHEMBL185918
p1345
sg10
I1
sbag2
(g3
g4
NtRp1346
(dp1347
g7
F-1.205970806988609
sg8
VCHEMBL264216
p1348
sg10
I1
sbag2
(g3
g4
NtRp1349
(dp1350
g7
F-6.4520489544372257
sg8
VCHEMBL198679
p1351
sg10
I1
sbag2
(g3
g4
NtRp1352
(dp1353
g7
F-0
sg8
VCHEMBL121978
p1354
sg10
I1
sbag2
(g3
g4
NtRp1355
(dp1356
g7
F-0.33647223662121289
sg8
VCHEMBL334096
p1357
sg10
I1
sbag2
(g3
g4
NtRp1358
(dp1359
g7
F-3.6375861597263857
sg8
VCHEMBL192539
p1360
sg10
I1
sbag2
(g3
g4
NtRp1361
(dp1362
g7
F-1.8082887711792655
sg8
VCHEMBL94030
p1363
sg10
I1
sbag2
(g3
g4
NtRp1364
(dp1365
g7
F-2.5649493574615367
sg8
VCHEMBL186598
p1366
sg10
I1
sbag2
(g3
g4
NtRp1367
(dp1368
g7
F-2.6026896854443837
sg8
VCHEMBL316119
p1369
sg10
I1
sbag2
(g3
g4
NtRp1370
(dp1371
g7
F0.22314355131420971
sg8
VCHEMBL180146
p1372
sg10
I1
sbag2
(g3
g4
NtRp1373
(dp1374
g7
F-5.9635793436184459
sg8
VCHEMBL377224
p1375
sg10
I1
sbag2
(g3
g4
NtRp1376
(dp1377
g7
F-5.8406416573733981
sg8
VCHEMBL377848
p1378
sg10
I1
sbag2
(g3
g4
NtRp1379
(dp1380
g7
F-3.9318256327243257
sg8
VCHEMBL204185
p1381
sg10
I1
sbag2
(g3
g4
NtRp1382
(dp1383
g7
F-5.0751738152338266
sg8
VCHEMBL264349
p1384
sg10
I1
sbag2
(g3
g4
NtRp1385
(dp1386
g7
F-5.2781146592305168
sg8
VCHEMBL378675
p1387
sg10
I1
sbag2
(g3
g4
NtRp1388
(dp1389
g7
F-1.3862943611198906
sg8
VCHEMBL1402
p1390
sg10
I1
sbag2
(g3
g4
NtRp1391
(dp1392
g7
F-2.3025850929940459
sg8
VCHEMBL369935
p1393
sg10
I1
sbag2
(g3
g4
NtRp1394
(dp1395
g7
F-4.9416424226093039
sg8
VCHEMBL216279
p1396
sg10
I1
sbag2
(g3
g4
NtRp1397
(dp1398
g7
F-6.2205901700997392
sg8
VCHEMBL219126
p1399
sg10
I1
sbag2
(g3
g4
NtRp1400
(dp1401
g7
F-4.990432586778736
sg8
VCHEMBL381566
p1402
sg10
I1
sbag2
(g3
g4
NtRp1403
(dp1404
g7
F-4.255612709818223
sg8
VCHEMBL209429
p1405
sg10
I1
sbag2
(g3
g4
NtRp1406
(dp1407
g7
F-4.7361984483944957
sg8
VCHEMBL379109
p1408
sg10
I1
sbag2
(g3
g4
NtRp1409
(dp1410
g7
F-4.8202815656050371
sg8
VCHEMBL379821
p1411
sg10
I1
sbag2
(g3
g4
NtRp1412
(dp1413
g7
F-0.35767444427181588
sg8
VCHEMBL179518
p1414
sg10
I1
sbag2
(g3
g4
NtRp1415
(dp1416
g7
F-6.7080840838530698
sg8
VCHEMBL187069
p1417
sg10
I1
sbag2
(g3
g4
NtRp1418
(dp1419
g7
F-3.044522437723423
sg8
VCHEMBL363425
p1420
sg10
I1
sbag2
(g3
g4
NtRp1421
(dp1422
g7
F-5.9914645471079817
sg8
VCHEMBL597498
p1423
sg10
I1
sbag2
(g3
g4
NtRp1424
(dp1425
g7
F-1.2237754316221157
sg8
VCHEMBL1088631
p1426
sg10
I1
sbag2
(g3
g4
NtRp1427
(dp1428
g7
F-5.43372200355424
sg8
VCHEMBL211800
p1429
sg10
I1
sbag2
(g3
g4
NtRp1430
(dp1431
g7
F-6.4361503683694279
sg8
VCHEMBL379567
p1432
sg10
I1
sbag2
(g3
g4
NtRp1433
(dp1434
g7
F-5.8636311755980968
sg8
VCHEMBL379595
p1435
sg10
I1
sbag2
(g3
g4
NtRp1436
(dp1437
g7
F-5.2832037287379885
sg8
VCHEMBL211870
p1438
sg10
I1
sbag2
(g3
g4
NtRp1439
(dp1440
g7
F-1.9459101490553132
sg8
VCHEMBL1084120
p1441
sg10
I1
sbag2
(g3
g4
NtRp1442
(dp1443
g7
F-6.1758672701057611
sg8
VCHEMBL187937
p1444
sg10
I1
sbag2
(g3
g4
NtRp1445
(dp1446
g7
F-6.5736801669606457
sg8
VCHEMBL380717
p1447
sg10
I1
sbag2
(g3
g4
NtRp1448
(dp1449
g7
F-5.9215784196438159
sg8
VCHEMBL362355
p1450
sg10
I1
sbag2
(g3
g4
NtRp1451
(dp1452
g7
F-5.2781146592305168
sg8
VCHEMBL221676
p1453
sg10
I1
sbag2
(g3
g4
NtRp1454
(dp1455
g7
F-5.7365722974791922
sg8
VCHEMBL1254532
p1456
sg10
I1
sbag2
(g3
g4
NtRp1457
(dp1458
g7
F-6.1025585946135692
sg8
VCHEMBL363955
p1459
sg10
I1
sbag2
(g3
g4
NtRp1460
(dp1461
g7
F-4.5747109785033828
sg8
VCHEMBL379008
p1462
sg10
I1
sbag2
(g3
g4
NtRp1463
(dp1464
g7
F-4.0073331852324712
sg8
VCHEMBL1087547
p1465
sg10
I1
sbag2
(g3
g4
NtRp1466
(dp1467
g7
F-3.1354942159291497
sg8
VCHEMBL1086644
p1468
sg10
I1
sbag2
(g3
g4
NtRp1469
(dp1470
g7
F-0.18232155679395459
sg8
VCHEMBL1086775
p1471
sg10
I1
sbag2
(g3
g4
NtRp1472
(dp1473
g7
F-5.5093883366279774
sg8
VCHEMBL192016
p1474
sg10
I1
sbag2
(g3
g4
NtRp1475
(dp1476
g7
F-2.4849066497880004
sg8
VCHEMBL191841
p1477
sg10
I1
sbag2
(g3
g4
NtRp1478
(dp1479
g7
F-3.1354942159291497
sg8
VCHEMBL238960
p1480
sg10
I1
sbag2
(g3
g4
NtRp1481
(dp1482
g7
F-2.0541237336955462
sg8
VCHEMBL238961
p1483
sg10
I1
sbag2
(g3
g4
NtRp1484
(dp1485
g7
F-0.95551144502743635
sg8
VCHEMBL85090
p1486
sg10
I1
sbag2
(g3
g4
NtRp1487
(dp1488
g7
F0.51082562376599072
sg8
VCHEMBL184360
p1489
sg10
I1
sbag2
(g3
g4
NtRp1490
(dp1491
g7
F0.84397007029452897
sg8
VCHEMBL180176
p1492
sg10
I1
sbag2
(g3
g4
NtRp1493
(dp1494
g7
F0.69314718055994529
sg8
VCHEMBL437695
p1495
sg10
I1
sbag2
(g3
g4
NtRp1496
(dp1497
g7
F-3.3672958299864741
sg8
VCHEMBL209530
p1498
sg10
I1
sbag2
(g3
g4
NtRp1499
(dp1500
g7
F-6.9077552789821368
sg8
VCHEMBL1276308
p1501
sg10
I1
sbag2
(g3
g4
NtRp1502
(dp1503
g7
F-5.598421958998375
sg8
VCHEMBL388418
p1504
sg10
I1
sbag2
(g3
g4
NtRp1505
(dp1506
g7
F-4.2484952420493594
sg8
VCHEMBL1433745
p1507
sg10
I1
sbag2
(g3
g4
NtRp1508
(dp1509
g7
F-5.1929568508902104
sg8
VCHEMBL1475062
p1510
sg10
I1
sbag2
(g3
g4
NtRp1511
(dp1512
g7
F-4.7874917427820458
sg8
VCHEMBL1597831
p1513
sg10
I1
sbag2
(g3
g4
NtRp1514
(dp1515
g7
F-2.6390573296152584
sg8
VCHEMBL471627
p1516
sg10
I1
sbag2
(g3
g4
NtRp1517
(dp1518
g7
F-6.0637852086876078
sg8
VCHEMBL1599080
p1519
sg10
I1
sbag2
(g3
g4
NtRp1520
(dp1521
g7
F-6.4329400927391793
sg8
VCHEMBL375334
p1522
sg10
I1
sbag2
(g3
g4
NtRp1523
(dp1524
g7
F-4.0775374439057197
sg8
VCHEMBL222522
p1525
sg10
I1
sbag2
(g3
g4
NtRp1526
(dp1527
g7
F-2.9957322735539909
sg8
VCHEMBL222580
p1528
sg10
I1
sbag2
(g3
g4
NtRp1529
(dp1530
g7
F-6.363028103540465
sg8
VCHEMBL1083188
p1531
sg10
I1
sbag2
(g3
g4
NtRp1532
(dp1533
g7
F-4.5217885770490405
sg8
VCHEMBL191716
p1534
sg10
I1
sbag2
(g3
g4
NtRp1535
(dp1536
g7
F-4.219507705176107
sg8
VCHEMBL311640
p1537
sg10
I1
sbag2
(g3
g4
NtRp1538
(dp1539
g7
F-6.4583382833447898
sg8
VCHEMBL194772
p1540
sg10
I1
sbag2
(g3
g4
NtRp1541
(dp1542
g7
F-2.2300144001592104
sg8
VCHEMBL329849
p1543
sg10
I1
sbag2
(g3
g4
NtRp1544
(dp1545
g7
F-2.6713862167306188
sg8
VCHEMBL362425
p1546
sg10
I1
sbag2
(g3
g4
NtRp1547
(dp1548
g7
F-4.7706846244656651
sg8
VCHEMBL363177
p1549
sg10
I1
sbag2
(g3
g4
NtRp1550
(dp1551
g7
F-6.2859980945088649
sg8
VCHEMBL364329
p1552
sg10
I1
sbag2
(g3
g4
NtRp1553
(dp1554
g7
F-4.4659081186545837
sg8
VCHEMBL192187
p1555
sg10
I1
sbag2
(g3
g4
NtRp1556
(dp1557
g7
F0.35667494393873245
sg8
VCHEMBL183489
p1558
sg10
I1
sbag2
(g3
g4
NtRp1559
(dp1560
g7
F-4.7874917427820458
sg8
VCHEMBL193518
p1561
sg10
I1
sbag2
(g3
g4
NtRp1562
(dp1563
g7
F-3.3318473035273621
sg8
VCHEMBL174502
p1564
sg10
I1
sbag2
(g3
g4
NtRp1565
(dp1566
g7
F-6.1800166536525722
sg8
VCHEMBL361226
p1567
sg10
I1
sbag2
(g3
g4
NtRp1568
(dp1569
g7
F-6.045005314036012
sg8
VCHEMBL379543
p1570
sg10
I1
sbag2
(g3
g4
NtRp1571
(dp1572
g7
F-2.3025850929940459
sg8
VCHEMBL68940
p1573
sg10
I1
sbag2
(g3
g4
NtRp1574
(dp1575
g7
F-3.2188758248682006
sg8
VCHEMBL93308
p1576
sg10
I1
sbag2
(g3
g4
NtRp1577
(dp1578
g7
F0.916290731874155
sg8
VCHEMBL361601
p1579
sg10
I1
sbag2
(g3
g4
NtRp1580
(dp1581
g7
F-4.0249944840873075
sg8
VCHEMBL328810
p1582
sg10
I1
sbag2
(g3
g4
NtRp1583
(dp1584
g7
F0.22314355131420971
sg8
VCHEMBL181404
p1585
sg10
I1
sbag2
(g3
g4
NtRp1586
(dp1587
g7
F-6.1633148040346413
sg8
VCHEMBL189822
p1588
sg10
I1
sbag2
(g3
g4
NtRp1589
(dp1590
g7
F-4.3438054218536841
sg8
VCHEMBL192782
p1591
sg10
I1
sbag2
(g3
g4
NtRp1592
(dp1593
g7
F-4.290459441148391
sg8
VCHEMBL192901
p1594
sg10
I1
sbag2
(g3
g4
NtRp1595
(dp1596
g7
F-3.4965075614664802
sg8
VCHEMBL362307
p1597
sg10
I1
sbag2
(g3
g4
NtRp1598
(dp1599
g7
F-6.4800445619266531
sg8
VCHEMBL291002
p1600
sg10
I1
sbag2
(g3
g4
NtRp1601
(dp1602
g7
F-6.5652649700353614
sg8
VCHEMBL190487
p1603
sg10
I1
sbag2
(g3
g4
NtRp1604
(dp1605
g7
F-4.0500443033255209
sg8
VCHEMBL195991
p1606
sg10
I1
sbag2
(g3
g4
NtRp1607
(dp1608
g7
F-0.33647223662121289
sg8
VCHEMBL328190
p1609
sg10
I1
sbag2
(g3
g4
NtRp1610
(dp1611
g7
F-0.69314718055994529
sg8
VCHEMBL190038
p1612
sg10
I1
sbag2
(g3
g4
NtRp1613
(dp1614
g7
F0.22314355131420971
sg8
VCHEMBL304552
p1615
sg10
I1
sbag2
(g3
g4
NtRp1616
(dp1617
g7
F-2.1972245773362196
sg8
VCHEMBL1627354
p1618
sg10
I1
sbag2
(g3
g4
NtRp1619
(dp1620
g7
F-2.0014800002101243
sg8
VCHEMBL85536
p1621
sg10
I1
sbag2
(g3
g4
NtRp1622
(dp1623
g7
F0.77652878949899629
sg8
VCHEMBL178665
p1624
sg10
I1
sbag2
(g3
g4
NtRp1625
(dp1626
g7
F-2.7725887222397811
sg8
VCHEMBL435696
p1627
sg10
I1
sbag2
(g3
g4
NtRp1628
(dp1629
g7
F-6.776506992372183
sg8
VCHEMBL371564
p1630
sg10
I1
sbag2
(g3
g4
NtRp1631
(dp1632
g7
F-3.8286413964890951
sg8
VCHEMBL1628170
p1633
sg10
I1
sbag2
(g3
g4
NtRp1634
(dp1635
g7
F-3.380994674344636
sg8
VCHEMBL91740
p1636
sg10
I1
sbag2
(g3
g4
NtRp1637
(dp1638
g7
F-2.3978952727983707
sg8
VCHEMBL30707
p1639
sg10
I1
sbag2
(g3
g4
NtRp1640
(dp1641
g7
F-1.5173226235262947
sg8
VCHEMBL954
p1642
sg10
I1
sbag2
(g3
g4
NtRp1643
(dp1644
g7
F-0.18232155679395459
sg8
VCHEMBL184974
p1645
sg10
I1
sbag2
(g3
g4
NtRp1646
(dp1647
g7
F-5.9839362806871907
sg8
VCHEMBL1627353
p1648
sg10
I1
sbag2
(g3
g4
NtRp1649
(dp1650
g7
F-1.9286186519452522
sg8
VCHEMBL373625
p1651
sg10
I1
sbag2
(g3
g4
NtRp1652
(dp1653
g7
F-5.4249500174814029
sg8
VCHEMBL188846
p1654
sg10
I1
sbag2
(g3
g4
NtRp1655
(dp1656
g7
F-1.0438040521731147
sg8
VCHEMBL196131
p1657
sg10
I1
sbag2
(g3
g4
NtRp1658
(dp1659
g7
F-6.2747620212419388
sg8
VCHEMBL30574
p1660
sg10
I1
sbag2
(g3
g4
NtRp1661
(dp1662
g7
F-5.1590552992145291
sg8
VCHEMBL427180
p1663
sg10
I1
sbag2
(g3
g4
NtRp1664
(dp1665
g7
F-5.6454468976432377
sg8
VCHEMBL194265
p1666
sg10
I1
sbag2
(g3
g4
NtRp1667
(dp1668
g7
F-6.5638555265321274
sg8
VCHEMBL195788
p1669
sg10
I1
sbag2
(g3
g4
NtRp1670
(dp1671
g7
F-5.1298987149230735
sg8
VCHEMBL194334
p1672
sg10
I1
sbag2
(g3
g4
NtRp1673
(dp1674
g7
F0.22314355131420971
sg8
VCHEMBL183344
p1675
sg10
I1
sbag2
(g3
g4
NtRp1676
(dp1677
g7
F0.35667494393873245
sg8
VCHEMBL369545
p1678
sg10
I1
sbag2
(g3
g4
NtRp1679
(dp1680
g7
F-3.4011973816621555
sg8
VCHEMBL361078
p1681
sg10
I1
sbag2
(g3
g4
NtRp1682
(dp1683
g7
F-3.8918202981106265
sg8
VCHEMBL187393
p1684
sg10
I1
sbag2
(g3
g4
NtRp1685
(dp1686
g7
F-4.4308167988433134
sg8
VCHEMBL194762
p1687
sg10
I1
sbag2
(g3
g4
NtRp1688
(dp1689
g7
F-1.791759469228055
sg8
VCHEMBL188051
p1690
sg10
I1
sbag2
(g3
g4
NtRp1691
(dp1692
g7
F-2.2512917986064953
sg8
VCHEMBL420017
p1693
sg10
I1
sbag2
(g3
g4
NtRp1694
(dp1695
g7
F0.51082562376599072
sg8
VCHEMBL184367
p1696
sg10
I1
sbag2
(g3
g4
NtRp1697
(dp1698
g7
F-6.2146080984221914
sg8
VCHEMBL356693
p1699
sg10
I1
sbag2
(g3
g4
NtRp1700
(dp1701
g7
F-6.444131256700441
sg8
VCHEMBL1702774
p1702
sg10
I1
sbag2
(g3
g4
NtRp1703
(dp1704
g7
F-2.7080502011022101
sg8
VCHEMBL149791
p1705
sg10
I1
sbag2
(g3
g4
NtRp1706
(dp1707
g7
F-4.6821312271242199
sg8
VCHEMBL372029
p1708
sg10
I1
sbag2
(g3
g4
NtRp1709
(dp1710
g7
F-2.3025850929940459
sg8
VCHEMBL370282
p1711
sg10
I1
sbag2
(g3
g4
NtRp1712
(dp1713
g7
F-1.0079579203999789
sg8
VCHEMBL180702
p1714
sg10
I1
sbag2
(g3
g4
NtRp1715
(dp1716
g7
F-5.6524891802686508
sg8
VCHEMBL103650
p1717
sg10
I1
sbag2
(g3
g4
NtRp1718
(dp1719
g7
F-0.40546510810816438
sg8
VCHEMBL181936
p1720
sg10
I1
sbag2
(g3
g4
NtRp1721
(dp1722
g7
F-0.40546510810816438
sg8
VCHEMBL183782
p1723
sg10
I1
sbag2
(g3
g4
NtRp1724
(dp1725
g7
F-6.804614520062624
sg8
VCHEMBL187673
p1726
sg10
I1
sbag2
(g3
g4
NtRp1727
(dp1728
g7
F-4.7874917427820458
sg8
VCHEMBL421368
p1729
sg10
I1
sbag2
(g3
g4
NtRp1730
(dp1731
g7
F-3.7830526241311859
sg8
VCHEMBL98470
p1732
sg10
I1
sbag2
(g3
g4
NtRp1733
(dp1734
g7
F-5.9532433342877846
sg8
VCHEMBL197757
p1735
sg10
I1
sbag2
(g3
g4
NtRp1736
(dp1737
g7
F-6.0913098820776979
sg8
VCHEMBL191715
p1738
sg10
I1
sbag2
(g3
g4
NtRp1739
(dp1740
g7
F0.35667494393873245
sg8
VCHEMBL122208
p1741
sg10
I1
sbag2
(g3
g4
NtRp1742
(dp1743
g7
F-6.3368257311464413
sg8
VCHEMBL153395
p1744
sg10
I1
sbag2
(g3
g4
NtRp1745
(dp1746
g7
F-3.2958368660043291
sg8
VCHEMBL195289
p1747
sg10
I1
sbag2
(g3
g4
NtRp1748
(dp1749
g7
F-3.6635616461296463
sg8
VCHEMBL33899
p1750
sg10
I1
sbag2
(g3
g4
NtRp1751
(dp1752
g7
F-1.7227665977411035
sg8
VCHEMBL93230
p1753
sg10
I1
sbag2
(g3
g4
NtRp1754
(dp1755
g7
F-5.857933154483459
sg8
VCHEMBL1475434
p1756
sg10
I1
sbag2
(g3
g4
NtRp1757
(dp1758
g7
F-5.1357984370502621
sg8
VCHEMBL1552932
p1759
sg10
I1
sbag2
(g3
g4
NtRp1760
(dp1761
g7
F-4.499809670330265
sg8
VCHEMBL1593653
p1762
sg10
I1
sbag2
(g3
g4
NtRp1763
(dp1764
g7
F-4.0073331852324712
sg8
VCHEMBL192390
p1765
sg10
I1
sbag2
(g3
g4
NtRp1766
(dp1767
g7
F-1.2809338454620642
sg8
VCHEMBL340606
p1768
sg10
I1
sbag2
(g3
g4
NtRp1769
(dp1770
g7
F-5.7430031878094825
sg8
VCHEMBL195280
p1771
sg10
I1
sbag2
(g3
g4
NtRp1772
(dp1773
g7
F-5.1761497325738288
sg8
VCHEMBL191646
p1774
sg10
I1
sbag2
(g3
g4
NtRp1775
(dp1776
g7
F-0.52472852893498212
sg8
VCHEMBL193482
p1777
sg10
I1
sbag2
(g3
g4
NtRp1778
(dp1779
g7
F-2.8332133440562162
sg8
VCHEMBL539927
p1780
sg10
I1
sbag2
(g3
g4
NtRp1781
(dp1782
g7
F-1.3862943611198906
sg8
VCHEMBL125362
p1783
sg10
I1
sbag2
(g3
g4
NtRp1784
(dp1785
g7
F-0.96698384618967315
sg8
VCHEMBL1087557
p1786
sg10
I1
sbag2
(g3
g4
NtRp1787
(dp1788
g7
F-5.7365722974791922
sg8
VCHEMBL1087683
p1789
sg10
I1
sbag2
(g3
g4
NtRp1790
(dp1791
g7
F-6.9077552789821368
sg8
VCHEMBL551269
p1792
sg10
I1
sbag2
(g3
g4
NtRp1793
(dp1794
g7
F-3.8501476017100584
sg8
VCHEMBL190682
p1795
sg10
I1
sbag2
(g3
g4
NtRp1796
(dp1797
g7
F-2.3025850929940459
sg8
VCHEMBL1087812
p1798
sg10
I1
sbag2
(g3
g4
NtRp1799
(dp1800
g7
F-0.18232155679395459
sg8
VCHEMBL1083178
p1801
sg10
I1
sbag2
(g3
g4
NtRp1802
(dp1803
g7
F-4.7095302013123339
sg8
VCHEMBL1083179
p1804
sg10
I1
sbag2
(g3
g4
NtRp1805
(dp1806
g7
F-6.9077552789821368
sg8
VCHEMBL1083497
p1807
sg10
I1
sbag2
(g3
g4
NtRp1808
(dp1809
g7
F-1.6486586255873816
sg8
VCHEMBL363872
p1810
sg10
I1
sbag2
(g3
g4
NtRp1811
(dp1812
g7
F0.51082562376599072
sg8
VCHEMBL184421
p1813
sg10
I1
sbag2
(g3
g4
NtRp1814
(dp1815
g7
F-0.69314718055994529
sg8
VCHEMBL185383
p1816
sg10
I1
sbag2
(g3
g4
NtRp1817
(dp1818
g7
F-0.95551144502743635
sg8
VCHEMBL362623
p1819
sg10
I1
sbag2
(g3
g4
NtRp1820
(dp1821
g7
F-2.9601050959108397
sg8
VCHEMBL226329
p1822
sg10
I1
sbag2
(g3
g4
NtRp1823
(dp1824
g7
F-5.9989365619466826
sg8
VCHEMBL200799
p1825
sg10
I1
sbag2
(g3
g4
NtRp1826
(dp1827
g7
F-3.1780538303479458
sg8
VCHEMBL371012
p1828
sg10
I1
sbag2
(g3
g4
NtRp1829
(dp1830
g7
F-5.4595855141441589
sg8
VCHEMBL426849
p1831
sg10
I1
sbag2
(g3
g4
NtRp1832
(dp1833
g7
F-4.499809670330265
sg8
VCHEMBL202248
p1834
sg10
I1
sbag2
(g3
g4
NtRp1835
(dp1836
g7
F-6.1202974189509503
sg8
VCHEMBL212418
p1837
sg10
I1
sbag2
(g3
g4
NtRp1838
(dp1839
g7
F-6.1398845522262553
sg8
VCHEMBL362356
p1840
sg10
I1
sbag2
(g3
g4
NtRp1841
(dp1842
g7
F-1.8718021769015913
sg8
VCHEMBL511971
p1843
sg10
I1
sbag2
(g3
g4
NtRp1844
(dp1845
g7
F-1.6863989535702288
sg8
VCHEMBL1085669
p1846
sg10
I1
sbag2
(g3
g4
NtRp1847
(dp1848
g7
F-1.7227665977411035
sg8
VCHEMBL1085899
p1849
sg10
I1
sbag2
(g3
g4
NtRp1850
(dp1851
g7
F-5.5721540321777647
sg8
VCHEMBL364419
p1852
sg10
I1
sbag2
(g3
g4
NtRp1853
(dp1854
g7
F-1.2809338454620642
sg8
VCHEMBL91807
p1855
sg10
I1
sbag2
(g3
g4
NtRp1856
(dp1857
g7
F-3.2580965380214821
sg8
VCHEMBL202624
p1858
sg10
I1
sbag2
(g3
g4
NtRp1859
(dp1860
g7
F-4.0943445622221004
sg8
VCHEMBL372997
p1861
sg10
I1
sbag2
(g3
g4
NtRp1862
(dp1863
g7
F-1.8405496333974869
sg8
VCHEMBL183044
p1864
sg10
I1
sbag2
(g3
g4
NtRp1865
(dp1866
g7
F1.6094379124341003
sg8
VCHEMBL198803
p1867
sg10
I1
sbag2
(g3
g4
NtRp1868
(dp1869
g7
F-2.6390573296152584
sg8
VCHEMBL214091
p1870
sg10
I1
sbag2
(g3
g4
NtRp1871
(dp1872
g7
F-5.393627546352362
sg8
VCHEMBL214972
p1873
sg10
I1
sbag2
(g3
g4
NtRp1874
(dp1875
g7
F-2.6946271807700692
sg8
VCHEMBL90072
p1876
sg10
I1
sbag2
(g3
g4
NtRp1877
(dp1878
g7
F-5.9661467391236922
sg8
VCHEMBL188957
p1879
sg10
I1
sbag2
(g3
g4
NtRp1880
(dp1881
g7
F-4.9487598903781684
sg8
VCHEMBL209851
p1882
sg10
I1
sbag2
(g3
g4
NtRp1883
(dp1884
g7
F-6.9077552789821368
sg8
VCHEMBL381489
p1885
sg10
I1
sbag2
(g3
g4
NtRp1886
(dp1887
g7
F-3.2188758248682006
sg8
VCHEMBL204697
p1888
sg10
I1
sbag2
(g3
g4
NtRp1889
(dp1890
g7
F-6.7799219074722519
sg8
VCHEMBL211739
p1891
sg10
I1
sbag2
(g3
g4
NtRp1892
(dp1893
g7
F-6.4167322825123261
sg8
VCHEMBL213529
p1894
sg10
I1
sbag2
(g3
g4
NtRp1895
(dp1896
g7
F-2.3978952727983707
sg8
VCHEMBL1082539
p1897
sg10
I1
sbag2
(g3
g4
NtRp1898
(dp1899
g7
F-3.1780538303479458
sg8
VCHEMBL187219
p1900
sg10
I1
sbag2
(g3
g4
NtRp1901
(dp1902
g7
F-2.9957322735539909
sg8
VCHEMBL394357
p1903
sg10
I1
sbag2
(g3
g4
NtRp1904
(dp1905
g7
F-6.6871086078665147
sg8
VCHEMBL242818
p1906
sg10
I1
sbag2
(g3
g4
NtRp1907
(dp1908
g7
F-5.8345182966452551
sg8
VCHEMBL94170
p1909
sg10
I1
sbag2
(g3
g4
NtRp1910
(dp1911
g7
F-6.2146080984221914
sg8
VCHEMBL106773
p1912
sg10
I1
sbag2
(g3
g4
NtRp1913
(dp1914
g7
F-4.5643481914678361
sg8
VCHEMBL192000
p1915
sg10
I1
sbag2
(g3
g4
NtRp1916
(dp1917
g7
F-5.4595855141441589
sg8
VCHEMBL329630
p1918
sg10
I1
sbag2
(g3
g4
NtRp1919
(dp1920
g7
F-5.1474944768134527
sg8
VCHEMBL432454
p1921
sg10
I1
sbag2
(g3
g4
NtRp1922
(dp1923
g7
F-0.78845736036427028
sg8
VCHEMBL184491
p1924
sg10
I1
sbag2
(g3
g4
NtRp1925
(dp1926
g7
F-2.2082744135228043
sg8
VCHEMBL393982
p1927
sg10
I1
sbag2
(g3
g4
NtRp1928
(dp1929
g7
F-0.69314718055994529
sg8
VCHEMBL240438
p1930
sg10
I1
sbag2
(g3
g4
NtRp1931
(dp1932
g7
F-6.2363695902037044
sg8
VCHEMBL188246
p1933
sg10
I1
sbag2
(g3
g4
NtRp1934
(dp1935
g7
F-4.3820266346738812
sg8
VCHEMBL346455
p1936
sg10
I1
sbag2
(g3
g4
NtRp1937
(dp1938
g7
F-4.9344739331306915
sg8
VCHEMBL377254
p1939
sg10
I1
sbag2
(g3
g4
NtRp1940
(dp1941
g7
F-3.1354942159291497
sg8
VCHEMBL213829
p1942
sg10
I1
sbag2
(g3
g4
NtRp1943
(dp1944
g7
F-6.678342114654332
sg8
VCHEMBL455215
p1945
sg10
I1
sbag2
(g3
g4
NtRp1946
(dp1947
g7
F-4.4188406077965983
sg8
VCHEMBL364492
p1948
sg10
I1
sbag2
(g3
g4
NtRp1949
(dp1950
g7
F-2.33214389523559
sg8
VCHEMBL469510
p1951
sg10
I1
sbag2
(g3
g4
NtRp1952
(dp1953
g7
F0.10536051565782628
sg8
VCHEMBL368688
p1954
sg10
I1
sbag2
(g3
g4
NtRp1955
(dp1956
g7
F-3.0910424533583161
sg8
VCHEMBL1087546
p1957
sg10
I1
sbag2
(g3
g4
NtRp1958
(dp1959
g7
F-1.547562508716013
sg8
VCHEMBL92027
p1960
sg10
I1
sbag2
(g3
g4
NtRp1961
(dp1962
g7
F-0.53062825106217038
sg8
VCHEMBL125119
p1963
sg10
I1
sbag2
(g3
g4
NtRp1964
(dp1965
g7
F-6.3681871863504922
sg8
VCHEMBL414859
p1966
sg10
I1
sbag2
(g3
g4
NtRp1967
(dp1968
g7
F-3.2188758248682006
sg8
VCHEMBL46903
p1969
sg10
I1
sbag2
(g3
g4
NtRp1970
(dp1971
g7
F-2.3025850929940459
sg8
VCHEMBL195311
p1972
sg10
I1
sbag2
(g3
g4
NtRp1973
(dp1974
g7
F-6.7334018918373593
sg8
VCHEMBL1455849
p1975
sg10
I1
sbag2
(g3
g4
NtRp1976
(dp1977
g7
F-4.3820266346738812
sg8
VCHEMBL1356953
p1978
sg10
I1
sbag2
(g3
g4
NtRp1979
(dp1980
g7
F-5.8324395068644632
sg8
VCHEMBL1097284
p1981
sg10
I1
sbag2
(g3
g4
NtRp1982
(dp1983
g7
F-3.6888794541139363
sg8
VCHEMBL426897
p1984
sg10
I1
sbag2
(g3
g4
NtRp1985
(dp1986
g7
F-1.0986122886681098
sg8
VCHEMBL386502
p1987
sg10
I1
sbag2
(g3
g4
NtRp1988
(dp1989
g7
F-3.8712010109078911
sg8
VCHEMBL223026
p1990
sg10
I1
sbag2
(g3
g4
NtRp1991
(dp1992
g7
F-5.9532433342877846
sg8
VCHEMBL91452
p1993
sg10
I1
sbag2
(g3
g4
NtRp1994
(dp1995
g7
F-3.1780538303479458
sg8
VCHEMBL144897
p1996
sg10
I1
sbag2
(g3
g4
NtRp1997
(dp1998
g7
F1.2039728043259361
sg8
VCHEMBL433769
p1999
sg10
I1
sbag2
(g3
g4
NtRp2000
(dp2001
g7
F-4.4886363697321396
sg8
VCHEMBL282292
p2002
sg10
I1
sbag2
(g3
g4
NtRp2003
(dp2004
g7
F0.35667494393873245
sg8
VCHEMBL179852
p2005
sg10
I1
sbag2
(g3
g4
NtRp2006
(dp2007
g7
F-3.4339872044851463
sg8
VCHEMBL286115
p2008
sg10
I1
sbag2
(g3
g4
NtRp2009
(dp2010
g7
F-3.4330189939851112
sg8
VCHEMBL327515
p2011
sg10
I1
sbag2
(g3
g4
NtRp2012
(dp2013
g7
F-1.9021075263969205
sg8
VCHEMBL315866
p2014
sg10
I1
sbag2
(g3
g4
NtRp2015
(dp2016
g7
F-6.8977049431286357
sg8
VCHEMBL183033
p2017
sg10
I1
sbag2
(g3
g4
NtRp2018
(dp2019
g7
F-6.363028103540465
sg8
VCHEMBL190025
p2020
sg10
I1
sbag2
(g3
g4
NtRp2021
(dp2022
g7
F-6.6631326959908028
sg8
VCHEMBL198088
p2023
sg10
I1
sbag2
(g3
g4
NtRp2024
(dp2025
g7
F-6.3117348091529148
sg8
VCHEMBL30769
p2026
sg10
I1
sbag2
(g3
g4
NtRp2027
(dp2028
g7
F-0.53062825106217038
sg8
VCHEMBL180792
p2029
sg10
I1
sbag2
(g3
g4
NtRp2030
(dp2031
g7
F-0.87546873735389985
sg8
VCHEMBL369724
p2032
sg10
I1
sbag2
(g3
g4
NtRp2033
(dp2034
g7
F-4.2621163380013236
sg8
VCHEMBL100231
p2035
sg10
I1
sbag2
(g3
g4
NtRp2036
(dp2037
g7
F-5.4380793089231956
sg8
VCHEMBL195217
p2038
sg10
I1
sbag2
(g3
g4
NtRp2039
(dp2040
g7
F-2.4765384001174837
sg8
VCHEMBL420611
p2041
sg10
I1
sbag2
(g3
g4
NtRp2042
(dp2043
g7
F-3.4011973816621555
sg8
VCHEMBL1434556
p2044
sg10
I1
sbag2
(g3
g4
NtRp2045
(dp2046
g7
F-3.912023005428146
sg8
VCHEMBL1414407
p2047
sg10
I1
sbag2
(g3
g4
NtRp2048
(dp2049
g7
F-4.1743872698956368
sg8
VCHEMBL282575
p2050
sg10
I1
sbag2
(g3
g4
NtRp2051
(dp2052
g7
F-0.26236426446749106
sg8
VCHEMBL361056
p2053
sg10
I1
sbag2
(g3
g4
NtRp2054
(dp2055
g7
F-1.9459101490553132
sg8
VCHEMBL313825
p2056
sg10
I1
sbag2
(g3
g4
NtRp2057
(dp2058
g7
F-2.174751721484161
sg8
VCHEMBL83623
p2059
sg10
I1
sbag2
(g3
g4
NtRp2060
(dp2061
g7
F-6.6957989170584913
sg8
VCHEMBL188516
p2062
sg10
I1
sbag2
(g3
g4
NtRp2063
(dp2064
g7
F0.35667494393873245
sg8
VCHEMBL183263
p2065
sg10
I1
sbag2
(g3
g4
NtRp2066
(dp2067
g7
F1.2729656758128873
sg8
VCHEMBL178334
p2068
sg10
I1
sbag2
(g3
g4
NtRp2069
(dp2070
g7
F-3.784189633918261
sg8
VCHEMBL187311
p2071
sg10
I1
sbag2
(g3
g4
NtRp2072
(dp2073
g7
F-2.3978952727983707
sg8
VCHEMBL419110
p2074
sg10
I1
sbag2
(g3
g4
NtRp2075
(dp2076
g7
F-4.1907147860417941
sg8
VCHEMBL319678
p2077
sg10
I1
sbag2
(g3
g4
NtRp2078
(dp2079
g7
F-1.3711807233098425
sg8
VCHEMBL182157
p2080
sg10
I1
sbag2
(g3
g4
NtRp2081
(dp2082
g7
F-0
sg8
VCHEMBL267385
p2083
sg10
I1
sbag2
(g3
g4
NtRp2084
(dp2085
g7
F-0.69314718055994529
sg8
VCHEMBL489
p2086
sg10
I1
sbag2
(g3
g4
NtRp2087
(dp2088
g7
F-3.5553480614894135
sg8
VCHEMBL192260
p2089
sg10
I1
sbag2
(g3
g4
NtRp2090
(dp2091
g7
F-3.8292933578291501
sg8
VCHEMBL100595
p2092
sg10
I1
sbag2
(g3
g4
NtRp2093
(dp2094
g7
F0.916290731874155
sg8
VCHEMBL183467
p2095
sg10
I1
sbag2
(g3
g4
NtRp2096
(dp2097
g7
F-0
sg8
VCHEMBL329892
p2098
sg10
I1
sbag2
(g3
g4
NtRp2099
(dp2100
g7
F-3.9721769282478934
sg8
VCHEMBL89995
p2101
sg10
I1
sbag2
(g3
g4
NtRp2102
(dp2103
g7
F-6.0730445341004051
sg8
VCHEMBL189556
p2104
sg10
I1
sbag2
(g3
g4
NtRp2105
(dp2106
g7
F-6.253828811575473
sg8
VCHEMBL1231453
p2107
sg10
I1
sbag2
(g3
g4
NtRp2108
(dp2109
g7
F0.49429632181478012
sg8
VCHEMBL207324
p2110
sg10
I1
sbag2
(g3
g4
NtRp2111
(dp2112
g7
F-5.521460917862246
sg8
VCHEMBL204376
p2113
sg10
I1
sbag2
(g3
g4
NtRp2114
(dp2115
g7
F-4.0430512678345503
sg8
VCHEMBL460647
p2116
sg10
I1
sbag2
(g3
g4
NtRp2117
(dp2118
g7
F-5.3752784076841653
sg8
VCHEMBL216334
p2119
sg10
I1
sbag2
(g3
g4
NtRp2120
(dp2121
g7
F-6.4723462945009009
sg8
VCHEMBL385949
p2122
sg10
I1
sbag2
(g3
g4
NtRp2123
(dp2124
g7
F-5.8636311755980968
sg8
VCHEMBL378883
p2125
sg10
I1
sbag2
(g3
g4
NtRp2126
(dp2127
g7
F-4.3944491546724391
sg8
VCHEMBL215428
p2128
sg10
I1
sbag2
(g3
g4
NtRp2129
(dp2130
g7
F-3.5263605246161616
sg8
VCHEMBL214692
p2131
sg10
I1
sbag2
(g3
g4
NtRp2132
(dp2133
g7
F-5.3612921657094255
sg8
VCHEMBL372783
p2134
sg10
I1
sbag2
(g3
g4
NtRp2135
(dp2136
g7
F-4.7004803657924166
sg8
VCHEMBL250110
p2137
sg10
I1
sbag2
(g3
g4
NtRp2138
(dp2139
g7
F-6.1377270540862341
sg8
VCHEMBL188299
p2140
sg10
I1
sbag2
(g3
g4
NtRp2141
(dp2142
g7
F-2.1282317058492679
sg8
VCHEMBL469511
p2143
sg10
I1
sbag2
(g3
g4
NtRp2144
(dp2145
g7
F-5.4071717714601188
sg8
VCHEMBL211953
p2146
sg10
I1
sbag2
(g3
g4
NtRp2147
(dp2148
g7
F-5.5174528964647074
sg8
VCHEMBL214034
p2149
sg10
I1
sbag2
(g3
g4
NtRp2150
(dp2151
g7
F-5.4380793089231956
sg8
VCHEMBL211666
p2152
sg10
I1
sbag2
(g3
g4
NtRp2153
(dp2154
g7
F-5.43372200355424
sg8
VCHEMBL206500
p2155
sg10
I1
sbag2
(g3
g4
NtRp2156
(dp2157
g7
F-6.0753460310886842
sg8
VCHEMBL206439
p2158
sg10
I1
sbag2
(g3
g4
NtRp2159
(dp2160
g7
F-4.4886363697321396
sg8
VCHEMBL10560
p2161
sg10
I1
sbag2
(g3
g4
NtRp2162
(dp2163
g7
F-6.9077552789821368
sg8
VCHEMBL1087290
p2164
sg10
I1
sbag2
(g3
g4
NtRp2165
(dp2166
g7
F-0.87546873735389985
sg8
VCHEMBL1086774
p2167
sg10
I1
sbag2
(g3
g4
NtRp2168
(dp2169
g7
F-5.0106352940962555
sg8
VCHEMBL1087040
p2170
sg10
I1
sbag2
(g3
g4
NtRp2171
(dp2172
g7
F-1.824549292051046
sg8
VCHEMBL1088337
p2173
sg10
I1
sbag2
(g3
g4
NtRp2174
(dp2175
g7
F-1.6094379124341003
sg8
VCHEMBL1088629
p2176
sg10
I1
sbag2
(g3
g4
NtRp2177
(dp2178
g7
F-4.9972122737641147
sg8
VCHEMBL231810
p2179
sg10
I1
sbag2
(g3
g4
NtRp2180
(dp2181
g7
F-2.1972245773362196
sg8
VCHEMBL1088483
p2182
sg10
I1
sbag2
(g3
g4
NtRp2183
(dp2184
g7
F-4.4067192472642533
sg8
VCHEMBL1222036
p2185
sg10
I1
sbag2
(g3
g4
NtRp2186
(dp2187
g7
F-6.678342114654332
sg8
VCHEMBL1082743
p2188
sg10
I1
sbag2
(g3
g4
NtRp2189
(dp2190
g7
F-2.33214389523559
sg8
VCHEMBL192621
p2191
sg10
I1
sbag2
(g3
g4
NtRp2192
(dp2193
g7
F-2.1972245773362196
sg8
VCHEMBL192586
p2194
sg10
I1
sbag2
(g3
g4
NtRp2195
(dp2196
g7
F-3.912023005428146
sg8
VCHEMBL434577
p2197
sg10
I1
sbag2
(g3
g4
NtRp2198
(dp2199
g7
F-5.7365722974791922
sg8
VCHEMBL384708
p2200
sg10
I1
sbag2
(g3
g4
NtRp2201
(dp2202
g7
F-4.6539603501575231
sg8
VCHEMBL221626
p2203
sg10
I1
sbag2
(g3
g4
NtRp2204
(dp2205
g7
F-3.6888794541139363
sg8
VCHEMBL222452
p2206
sg10
I1
sbag2
(g3
g4
NtRp2207
(dp2208
g7
F-6.9077552789821368
sg8
VCHEMBL219467
p2209
sg10
I1
sbag2
(g3
g4
NtRp2210
(dp2211
g7
F-6.9077552789821368
sg8
VCHEMBL592043
p2212
sg10
I1
sbag2
(g3
g4
NtRp2213
(dp2214
g7
F-2.3978952727983707
sg8
VCHEMBL1085668
p2215
sg10
I1
sbag2
(g3
g4
NtRp2216
(dp2217
g7
F-2.1633230256605378
sg8
VCHEMBL1084922
p2218
sg10
I1
sbag2
(g3
g4
NtRp2219
(dp2220
g7
F-5.7137328055093688
sg8
VCHEMBL205070
p2221
sg10
I1
sbag2
(g3
g4
NtRp2222
(dp2223
g7
F-6.2146080984221914
sg8
VCHEMBL203860
p2224
sg10
I1
sbag2
(g3
g4
NtRp2225
(dp2226
g7
F0.51082562376599072
sg8
VCHEMBL372337
p2227
sg10
I1
sbag2
(g3
g4
NtRp2228
(dp2229
g7
F0.10536051565782628
sg8
VCHEMBL180995
p2230
sg10
I1
sbag2
(g3
g4
NtRp2231
(dp2232
g7
F-5.0562458053483077
sg8
VCHEMBL203123
p2233
sg10
I1
sbag2
(g3
g4
NtRp2234
(dp2235
g7
F-4.6913478822291435
sg8
VCHEMBL381976
p2236
sg10
I1
sbag2
(g3
g4
NtRp2237
(dp2238
g7
F-2.6390573296152584
sg8
VCHEMBL201834
p2239
sg10
I1
sbag2
(g3
g4
NtRp2240
(dp2241
g7
F-6.0867747269123065
sg8
VCHEMBL213457
p2242
sg10
I1
sbag2
(g3
g4
NtRp2243
(dp2244
g7
F-4.9416424226093039
sg8
VCHEMBL211358
p2245
sg10
I1
sbag2
(g3
g4
NtRp2246
(dp2247
g7
F-5.8289456176102075
sg8
VCHEMBL214291
p2248
sg10
I1
sbag2
(g3
g4
NtRp2249
(dp2250
g7
F-6.4297194780391376
sg8
VCHEMBL424725
p2251
sg10
I1
sbag2
(g3
g4
NtRp2252
(dp2253
g7
F-5.9401712527204316
sg8
VCHEMBL210063
p2254
sg10
I1
sbag2
(g3
g4
NtRp2255
(dp2256
g7
F-5.5606816310155276
sg8
VCHEMBL385514
p2257
sg10
I1
sbag2
(g3
g4
NtRp2258
(dp2259
g7
F-3.4339872044851463
sg8
VCHEMBL240230
p2260
sg10
I1
sbag2
(g3
g4
NtRp2261
(dp2262
g7
F-6.0867747269123065
sg8
VCHEMBL394213
p2263
sg10
I1
sbag2
(g3
g4
NtRp2264
(dp2265
g7
F-3.6888794541139363
sg8
VCHEMBL193146
p2266
sg10
I1
sbag2
(g3
g4
NtRp2267
(dp2268
g7
F-5.3518581334760666
sg8
VCHEMBL191974
p2269
sg10
I1
sbag2
(g3
g4
NtRp2270
(dp2271
g7
F-6.3189681137464344
sg8
VCHEMBL309245
p2272
sg10
I1
sbag2
(g3
g4
NtRp2273
(dp2274
g7
F-2.3025850929940459
sg8
VCHEMBL193108
p2275
sg10
I1
sbag2
(g3
g4
NtRp2276
(dp2277
g7
F0.69314718055994529
sg8
VCHEMBL182794
p2278
sg10
I1
sbag2
(g3
g4
NtRp2279
(dp2280
g7
F-3.4011973816621555
sg8
VCHEMBL150461
p2281
sg10
I1
sbag2
(g3
g4
NtRp2282
(dp2283
g7
F-2.3978952727983707
sg8
VCHEMBL104367
p2284
sg10
I1
sbag2
(g3
g4
NtRp2285
(dp2286
g7
F0.51082562376599072
sg8
VCHEMBL46740
p2287
sg10
I1
sbag2
(g3
g4
NtRp2288
(dp2289
g7
F-3.2347491740244907
sg8
VCHEMBL441457
p2290
sg10
I1
sbag2
(g3
g4
NtRp2291
(dp2292
g7
F-5.2470240721604862
sg8
VCHEMBL189287
p2293
sg10
I1
sbag2
(g3
g4
NtRp2294
(dp2295
g7
F-3.9815490680767565
sg8
VCHEMBL93326
p2296
sg10
I1
sbag2
(g3
g4
NtRp2297
(dp2298
g7
F-2.0794415416798357
sg8
VCHEMBL93391
p2299
sg10
I1
sbag2
(g3
g4
NtRp2300
(dp2301
g7
F-6.2225762680713688
sg8
VCHEMBL198089
p2302
sg10
I1
sbag2
(g3
g4
NtRp2303
(dp2304
g7
F-3.1354942159291497
sg8
VCHEMBL185012
p2305
sg10
I1
sbag2
(g3
g4
NtRp2306
(dp2307
g7
F-0.83290912293510388
sg8
VCHEMBL122237
p2308
sg10
I1
sbag2
(g3
g4
NtRp2309
(dp2310
g7
F0.22314355131420971
sg8
VCHEMBL361005
p2311
sg10
I1
sbag2
(g3
g4
NtRp2312
(dp2313
g7
F0.69314718055994529
sg8
VCHEMBL184679
p2314
sg10
I1
sbag2
(g3
g4
NtRp2315
(dp2316
g7
F-2.0794415416798357
sg8
VCHEMBL187105
p2317
sg10
I1
sbag2
(g3
g4
NtRp2318
(dp2319
g7
F-4.5643481914678361
sg8
VCHEMBL1405
p2320
sg10
I1
sbag2
(g3
g4
NtRp2321
(dp2322
g7
F-3.6841181370122258
sg8
VCHEMBL98558
p2323
sg10
I1
sbag2
(g3
g4
NtRp2324
(dp2325
g7
F-5.0434251169192468
sg8
VCHEMBL188528
p2326
sg10
I1
sbag2
(g3
g4
NtRp2327
(dp2328
g7
F1.2039728043259361
sg8
VCHEMBL181368
p2329
sg10
I1
sbag2
(g3
g4
NtRp2330
(dp2331
g7
F-5.5373342670185366
sg8
VCHEMBL195290
p2332
sg10
I1
sbag2
(g3
g4
NtRp2333
(dp2334
g7
F-3.5550623063795967
sg8
VCHEMBL103294
p2335
sg10
I1
sbag2
(g3
g4
NtRp2336
(dp2337
g7
F-3.6635616461296463
sg8
VCHEMBL363412
p2338
sg10
I1
sbag2
(g3
g4
NtRp2339
(dp2340
g7
F-6.9077552789821368
sg8
VCHEMBL79335
p2341
sg10
I1
sbag2
(g3
g4
NtRp2342
(dp2343
g7
F-3.1179499062782403
sg8
VCHEMBL327471
p2344
sg10
I1
sbag2
(g3
g4
NtRp2345
(dp2346
g7
F-3.6888794541139363
sg8
VCHEMBL195389
p2347
sg10
I1
sbag2
(g3
g4
NtRp2348
(dp2349
g7
F-5.3471075307174685
sg8
VCHEMBL360189
p2350
sg10
I1
sbag2
(g3
g4
NtRp2351
(dp2352
g7
F-1.824549292051046
sg8
VCHEMBL71585
p2353
sg10
I1
sbag2
(g3
g4
NtRp2354
(dp2355
g7
F-3.2950958507796098
sg8
VCHEMBL100763
p2356
sg10
I1
sbag2
(g3
g4
NtRp2357
(dp2358
g7
F-1.9878743481543455
sg8
VCHEMBL365484
p2359
sg10
I1
sbag2
(g3
g4
NtRp2360
(dp2361
g7
F-6.9077552789821368
sg8
VCHEMBL103
p2362
sg10
I1
sbag2
(g3
g4
NtRp2363
(dp2364
g7
F-3.4242626545931514
sg8
VCHEMBL91052
p2365
sg10
I1
sbag2
(g3
g4
NtRp2366
(dp2367
g7
F-6.9077552789821368
sg8
VCHEMBL311034
p2368
sg10
I1
sbag2
(g3
g4
NtRp2369
(dp2370
g7
F-3.5524868292083815
sg8
VCHEMBL92335
p2371
sg10
I1
sbag2
(g3
g4
NtRp2372
(dp2373
g7
F-3.5553480614894135
sg8
VCHEMBL189077
p2374
sg10
I1
sbag2
(g3
g4
NtRp2375
(dp2376
g7
F-3.4657359027997265
sg8
VCHEMBL1627351
p2377
sg10
I1
sbag2
(g3
g4
NtRp2378
(dp2379
g7
F-3.8918202981106265
sg8
VCHEMBL360338
p2380
sg10
I1
sbag2
(g3
g4
NtRp2381
(dp2382
g7
F-0.97455963999813078
sg8
VCHEMBL178857
p2383
sg10
I1
sbag2
(g3
g4
NtRp2384
(dp2385
g7
F-3.7541989202345789
sg8
VCHEMBL90008
p2386
sg10
I1
sbag2
(g3
g4
NtRp2387
(dp2388
g7
F-6.7031881132408628
sg8
VCHEMBL188882
p2389
sg10
I1
sbag2
(g3
g4
NtRp2390
(dp2391
g7
F-5.3423342519648109
sg8
VCHEMBL360385
p2392
sg10
I1
sbag2
(g3
g4
NtRp2393
(dp2394
g7
F0.69314718055994529
sg8
VCHEMBL182980
p2395
sg10
I1
sbag2
(g3
g4
NtRp2396
(dp2397
g7
F-4.7535901911063645
sg8
VCHEMBL195039
p2398
sg10
I1
sbag2
(g3
g4
NtRp2399
(dp2400
g7
F-3.6633052029945059
sg8
VCHEMBL319211
p2401
sg10
I1
sbag2
(g3
g4
NtRp2402
(dp2403
g7
F-2.5649493574615367
sg8
VCHEMBL180085
p2404
sg10
I1
sbag2
(g3
g4
NtRp2405
(dp2406
g7
F-0.87546873735389985
sg8
VCHEMBL183162
p2407
sg10
I1
sbag2
(g3
g4
NtRp2408
(dp2409
g7
F1.2039728043259361
sg8
VCHEMBL427324
p2410
sg10
I1
sbag2
(g3
g4
NtRp2411
(dp2412
g7
F-3.912023005428146
sg8
VCHEMBL357824
p2413
sg10
I1
sbag2
(g3
g4
NtRp2414
(dp2415
g7
F-1.3862943611198906
sg8
VCHEMBL1087418
p2416
sg10
I1
sbag2
(g3
g4
NtRp2417
(dp2418
g7
F-5.4939663835528538
sg8
VCHEMBL1094732
p2419
sg10
I1
sbag2
(g3
g4
NtRp2420
(dp2421
g7
F-4.3081109517237133
sg8
VCHEMBL1097377
p2422
sg10
I1
sbag2
(g3
g4
NtRp2423
(dp2424
g7
F-6.1527326947041043
sg8
VCHEMBL425246
p2425
sg10
I1
sbag2
(g3
g4
NtRp2426
(dp2427
g7
F-6.4967749901858625
sg8
VCHEMBL380032
p2428
sg10
I1
sbag2
(g3
g4
NtRp2429
(dp2430
g7
F-3.8286413964890951
sg8
VCHEMBL211349
p2431
sg10
I1
sbag2
(g3
g4
NtRp2432
(dp2433
g7
F-4.4308167988433134
sg8
VCHEMBL234524
p2434
sg10
I1
sbag2
(g3
g4
NtRp2435
(dp2436
g7
F-6.6871086078665147
sg8
VCHEMBL396947
p2437
sg10
I1
sbag2
(g3
g4
NtRp2438
(dp2439
g7
F-6.261491684321042
sg8
VCHEMBL203340
p2440
sg10
I1
sbag2
(g3
g4
NtRp2441
(dp2442
g7
F-6.3716118472318568
sg8
VCHEMBL380720
p2443
sg10
I1
sbag2
(g3
g4
NtRp2444
(dp2445
g7
F-6.9077552789821368
sg8
VCHEMBL205614
p2446
sg10
I1
sbag2
(g3
g4
NtRp2447
(dp2448
g7
F-2.9957322735539909
sg8
VCHEMBL481189
p2449
sg10
I1
sbag2
(g3
g4
NtRp2450
(dp2451
g7
F-6.9077552789821368
sg8
VCHEMBL519599
p2452
sg10
I1
sbag2
(g3
g4
NtRp2453
(dp2454
g7
F-3.9512437185814275
sg8
VCHEMBL222453
p2455
sg10
I1
sbag2
(g3
g4
NtRp2456
(dp2457
g7
F-1.5040773967762742
sg8
VCHEMBL1087297
p2458
sg10
I1
sbag2
(g3
g4
NtRp2459
(dp2460
g7
F-1.4350845252893227
sg8
VCHEMBL1087426
p2461
sg10
I1
sbag2
(g3
g4
NtRp2462
(dp2463
g7
F-0.095310179804324935
sg8
VCHEMBL1088485
p2464
sg10
I1
sbag2
(g3
g4
NtRp2465
(dp2466
g7
F-4.6347289882296359
sg8
VCHEMBL183889
p2467
sg10
I1
sbag2
(g3
g4
NtRp2468
(dp2469
g7
F-6.9077552789821368
sg8
VCHEMBL1083805
p2470
sg10
I1
sbag2
(g3
g4
NtRp2471
(dp2472
g7
F-1.5686159179138452
sg8
VCHEMBL1085161
p2473
sg10
I1
sbag2
(g3
g4
NtRp2474
(dp2475
g7
F-1.8405496333974869
sg8
VCHEMBL1082864
p2476
sg10
I1
sbag2
(g3
g4
NtRp2477
(dp2478
g7
F-4.1271343850450917
sg8
VCHEMBL225514
p2479
sg10
I1
sbag2
(g3
g4
NtRp2480
(dp2481
g7
F-3.6109179126442243
sg8
VCHEMBL222454
p2482
sg10
I1
sbag2
(g3
g4
NtRp2483
(dp2484
g7
F-6.1202974189509503
sg8
VCHEMBL215593
p2485
sg10
I1
sbag2
(g3
g4
NtRp2486
(dp2487
g7
F-3.6109179126442243
sg8
VCHEMBL391909
p2488
sg10
I1
sbag2
(g3
g4
NtRp2489
(dp2490
g7
F-1.8870696490323797
sg8
VCHEMBL241256
p2491
sg10
I1
sbag2
(g3
g4
NtRp2492
(dp2493
g7
F-2.3125354238472138
sg8
VCHEMBL241484
p2494
sg10
I1
sbag2
(g3
g4
NtRp2495
(dp2496
g7
F-1.589235205116581
sg8
VCHEMBL396119
p2497
sg10
I1
sbag2
(g3
g4
NtRp2498
(dp2499
g7
F-2.1972245773362196
sg8
VCHEMBL1084129
p2500
sg10
I1
sbag2
(g3
g4
NtRp2501
(dp2502
g7
F-5.7430031878094825
sg8
VCHEMBL1085172
p2503
sg10
I1
sbag2
(g3
g4
NtRp2504
(dp2505
g7
F-5.6419070709381138
sg8
VCHEMBL372030
p2506
sg10
I1
sbag2
(g3
g4
NtRp2507
(dp2508
g7
F-6.7638849085624351
sg8
VCHEMBL382873
p2509
sg10
I1
sbag2
(g3
g4
NtRp2510
(dp2511
g7
F-3.6888794541139363
sg8
VCHEMBL202155
p2512
sg10
I1
sbag2
(g3
g4
NtRp2513
(dp2514
g7
F-6.0520891689244172
sg8
VCHEMBL437065
p2515
sg10
I1
sbag2
(g3
g4
NtRp2516
(dp2517
g7
F-6.4457198193855785
sg8
VCHEMBL381495
p2518
sg10
I1
sbag2
(g3
g4
NtRp2519
(dp2520
g7
F0.69314718055994529
sg8
VCHEMBL92748
p2521
sg10
I1
sbag2
(g3
g4
NtRp2522
(dp2523
g7
F-3.068052935133617
sg8
VCHEMBL226267
p2524
sg10
I1
sbag2
(g3
g4
NtRp2525
(dp2526
g7
F-2.0541237336955462
sg8
VCHEMBL226268
p2527
sg10
I1
sbag2
(g3
g4
NtRp2528
(dp2529
g7
F-2.388762789235098
sg8
VCHEMBL226327
p2530
sg10
I1
sbag2
(g3
g4
NtRp2531
(dp2532
g7
F-6.5652649700353614
sg8
VCHEMBL213838
p2533
sg10
I1
sbag2
(g3
g4
NtRp2534
(dp2535
g7
F-5.6698809229805196
sg8
VCHEMBL190467
p2536
sg10
I1
sbag2
(g3
g4
NtRp2537
(dp2538
g7
F-5.1929568508902104
sg8
VCHEMBL192849
p2539
sg10
I1
sbag2
(g3
g4
NtRp2540
(dp2541
g7
F-5.4806389233419912
sg8
VCHEMBL205119
p2542
sg10
I1
sbag2
(g3
g4
NtRp2543
(dp2544
g7
F-2.7725887222397811
sg8
VCHEMBL202607
p2545
sg10
I1
sbag2
(g3
g4
NtRp2546
(dp2547
g7
F-1.9459101490553132
sg8
VCHEMBL371637
p2548
sg10
I1
sbag2
(g3
g4
NtRp2549
(dp2550
g7
F-6.1717005974109149
sg8
VCHEMBL204315
p2551
sg10
I1
sbag2
(g3
g4
NtRp2552
(dp2553
g7
F-5.6094717951849598
sg8
VCHEMBL210143
p2554
sg10
I1
sbag2
(g3
g4
NtRp2555
(dp2556
g7
F-3.9318256327243257
sg8
VCHEMBL208085
p2557
sg10
I1
sbag2
(g3
g4
NtRp2558
(dp2559
g7
F-4.6051701859880918
sg8
VCHEMBL383112
p2560
sg10
I1
sbag2
(g3
g4
NtRp2561
(dp2562
g7
F-4.7273878187123408
sg8
VCHEMBL209978
p2563
sg10
I1
sbag2
(g3
g4
NtRp2564
(dp2565
g7
F-2.7080502011022101
sg8
VCHEMBL341367
p2566
sg10
I1
sbag2
(g3
g4
NtRp2567
(dp2568
g7
F-2.1972245773362196
sg8
VCHEMBL357283
p2569
sg10
I1
sbag2
(g3
g4
NtRp2570
(dp2571
g7
F-5.9712618397904622
sg8
VCHEMBL216596
p2572
sg10
I1
sbag2
(g3
g4
NtRp2573
(dp2574
g7
F-5.2626901889048856
sg8
VCHEMBL1628029
p2575
sg10
I1
sbag2
(g3
g4
NtRp2576
(dp2577
g7
F-5.5174528964647074
sg8
VCHEMBL188517
p2578
sg10
I1
sbag2
(g3
g4
NtRp2579
(dp2580
g7
F-2.1713368063840917
sg8
VCHEMBL513397
p2581
sg10
I1
sbag2
(g3
g4
NtRp2582
(dp2583
g7
F-0
sg8
VCHEMBL121720
p2584
sg10
I1
sbag2
(g3
g4
NtRp2585
(dp2586
g7
F-6.694562058521095
sg8
VCHEMBL1162
p2587
sg10
I1
sbag2
(g3
g4
NtRp2588
(dp2589
g7
F-5.7589017738772803
sg8
VCHEMBL245378
p2590
sg10
I1
sbag2
(g3
g4
NtRp2591
(dp2592
g7
F-6.4614681763537174
sg8
VCHEMBL249700
p2593
sg10
I1
sbag2
(g3
g4
NtRp2594
(dp2595
g7
F-6.5072777123850116
sg8
VCHEMBL457035
p2596
sg10
I1
sbag2
(g3
g4
NtRp2597
(dp2598
g7
F-0.10436001532424286
sg8
VCHEMBL1818254
p2599
sg10
I1
sbag2
(g3
g4
NtRp2600
(dp2601
g7
F-4.4543472962535073
sg8
VCHEMBL1782331
p2602
sg10
I1
sbag2
(g3
g4
NtRp2603
(dp2604
g7
F-6.0714303287458637
sg8
VCHEMBL2103774
p2605
sg10
I1
sbag2
(g3
g4
NtRp2606
(dp2607
g7
F1.6094379124341003
sg8
VCHEMBL2024377
p2608
sg10
I1
sbag2
(g3
g4
NtRp2609
(dp2610
g7
F0.51082562376599072
sg8
VCHEMBL2024376
p2611
sg10
I1
sbag2
(g3
g4
NtRp2612
(dp2613
g7
F-0.40546510810816438
sg8
VCHEMBL2113002
p2614
sg10
I1
sbag2
(g3
g4
NtRp2615
(dp2616
g7
F-1.0986122886681098
sg8
VCHEMBL2111532
p2617
sg10
I1
sbag2
(g3
g4
NtRp2618
(dp2619
g7
F-5.4595855141441589
sg8
VCHEMBL2112469
p2620
sg10
I1
sbag2
(g3
g4
NtRp2621
(dp2622
g7
F-0.095310179804324935
sg8
VCHEMBL2113027
p2623
sg10
I1
sbag2
(g3
g4
NtRp2624
(dp2625
g7
F0.030459207484708574
sg8
VCHEMBL2113001
p2626
sg10
I1
sbag2
(g3
g4
NtRp2627
(dp2628
g7
F-5.6698809229805196
sg8
VCHEMBL2071180
p2629
sg10
I1
sbag2
(g3
g4
NtRp2630
(dp2631
g7
F-5.1357984370502621
sg8
VCHEMBL1208076
p2632
sg10
I1
sbag2
(g3
g4
NtRp2633
(dp2634
g7
F-4.5951198501345898
sg8
VCHEMBL2403361
p2635
sg10
I1
sbag2
(g3
g4
NtRp2636
(dp2637
g7
F-6.1944053911046719
sg8
VCHEMBL2403363
p2638
sg10
I1
sbag2
(g3
g4
NtRp2639
(dp2640
g7
F-4.7004803657924166
sg8
VCHEMBL2403346
p2641
sg10
I1
sbag2
(g3
g4
NtRp2642
(dp2643
g7
F-2.6390573296152584
sg8
VCHEMBL2403357
p2644
sg10
I1
sbag2
(g3
g4
NtRp2645
(dp2646
g7
F-5.4380793089231956
sg8
VCHEMBL2403359
p2647
sg10
I1
sbag2
(g3
g4
NtRp2648
(dp2649
g7
F-4.4308167988433134
sg8
VCHEMBL2403358
p2650
sg10
I1
sbag2
(g3
g4
NtRp2651
(dp2652
g7
F-5.4380793089231956
sg8
VCHEMBL2403360
p2653
sg10
I1
sbag2
(g3
g4
NtRp2654
(dp2655
g7
F-4.8441870864585912
sg8
VCHEMBL2401849
p2656
sg10
I1
sbag2
(g3
g4
NtRp2657
(dp2658
g7
F-4.3694478524670215
sg8
VCHEMBL2403362
p2659
sg10
I1
sbag2
(g3
g4
NtRp2660
(dp2661
g7
F-4.2766661190160553
sg8
VCHEMBL2403349
p2662
sg10
I1
sbag2
(g3
g4
NtRp2663
(dp2664
g7
F-1.589235205116581
sg8
VCHEMBL2403356
p2665
sg10
I1
sbag2
(g3
g4
NtRp2666
(dp2667
g7
F-5.5134287461649825
sg8
VCHEMBL2401848
p2668
sg10
I1
sbag2
(g3
g4
NtRp2669
(dp2670
g7
F-4.5849674786705723
sg8
VCHEMBL2403348
p2671
sg10
I1
sbag2
(g3
g4
NtRp2672
(dp2673
g7
F-4.3040650932041702
sg8
VCHEMBL2403347
p2674
sg10
I1
sbag2
(g3
g4
NtRp2675
(dp2676
g7
F-3.2188758248682006
sg8
VCHEMBL2403355
p2677
sg10
I1
sba.