(lp1
ccopy_reg
_reconstructor
p2
(cdatamining.molecule
Molecule
p3
c__builtin__
object
p4
NtRp5
(dp6
S'pIC'
p7
F-2.258633205464863
sS'id'
p8
VCHEMBL219763
p9
sbag2
(g3
g4
NtRp10
(dp11
g7
F-5.6131281063880705
sg8
VCHEMBL92720
p12
sbag2
(g3
g4
NtRp13
(dp14
g7
F-3.2108436531709366
sg8
VCHEMBL330307
p15
sbag2
(g3
g4
NtRp16
(dp17
g7
F-1.791759469228055
sg8
VCHEMBL370037
p18
sbag2
(g3
g4
NtRp19
(dp20
g7
F-3.5553480614894135
sg8
VCHEMBL315761
p21
sbag2
(g3
g4
NtRp22
(dp23
g7
F-0.26236426446749106
sg8
VCHEMBL180300
p24
sbag2
(g3
g4
NtRp25
(dp26
g7
F-4.7361984483944957
sg8
VCHEMBL365290
p27
sbag2
(g3
g4
NtRp28
(dp29
g7
F-6.2672005485413624
sg8
VCHEMBL191648
p30
sbag2
(g3
g4
NtRp31
(dp32
g7
F-0.78845736036427028
sg8
VCHEMBL184431
p33
sbag2
(g3
g4
NtRp34
(dp35
g7
F-6.3261494731550991
sg8
VCHEMBL364551
p36
sbag2
(g3
g4
NtRp37
(dp38
g7
F-1.6094379124341003
sg8
VCHEMBL124482
p39
sbag2
(g3
g4
NtRp40
(dp41
g7
F-5.5053315359323625
sg8
VCHEMBL198410
p42
sbag2
(g3
g4
NtRp43
(dp44
g7
F-1.547562508716013
sg8
VCHEMBL420068
p45
sbag2
(g3
g4
NtRp46
(dp47
g7
F-4.7273878187123408
sg8
VCHEMBL1200324
p48
sbag2
(g3
g4
NtRp49
(dp50
g7
F-1.7047480922384253
sg8
VCHEMBL93793
p51
sbag2
(g3
g4
NtRp52
(dp53
g7
F-1.9169226121820611
sg8
VCHEMBL184448
p54
sbag2
(g3
g4
NtRp55
(dp56
g7
F-4.8121843553724171
sg8
VCHEMBL195466
p57
sbag2
(g3
g4
NtRp58
(dp59
g7
F-0
sg8
VCHEMBL183049
p60
sbag2
(g3
g4
NtRp61
(dp62
g7
F-5.3471075307174685
sg8
VCHEMBL77135
p63
sbag2
(g3
g4
NtRp64
(dp65
g7
F0.22314355131420971
sg8
VCHEMBL183092
p66
sbag2
(g3
g4
NtRp67
(dp68
g7
F-5.1929568508902104
sg8
VCHEMBL78413
p69
sbag2
(g3
g4
NtRp70
(dp71
g7
F-3.0440461338325417
sg8
VCHEMBL316080
p72
sbag2
(g3
g4
NtRp73
(dp74
g7
F-5.0106352940962555
sg8
VCHEMBL434502
p75
sbag2
(g3
g4
NtRp76
(dp77
g7
F-3.4965075614664802
sg8
VCHEMBL1628199
p78
sbag2
(g3
g4
NtRp79
(dp80
g7
F-6.6463905148477291
sg8
VCHEMBL411
p81
sbag2
(g3
g4
NtRp82
(dp83
g7
F-1.3862943611198906
sg8
VCHEMBL123025
p84
sbag2
(g3
g4
NtRp85
(dp86
g7
F-5.9322451874480109
sg8
VCHEMBL153062
p87
sbag2
(g3
g4
NtRp88
(dp89
g7
F-3.6635616461296463
sg8
VCHEMBL83
p90
sbag2
(g3
g4
NtRp91
(dp92
g7
F-4.0604430105464191
sg8
VCHEMBL34679
p93
sbag2
(g3
g4
NtRp94
(dp95
g7
F-0.91629073187415511
sg8
VCHEMBL328716
p96
sbag2
(g3
g4
NtRp97
(dp98
g7
F-1.0986122886681098
sg8
VCHEMBL315271
p99
sbag2
(g3
g4
NtRp100
(dp101
g7
F-6.5889264775335192
sg8
VCHEMBL188049
p102
sbag2
(g3
g4
NtRp103
(dp104
g7
F-4.7874917427820458
sg8
VCHEMBL1462307
p105
sbag2
(g3
g4
NtRp106
(dp107
g7
F-2.5649493574615367
sg8
VCHEMBL1087419
p108
sbag2
(g3
g4
NtRp109
(dp110
g7
F-5.2470240721604862
sg8
VCHEMBL1087041
p111
sbag2
(g3
g4
NtRp112
(dp113
g7
F-6.9077552789821368
sg8
VCHEMBL1348802
p114
sbag2
(g3
g4
NtRp115
(dp116
g7
F-4.2484952420493594
sg8
VCHEMBL1322939
p117
sbag2
(g3
g4
NtRp118
(dp119
g7
F-0
sg8
VCHEMBL1253498
p120
sbag2
(g3
g4
NtRp121
(dp122
g7
F-0.58778666490211906
sg8
VCHEMBL184372
p123
sbag2
(g3
g4
NtRp124
(dp125
g7
F-1.1939224684724346
sg8
VCHEMBL1083186
p126
sbag2
(g3
g4
NtRp127
(dp128
g7
F-4.1588830833596715
sg8
VCHEMBL1085429
p129
sbag2
(g3
g4
NtRp130
(dp131
g7
F-1.6094379124341003
sg8
VCHEMBL1084128
p132
sbag2
(g3
g4
NtRp133
(dp134
g7
F-0.33647223662121289
sg8
VCHEMBL124474
p135
sbag2
(g3
g4
NtRp136
(dp137
g7
F-3.6109179126442243
sg8
VCHEMBL231811
p138
sbag2
(g3
g4
NtRp139
(dp140
g7
F-3.2188758248682006
sg8
VCHEMBL385801
p141
sbag2
(g3
g4
NtRp142
(dp143
g7
F-3.7128400915587796
sg8
VCHEMBL1087682
p144
sbag2
(g3
g4
NtRp145
(dp146
g7
F-0.47000362924573563
sg8
VCHEMBL1087811
p147
sbag2
(g3
g4
NtRp148
(dp149
g7
F-2.7725887222397811
sg8
VCHEMBL1086389
p150
sbag2
(g3
g4
NtRp151
(dp152
g7
F-1.1151415906193203
sg8
VCHEMBL427496
p153
sbag2
(g3
g4
NtRp154
(dp155
g7
F-5.1059454739005803
sg8
VCHEMBL225404
p156
sbag2
(g3
g4
NtRp157
(dp158
g7
F-4.5325994931532563
sg8
VCHEMBL222501
p159
sbag2
(g3
g4
NtRp160
(dp161
g7
F-2.8449093838194073
sg8
VCHEMBL226269
p162
sbag2
(g3
g4
NtRp163
(dp164
g7
F-6.6463905148477291
sg8
VCHEMBL1081361
p165
sbag2
(g3
g4
NtRp166
(dp167
g7
F-1.0473189942805592
sg8
VCHEMBL219003
p168
sbag2
(g3
g4
NtRp169
(dp170
g7
F-0.83290912293510388
sg8
VCHEMBL329902
p171
sbag2
(g3
g4
NtRp172
(dp173
g7
F-3.970291913552122
sg8
VCHEMBL235496
p174
sbag2
(g3
g4
NtRp175
(dp176
g7
F-4.0253516907351496
sg8
VCHEMBL235497
p177
sbag2
(g3
g4
NtRp178
(dp179
g7
F-5.7868973813667077
sg8
VCHEMBL1084913
p180
sbag2
(g3
g4
NtRp181
(dp182
g7
F-1.1939224684724346
sg8
VCHEMBL1082224
p183
sbag2
(g3
g4
NtRp184
(dp185
g7
F-1.5686159179138452
sg8
VCHEMBL1083194
p186
sbag2
(g3
g4
NtRp187
(dp188
g7
F0.51082562376599072
sg8
VCHEMBL184371
p189
sbag2
(g3
g4
NtRp190
(dp191
g7
F-5.8861040314501558
sg8
VCHEMBL188458
p192
sbag2
(g3
g4
NtRp193
(dp194
g7
F-5.2781146592305168
sg8
VCHEMBL361272
p195
sbag2
(g3
g4
NtRp196
(dp197
g7
F-0.91629073187415511
sg8
VCHEMBL431611
p198
sbag2
(g3
g4
NtRp199
(dp200
g7
F-4.6539603501575231
sg8
VCHEMBL33568
p201
sbag2
(g3
g4
NtRp202
(dp203
g7
F-2.5649493574615367
sg8
VCHEMBL241257
p204
sbag2
(g3
g4
NtRp205
(dp206
g7
F-5.1647859739235145
sg8
VCHEMBL396118
p207
sbag2
(g3
g4
NtRp208
(dp209
g7
F-1.4350845252893227
sg8
VCHEMBL1088344
p210
sbag2
(g3
g4
NtRp211
(dp212
g7
F-5.4806389233419912
sg8
VCHEMBL150279
p213
sbag2
(g3
g4
NtRp214
(dp215
g7
F-6.5750758405996201
sg8
VCHEMBL365625
p216
sbag2
(g3
g4
NtRp217
(dp218
g7
F-6.6528630293533473
sg8
VCHEMBL365016
p219
sbag2
(g3
g4
NtRp220
(dp221
g7
F-5.0106352940962555
sg8
VCHEMBL398841
p222
sbag2
(g3
g4
NtRp223
(dp224
g7
F-1.3609765531356006
sg8
VCHEMBL359774
p225
sbag2
(g3
g4
NtRp226
(dp227
g7
F-3.6635616461296463
sg8
VCHEMBL179929
p228
sbag2
(g3
g4
NtRp229
(dp230
g7
F-0.64185388617239469
sg8
VCHEMBL470993
p231
sbag2
(g3
g4
NtRp232
(dp233
g7
F-1.9021075263969205
sg8
VCHEMBL511269
p234
sbag2
(g3
g4
NtRp235
(dp236
g7
F-2.7850112422383382
sg8
VCHEMBL469512
p237
sbag2
(g3
g4
NtRp238
(dp239
g7
F-4.5325994931532563
sg8
VCHEMBL470785
p240
sbag2
(g3
g4
NtRp241
(dp242
g7
F-4.6051701859880918
sg8
VCHEMBL1087289
p243
sbag2
(g3
g4
NtRp244
(dp245
g7
F-0.91629073187415511
sg8
VCHEMBL1086776
p246
sbag2
(g3
g4
NtRp247
(dp248
g7
F-2.9449651565003379
sg8
VCHEMBL101382
p249
sbag2
(g3
g4
NtRp250
(dp251
g7
F-0.53062825106217038
sg8
VCHEMBL185114
p252
sbag2
(g3
g4
NtRp253
(dp254
g7
F-6.8834625864130921
sg8
VCHEMBL377171
p255
sbag2
(g3
g4
NtRp256
(dp257
g7
F-3.929862923556477
sg8
VCHEMBL385680
p258
sbag2
(g3
g4
NtRp259
(dp260
g7
F-6.1820849067166321
sg8
VCHEMBL204902
p261
sbag2
(g3
g4
NtRp262
(dp263
g7
F-5.4293456289544411
sg8
VCHEMBL206727
p264
sbag2
(g3
g4
NtRp265
(dp266
g7
F-4.6151205168412597
sg8
VCHEMBL206547
p267
sbag2
(g3
g4
NtRp268
(dp269
g7
F-2.341805806147327
sg8
VCHEMBL471626
p270
sbag2
(g3
g4
NtRp271
(dp272
g7
F-4.836281906951478
sg8
VCHEMBL511492
p273
sbag2
(g3
g4
NtRp274
(dp275
g7
F-4.4308167988433134
sg8
VCHEMBL212992
p276
sbag2
(g3
g4
NtRp277
(dp278
g7
F-3.3322045101752038
sg8
VCHEMBL93792
p279
sbag2
(g3
g4
NtRp280
(dp281
g7
F-4.836281906951478
sg8
VCHEMBL196836
p282
sbag2
(g3
g4
NtRp283
(dp284
g7
F-4.5108595065168497
sg8
VCHEMBL25228
p285
sbag2
(g3
g4
NtRp286
(dp287
g7
F-4.2710950739665998
sg8
VCHEMBL219390
p288
sbag2
(g3
g4
NtRp289
(dp290
g7
F-3.912023005428146
sg8
VCHEMBL328675
p291
sbag2
(g3
g4
NtRp292
(dp293
g7
F-5.2257466737132017
sg8
VCHEMBL194326
p294
sbag2
(g3
g4
NtRp295
(dp296
g7
F-6.3403593037277517
sg8
VCHEMBL209269
p297
sbag2
(g3
g4
NtRp298
(dp299
g7
F-6.8341087388138382
sg8
VCHEMBL33888
p300
sbag2
(g3
g4
NtRp301
(dp302
g7
F-1.7749523509116738
sg8
VCHEMBL93586
p303
sbag2
(g3
g4
NtRp304
(dp305
g7
F-3.4330189939851112
sg8
VCHEMBL328388
p306
sbag2
(g3
g4
NtRp307
(dp308
g7
F-1.3660916538023711
sg8
VCHEMBL385993
p309
sbag2
(g3
g4
NtRp310
(dp311
g7
F-3.8286413964890951
sg8
VCHEMBL523477
p312
sbag2
(g3
g4
NtRp313
(dp314
g7
F-3.6888794541139363
sg8
VCHEMBL191300
p315
sbag2
(g3
g4
NtRp316
(dp317
g7
F-4.0604430105464191
sg8
VCHEMBL447837
p318
sbag2
(g3
g4
NtRp319
(dp320
g7
F-1.547562508716013
sg8
VCHEMBL94280
p321
sbag2
(g3
g4
NtRp322
(dp323
g7
F-6.6592939196836376
sg8
VCHEMBL187314
p324
sbag2
(g3
g4
NtRp325
(dp326
g7
F-3.3032169733019514
sg8
VCHEMBL371308
p327
sbag2
(g3
g4
NtRp328
(dp329
g7
F-3.5835189384561099
sg8
VCHEMBL191710
p330
sbag2
(g3
g4
NtRp331
(dp332
g7
F-0.99325177301028345
sg8
VCHEMBL313941
p333
sbag2
(g3
g4
NtRp334
(dp335
g7
F-5.8749307308520304
sg8
VCHEMBL426085
p336
sbag2
(g3
g4
NtRp337
(dp338
g7
F-5.7930136083841441
sg8
VCHEMBL202691
p339
sbag2
(g3
g4
NtRp340
(dp341
g7
F-6.1758672701057611
sg8
VCHEMBL211493
p342
sbag2
(g3
g4
NtRp343
(dp344
g7
F-6.7833252006039597
sg8
VCHEMBL377475
p345
sbag2
(g3
g4
NtRp346
(dp347
g7
F-6.4409465406329209
sg8
VCHEMBL204024
p348
sbag2
(g3
g4
NtRp349
(dp350
g7
F0.51082562376599072
sg8
VCHEMBL183333
p351
sbag2
(g3
g4
NtRp352
(dp353
g7
F-0
sg8
VCHEMBL185231
p354
sbag2
(g3
g4
NtRp355
(dp356
g7
F-3.4404180948154366
sg8
VCHEMBL382734
p357
sbag2
(g3
g4
NtRp358
(dp359
g7
F-4.6913478822291435
sg8
VCHEMBL195807
p360
sbag2
(g3
g4
NtRp361
(dp362
g7
F-6.1944053911046719
sg8
VCHEMBL31127
p363
sbag2
(g3
g4
NtRp364
(dp365
g7
F0.69314718055994529
sg8
VCHEMBL198914
p366
sbag2
(g3
g4
NtRp367
(dp368
g7
F0.916290731874155
sg8
VCHEMBL372808
p369
sbag2
(g3
g4
NtRp370
(dp371
g7
F0.51082562376599072
sg8
VCHEMBL197495
p372
sbag2
(g3
g4
NtRp373
(dp374
g7
F-4.8283137373023015
sg8
VCHEMBL191901
p375
sbag2
(g3
g4
NtRp376
(dp377
g7
F-3.6888794541139363
sg8
VCHEMBL214207
p378
sbag2
(g3
g4
NtRp379
(dp380
g7
F-3.6375861597263857
sg8
VCHEMBL195216
p381
sbag2
(g3
g4
NtRp382
(dp383
g7
F-0
sg8
VCHEMBL241301
p384
sbag2
(g3
g4
NtRp385
(dp386
g7
F-2.5649493574615367
sg8
VCHEMBL241304
p387
sbag2
(g3
g4
NtRp388
(dp389
g7
F-3.0910424533583161
sg8
VCHEMBL241485
p390
sbag2
(g3
g4
NtRp391
(dp392
g7
F-1.3862943611198906
sg8
VCHEMBL437190
p393
sbag2
(g3
g4
NtRp394
(dp395
g7
F-3.6381123370602833
sg8
VCHEMBL101083
p396
sbag2
(g3
g4
NtRp397
(dp398
g7
F-1.9459101490553132
sg8
VCHEMBL50995
p399
sbag2
(g3
g4
NtRp400
(dp401
g7
F-0.26236426446749106
sg8
VCHEMBL182402
p402
sbag2
(g3
g4
NtRp403
(dp404
g7
F-4.9344739331306915
sg8
VCHEMBL188391
p405
sbag2
(g3
g4
NtRp406
(dp407
g7
F0.22314355131420971
sg8
VCHEMBL184598
p408
sbag2
(g3
g4
NtRp409
(dp410
g7
F-0.33647223662121289
sg8
VCHEMBL360315
p411
sbag2
(g3
g4
NtRp412
(dp413
g7
F-4.0073331852324712
sg8
VCHEMBL371777
p414
sbag2
(g3
g4
NtRp415
(dp416
g7
F-2.8903717578961645
sg8
VCHEMBL126164
p417
sbag2
(g3
g4
NtRp418
(dp419
g7
F-2.9856819377004897
sg8
VCHEMBL101719
p420
sbag2
(g3
g4
NtRp421
(dp422
g7
F-4.7184988712950942
sg8
VCHEMBL328475
p423
sbag2
(g3
g4
NtRp424
(dp425
g7
F-1.2527629684953681
sg8
VCHEMBL94225
p426
sbag2
(g3
g4
NtRp427
(dp428
g7
F-6.7844570626376433
sg8
VCHEMBL195786
p429
sbag2
(g3
g4
NtRp430
(dp431
g7
F-5.393627546352362
sg8
VCHEMBL441366
p432
sbag2
(g3
g4
NtRp433
(dp434
g7
F-6.7979404129749303
sg8
VCHEMBL384709
p435
sbag2
(g3
g4
NtRp436
(dp437
g7
F-5.2094861528414214
sg8
VCHEMBL189080
p438
sbag2
(g3
g4
NtRp439
(dp440
g7
F1.5141277326297755
sg8
VCHEMBL180707
p441
sbag2
(g3
g4
NtRp442
(dp443
g7
F-5.1873858058407549
sg8
VCHEMBL285632
p444
sbag2
(g3
g4
NtRp445
(dp446
g7
F-5.8141305318250662
sg8
VCHEMBL362272
p447
sbag2
(g3
g4
NtRp448
(dp449
g7
F0.35667494393873245
sg8
VCHEMBL367574
p450
sbag2
(g3
g4
NtRp451
(dp452
g7
F-5.598421958998375
sg8
VCHEMBL438516
p453
sbag2
(g3
g4
NtRp454
(dp455
g7
F0.52763274208237199
sg8
VCHEMBL219004
p456
sbag2
(g3
g4
NtRp457
(dp458
g7
F-4.1431347263915326
sg8
VCHEMBL195212
p459
sbag2
(g3
g4
NtRp460
(dp461
g7
F-3.6888794541139363
sg8
VCHEMBL425439
p462
sbag2
(g3
g4
NtRp463
(dp464
g7
F-4.8097423517168654
sg8
VCHEMBL93266
p465
sbag2
(g3
g4
NtRp466
(dp467
g7
F-4.5538768916005408
sg8
VCHEMBL395308
p468
sbag2
(g3
g4
NtRp469
(dp470
g7
F-3.044522437723423
sg8
VCHEMBL394788
p471
sbag2
(g3
g4
NtRp472
(dp473
g7
F-3.5835189384561099
sg8
VCHEMBL245133
p474
sbag2
(g3
g4
NtRp475
(dp476
g7
F-3.3662608117812591
sg8
VCHEMBL101807
p477
sbag2
(g3
g4
NtRp478
(dp479
g7
F-4.7273878187123408
sg8
VCHEMBL195208
p480
sbag2
(g3
g4
NtRp481
(dp482
g7
F-1.0986122886681098
sg8
VCHEMBL183584
p483
sbag2
(g3
g4
NtRp484
(dp485
g7
F-6.1092475827643655
sg8
VCHEMBL8145
p486
sbag2
(g3
g4
NtRp487
(dp488
g7
F-3.912023005428146
sg8
VCHEMBL435090
p489
sbag2
(g3
g4
NtRp490
(dp491
g7
F-2.8903717578961645
sg8
VCHEMBL1201151
p492
sbag2
(g3
g4
NtRp493
(dp494
g7
F-0.076961041136128394
sg8
VCHEMBL366928
p495
sbag2
(g3
g4
NtRp496
(dp497
g7
F-3.8914120515240218
sg8
VCHEMBL103305
p498
sbag2
(g3
g4
NtRp499
(dp500
g7
F-6.9077552789821368
sg8
VCHEMBL311662
p501
sbag2
(g3
g4
NtRp502
(dp503
g7
F-6.2519038831658884
sg8
VCHEMBL192068
p504
sbag2
(g3
g4
NtRp505
(dp506
g7
F-5.6094717951849598
sg8
VCHEMBL360651
p507
sbag2
(g3
g4
NtRp508
(dp509
g7
F-3.1780538303479458
sg8
VCHEMBL195878
p510
sbag2
(g3
g4
NtRp511
(dp512
g7
F-0.75141608868392118
sg8
VCHEMBL182237
p513
sbag2
(g3
g4
NtRp514
(dp515
g7
F-0.18232155679395459
sg8
VCHEMBL183086
p516
sbag2
(g3
g4
NtRp517
(dp518
g7
F-3.8066624897703196
sg8
VCHEMBL426641
p519
sbag2
(g3
g4
NtRp520
(dp521
g7
F-4.2341065045972597
sg8
VCHEMBL195465
p522
sbag2
(g3
g4
NtRp523
(dp524
g7
F-6.0161571596983539
sg8
VCHEMBL374799
p525
sbag2
(g3
g4
NtRp526
(dp527
g7
F-5.7203117766074119
sg8
VCHEMBL225349
p528
sbag2
(g3
g4
NtRp529
(dp530
g7
F-2.8903717578961645
sg8
VCHEMBL222434
p531
sbag2
(g3
g4
NtRp532
(dp533
g7
F-2.8903717578961645
sg8
VCHEMBL373743
p534
sbag2
(g3
g4
NtRp535
(dp536
g7
F-3.970291913552122
sg8
VCHEMBL451496
p537
sbag2
(g3
g4
NtRp538
(dp539
g7
F-5.9295891433898946
sg8
VCHEMBL186643
p540
sbag2
(g3
g4
NtRp541
(dp542
g7
F-0.40546510810816438
sg8
VCHEMBL362718
p543
sbag2
(g3
g4
NtRp544
(dp545
g7
F-6.7452363494843626
sg8
VCHEMBL74758
p546
sbag2
(g3
g4
NtRp547
(dp548
g7
F-0.47000362924573563
sg8
VCHEMBL418327
p549
sbag2
(g3
g4
NtRp550
(dp551
g7
F-6.1944053911046719
sg8
VCHEMBL83451
p552
sbag2
(g3
g4
NtRp553
(dp554
g7
F-5.1929568508902104
sg8
VCHEMBL77609
p555
sbag2
(g3
g4
NtRp556
(dp557
g7
F-5.5606816310155276
sg8
VCHEMBL187207
p558
sbag2
(g3
g4
NtRp559
(dp560
g7
F-3.8918202981106265
sg8
VCHEMBL284453
p561
sbag2
(g3
g4
NtRp562
(dp563
g7
F0.35667494393873245
sg8
VCHEMBL181248
p564
sbag2
(g3
g4
NtRp565
(dp566
g7
F0.10536051565782628
sg8
VCHEMBL183371
p567
sbag2
(g3
g4
NtRp568
(dp569
g7
F-4.0604430105464191
sg8
VCHEMBL439806
p570
sbag2
(g3
g4
NtRp571
(dp572
g7
F-3.8066624897703196
sg8
VCHEMBL180538
p573
sbag2
(g3
g4
NtRp574
(dp575
g7
F-2.6390573296152584
sg8
VCHEMBL30950
p576
sbag2
(g3
g4
NtRp577
(dp578
g7
F-1.2809338454620642
sg8
VCHEMBL121879
p579
sbag2
(g3
g4
NtRp580
(dp581
g7
F-5.2203558250783244
sg8
VCHEMBL427533
p582
sbag2
(g3
g4
NtRp583
(dp584
g7
F-2.3025850929940459
sg8
VCHEMBL373095
p585
sbag2
(g3
g4
NtRp586
(dp587
g7
F-5.0751738152338266
sg8
VCHEMBL93207
p588
sbag2
(g3
g4
NtRp589
(dp590
g7
F-0.33647223662121289
sg8
VCHEMBL178470
p591
sbag2
(g3
g4
NtRp592
(dp593
g7
F-0.69314718055994529
sg8
VCHEMBL185480
p594
sbag2
(g3
g4
NtRp595
(dp596
g7
F-3.2958368660043291
sg8
VCHEMBL389683
p597
sbag2
(g3
g4
NtRp598
(dp599
g7
F-6.5012896705403893
sg8
VCHEMBL449038
p600
sbag2
(g3
g4
NtRp601
(dp602
g7
F-4.7184988712950942
sg8
VCHEMBL225022
p603
sbag2
(g3
g4
NtRp604
(dp605
g7
F-6.0935697700451357
sg8
VCHEMBL389393
p606
sbag2
(g3
g4
NtRp607
(dp608
g7
F-4.499809670330265
sg8
VCHEMBL218220
p609
sbag2
(g3
g4
NtRp610
(dp611
g7
F-0.69314718055994529
sg8
VCHEMBL360802
p612
sbag2
(g3
g4
NtRp613
(dp614
g7
F-1.4816045409242156
sg8
VCHEMBL332625
p615
sbag2
(g3
g4
NtRp616
(dp617
g7
F-5.5834963087816991
sg8
VCHEMBL194936
p618
sbag2
(g3
g4
NtRp619
(dp620
g7
F-5.3471075307174685
sg8
VCHEMBL192154
p621
sbag2
(g3
g4
NtRp622
(dp623
g7
F-0.26236426446749106
sg8
VCHEMBL91758
p624
sbag2
(g3
g4
NtRp625
(dp626
g7
F-0.47000362924573563
sg8
VCHEMBL71584
p627
sbag2
(g3
g4
NtRp628
(dp629
g7
F-0.26236426446749106
sg8
VCHEMBL433581
p630
sbag2
(g3
g4
NtRp631
(dp632
g7
F-3.5251833614431467
sg8
VCHEMBL100617
p633
sbag2
(g3
g4
NtRp634
(dp635
g7
F-4.2621163380013236
sg8
VCHEMBL434346
p636
sbag2
(g3
g4
NtRp637
(dp638
g7
F-4.2626798770413155
sg8
VCHEMBL33890
p639
sbag2
(g3
g4
NtRp640
(dp641
g7
F-0.91629073187415511
sg8
VCHEMBL359671
p642
sbag2
(g3
g4
NtRp643
(dp644
g7
F-6.7696419768525029
sg8
VCHEMBL204664
p645
sbag2
(g3
g4
NtRp646
(dp647
g7
F-6.7214257007906433
sg8
VCHEMBL425399
p648
sbag2
(g3
g4
NtRp649
(dp650
g7
F-6.9077552789821368
sg8
VCHEMBL201364
p651
sbag2
(g3
g4
NtRp652
(dp653
g7
F-5.2729995585637468
sg8
VCHEMBL381298
p654
sbag2
(g3
g4
NtRp655
(dp656
g7
F-6.1484682959176471
sg8
VCHEMBL204025
p657
sbag2
(g3
g4
NtRp658
(dp659
g7
F-3.7376696182833684
sg8
VCHEMBL264655
p660
sbag2
(g3
g4
NtRp661
(dp662
g7
F-3.2580965380214821
sg8
VCHEMBL202500
p663
sbag2
(g3
g4
NtRp664
(dp665
g7
F-2.5649493574615367
sg8
VCHEMBL202615
p666
sbag2
(g3
g4
NtRp667
(dp668
g7
F-5.768320995793772
sg8
VCHEMBL201013
p669
sbag2
(g3
g4
NtRp670
(dp671
g7
F-5.9480349891806457
sg8
VCHEMBL385279
p672
sbag2
(g3
g4
NtRp673
(dp674
g7
F-6.0776422433490342
sg8
VCHEMBL219387
p675
sbag2
(g3
g4
NtRp676
(dp677
g7
F-1.2237754316221157
sg8
VCHEMBL90794
p678
sbag2
(g3
g4
NtRp679
(dp680
g7
F-2.8903717578961645
sg8
VCHEMBL195371
p681
sbag2
(g3
g4
NtRp682
(dp683
g7
F-3.8501476017100584
sg8
VCHEMBL187915
p684
sbag2
(g3
g4
NtRp685
(dp686
g7
F-4.5108595065168497
sg8
VCHEMBL364092
p687
sbag2
(g3
g4
NtRp688
(dp689
g7
F-3.0007198150650303
sg8
VCHEMBL93826
p690
sbag2
(g3
g4
NtRp691
(dp692
g7
F-3.0910424533583161
sg8
VCHEMBL193726
p693
sbag2
(g3
g4
NtRp694
(dp695
g7
F-1.6486586255873816
sg8
VCHEMBL420244
p696
sbag2
(g3
g4
NtRp697
(dp698
g7
F-4.5849674786705723
sg8
VCHEMBL192218
p699
sbag2
(g3
g4
NtRp700
(dp701
g7
F-0.3293037471426003
sg8
VCHEMBL441499
p702
sbag2
(g3
g4
NtRp703
(dp704
g7
F-4.6634390941120669
sg8
VCHEMBL426461
p705
sbag2
(g3
g4
NtRp706
(dp707
g7
F-0.91629073187415511
sg8
VCHEMBL183084
p708
sbag2
(g3
g4
NtRp709
(dp710
g7
F-6.2897155709089976
sg8
VCHEMBL187000
p711
sbag2
(g3
g4
NtRp712
(dp713
g7
F-5.4680601411351315
sg8
VCHEMBL206584
p714
sbag2
(g3
g4
NtRp715
(dp716
g7
F-4.3040650932041702
sg8
VCHEMBL203565
p717
sbag2
(g3
g4
NtRp718
(dp719
g7
F-3.9889840465642745
sg8
VCHEMBL382598
p720
sbag2
(g3
g4
NtRp721
(dp722
g7
F-4.4067192472642533
sg8
VCHEMBL385358
p723
sbag2
(g3
g4
NtRp724
(dp725
g7
F-4.3694478524670215
sg8
VCHEMBL383533
p726
sbag2
(g3
g4
NtRp727
(dp728
g7
F-4.3820266346738812
sg8
VCHEMBL219577
p729
sbag2
(g3
g4
NtRp730
(dp731
g7
F-0
sg8
VCHEMBL391910
p732
sbag2
(g3
g4
NtRp733
(dp734
g7
F-2.0794415416798357
sg8
VCHEMBL241303
p735
sbag2
(g3
g4
NtRp736
(dp737
g7
F-2.9957322735539909
sg8
VCHEMBL240227
p738
sbag2
(g3
g4
NtRp739
(dp740
g7
F0.41551544396166579
sg8
VCHEMBL362428
p741
sbag2
(g3
g4
NtRp742
(dp743
g7
F0.69314718055994529
sg8
VCHEMBL367350
p744
sbag2
(g3
g4
NtRp745
(dp746
g7
F0.35667494393873245
sg8
VCHEMBL434525
p747
sbag2
(g3
g4
NtRp748
(dp749
g7
F-4.6728288344619058
sg8
VCHEMBL365999
p750
sbag2
(g3
g4
NtRp751
(dp752
g7
F-4.5429755823949733
sg8
VCHEMBL323119
p753
sbag2
(g3
g4
NtRp754
(dp755
g7
F-5.3565862746720123
sg8
VCHEMBL198411
p756
sbag2
(g3
g4
NtRp757
(dp758
g7
F-6.0661080901037474
sg8
VCHEMBL186945
p759
sbag2
(g3
g4
NtRp760
(dp761
g7
F-6.1202974189509503
sg8
VCHEMBL197667
p762
sbag2
(g3
g4
NtRp763
(dp764
g7
F-6.3919171133926023
sg8
VCHEMBL206406
p765
sbag2
(g3
g4
NtRp766
(dp767
g7
F-5.4161004022044201
sg8
VCHEMBL381697
p768
sbag2
(g3
g4
NtRp769
(dp770
g7
F-5.0689042022202315
sg8
VCHEMBL204922
p771
sbag2
(g3
g4
NtRp772
(dp773
g7
F-6.4831073514571989
sg8
VCHEMBL206600
p774
sbag2
(g3
g4
NtRp775
(dp776
g7
F-6.1903154058531475
sg8
VCHEMBL206227
p777
sbag2
(g3
g4
NtRp778
(dp779
g7
F-4.5325994931532563
sg8
VCHEMBL211816
p780
sbag2
(g3
g4
NtRp781
(dp782
g7
F-5.8861040314501558
sg8
VCHEMBL208929
p783
sbag2
(g3
g4
NtRp784
(dp785
g7
F-6.1527326947041043
sg8
VCHEMBL209623
p786
sbag2
(g3
g4
NtRp787
(dp788
g7
F-4.4067192472642533
sg8
VCHEMBL211887
p789
sbag2
(g3
g4
NtRp790
(dp791
g7
F0.69314718055994529
sg8
VCHEMBL181862
p792
sbag2
(g3
g4
NtRp793
(dp794
g7
F0.35667494393873245
sg8
VCHEMBL184202
p795
sbag2
(g3
g4
NtRp796
(dp797
g7
F-6.1985600140005843
sg8
VCHEMBL1096975
p798
sbag2
(g3
g4
NtRp799
(dp800
g7
F-6.6656837177824082
sg8
VCHEMBL205934
p801
sbag2
(g3
g4
NtRp802
(dp803
g7
F-5.8141305318250662
sg8
VCHEMBL381337
p804
sbag2
(g3
g4
NtRp805
(dp806
g7
F-5.181783550292085
sg8
VCHEMBL206814
p807
sbag2
(g3
g4
NtRp808
(dp809
g7
F-5.7004435733906869
sg8
VCHEMBL191238
p810
sbag2
(g3
g4
NtRp811
(dp812
g7
F-1.3862943611198906
sg8
VCHEMBL1358
p813
sbag2
(g3
g4
NtRp814
(dp815
g7
F-5.768320995793772
sg8
VCHEMBL77620
p816
sbag2
(g3
g4
NtRp817
(dp818
g7
F-3.044522437723423
sg8
VCHEMBL331996
p819
sbag2
(g3
g4
NtRp820
(dp821
g7
F-3.2580965380214821
sg8
VCHEMBL363634
p822
sbag2
(g3
g4
NtRp823
(dp824
g7
F-3.4330189939851112
sg8
VCHEMBL101997
p825
sbag2
(g3
g4
NtRp826
(dp827
g7
F-5.575949103146316
sg8
VCHEMBL185890
p828
sbag2
(g3
g4
NtRp829
(dp830
g7
F0.916290731874155
sg8
VCHEMBL185083
p831
sbag2
(g3
g4
NtRp832
(dp833
g7
F-3.5553480614894135
sg8
VCHEMBL24950
p834
sbag2
(g3
g4
NtRp835
(dp836
g7
F-6.0258659738253142
sg8
VCHEMBL373987
p837
sbag2
(g3
g4
NtRp838
(dp839
g7
F-6.4052284580308418
sg8
VCHEMBL213950
p840
sbag2
(g3
g4
NtRp841
(dp842
g7
F-3.2958368660043291
sg8
VCHEMBL389907
p843
sbag2
(g3
g4
NtRp844
(dp845
g7
F-6.3315018498936908
sg8
VCHEMBL316292
p846
sbag2
(g3
g4
NtRp847
(dp848
g7
F-5.8377304471659395
sg8
VCHEMBL363633
p849
sbag2
(g3
g4
NtRp850
(dp851
g7
F-2.4849066497880004
sg8
VCHEMBL182850
p852
sbag2
(g3
g4
NtRp853
(dp854
g7
F-0.53062825106217038
sg8
VCHEMBL361751
p855
sbag2
(g3
g4
NtRp856
(dp857
g7
F-5.0814043649844631
sg8
VCHEMBL188189
p858
sbag2
(g3
g4
NtRp859
(dp860
g7
F-3.3945083935113587
sg8
VCHEMBL412907
p861
sbag2
(g3
g4
NtRp862
(dp863
g7
F-4.1743872698956368
sg8
VCHEMBL316003
p864
sbag2
(g3
g4
NtRp865
(dp866
g7
F-4.219507705176107
sg8
VCHEMBL33808
p867
sbag2
(g3
g4
NtRp868
(dp869
g7
F-3.1780538303479458
sg8
VCHEMBL360410
p870
sbag2
(g3
g4
NtRp871
(dp872
g7
F-6.4488893941468577
sg8
VCHEMBL196530
p873
sbag2
(g3
g4
NtRp874
(dp875
g7
F-5.7589017738772803
sg8
VCHEMBL203810
p876
sbag2
(g3
g4
NtRp877
(dp878
g7
F-6.0161571596983539
sg8
VCHEMBL203061
p879
sbag2
(g3
g4
NtRp880
(dp881
g7
F-5.1929568508902104
sg8
VCHEMBL440283
p882
sbag2
(g3
g4
NtRp883
(dp884
g7
F0.69314718055994529
sg8
VCHEMBL359633
p885
sbag2
(g3
g4
NtRp886
(dp887
g7
F-6.2952660014396464
sg8
VCHEMBL83060
p888
sbag2
(g3
g4
NtRp889
(dp890
g7
F-4.5432947822700038
sg8
VCHEMBL1627356
p891
sbag2
(g3
g4
NtRp892
(dp893
g7
F-4.4426512564903167
sg8
VCHEMBL1087288
p894
sbag2
(g3
g4
NtRp895
(dp896
g7
F-0.78845736036427028
sg8
VCHEMBL1087545
p897
sbag2
(g3
g4
NtRp898
(dp899
g7
F-1.7578579175523736
sg8
VCHEMBL1087298
p900
sbag2
(g3
g4
NtRp901
(dp902
g7
F-1.8405496333974869
sg8
VCHEMBL1086652
p903
sbag2
(g3
g4
NtRp904
(dp905
g7
F-6.2106000770246528
sg8
VCHEMBL184003
p906
sbag2
(g3
g4
NtRp907
(dp908
g7
F-6.6883547139467616
sg8
VCHEMBL182751
p909
sbag2
(g3
g4
NtRp910
(dp911
g7
F-6.0234475929610332
sg8
VCHEMBL33230
p912
sbag2
(g3
g4
NtRp913
(dp914
g7
F-3.7612001156935624
sg8
VCHEMBL491705
p915
sbag2
(g3
g4
NtRp916
(dp917
g7
F-1.7578579175523736
sg8
VCHEMBL1088343
p918
sbag2
(g3
g4
NtRp919
(dp920
g7
F-6.9077552789821368
sg8
VCHEMBL1086388
p921
sbag2
(g3
g4
NtRp922
(dp923
g7
F-5.1929568508902104
sg8
VCHEMBL1082529
p924
sbag2
(g3
g4
NtRp925
(dp926
g7
F-3.7612001156935624
sg8
VCHEMBL192876
p927
sbag2
(g3
g4
NtRp928
(dp929
g7
F-5.0875963352323836
sg8
VCHEMBL192055
p930
sbag2
(g3
g4
NtRp931
(dp932
g7
F-2.5649493574615367
sg8
VCHEMBL1084127
p933
sbag2
(g3
g4
NtRp934
(dp935
g7
F0.80296204656715187
sg8
VCHEMBL691
p936
sbag2
(g3
g4
NtRp937
(dp938
g7
F-5.0434251169192468
sg8
VCHEMBL340111
p939
sbag2
(g3
g4
NtRp940
(dp941
g7
F-1.3862943611198906
sg8
VCHEMBL92635
p942
sbag2
(g3
g4
NtRp943
(dp944
g7
F-0.91629073187415511
sg8
VCHEMBL181944
p945
sbag2
(g3
g4
NtRp946
(dp947
g7
F-1.0986122886681098
sg8
VCHEMBL85650
p948
sbag2
(g3
g4
NtRp949
(dp950
g7
F0.10536051565782628
sg8
VCHEMBL183388
p951
sbag2
(g3
g4
NtRp952
(dp953
g7
F-4.8598124043616719
sg8
VCHEMBL211614
p954
sbag2
(g3
g4
NtRp955
(dp956
g7
F-4.9487598903781684
sg8
VCHEMBL214693
p957
sbag2
(g3
g4
NtRp958
(dp959
g7
F-4.9052747784384296
sg8
VCHEMBL44
p960
sbag2
(g3
g4
NtRp961
(dp962
g7
F-3.9396381724611196
sg8
VCHEMBL196283
p963
sbag2
(g3
g4
NtRp964
(dp965
g7
F-6.3062752869480159
sg8
VCHEMBL195154
p966
sbag2
(g3
g4
NtRp967
(dp968
g7
F-3.8286413964890951
sg8
VCHEMBL363498
p969
sbag2
(g3
g4
NtRp970
(dp971
g7
F-5.0937502008067623
sg8
VCHEMBL183368
p972
sbag2
(g3
g4
NtRp973
(dp974
g7
F-4.0604430105464191
sg8
VCHEMBL215409
p975
sbag2
(g3
g4
NtRp976
(dp977
g7
F-3.8958936234982624
sg8
VCHEMBL384268
p978
sbag2
(g3
g4
NtRp979
(dp980
g7
F-5.1059454739005803
sg8
VCHEMBL313849
p981
sbag2
(g3
g4
NtRp982
(dp983
g7
F-6.3919171133926023
sg8
VCHEMBL203348
p984
sbag2
(g3
g4
NtRp985
(dp986
g7
F-2.8903717578961645
sg8
VCHEMBL371072
p987
sbag2
(g3
g4
NtRp988
(dp989
g7
F1.3093333199837622
sg8
VCHEMBL180873
p990
sbag2
(g3
g4
NtRp991
(dp992
g7
F-4.8040210447332568
sg8
VCHEMBL191711
p993
sbag2
(g3
g4
NtRp994
(dp995
g7
F-4.5643481914678361
sg8
VCHEMBL225081
p996
sbag2
(g3
g4
NtRp997
(dp998
g7
F-5.0434251169192468
sg8
VCHEMBL231812
p999
sbag2
(g3
g4
NtRp1000
(dp1001
g7
F-0
sg8
VCHEMBL182887
p1002
sbag2
(g3
g4
NtRp1003
(dp1004
g7
F-1.4586150226995167
sg8
VCHEMBL281499
p1005
sbag2
(g3
g4
NtRp1006
(dp1007
g7
F-1.2809338454620642
sg8
VCHEMBL386948
p1008
sbag2
(g3
g4
NtRp1009
(dp1010
g7
F-4.8751973232011512
sg8
VCHEMBL362966
p1011
sbag2
(g3
g4
NtRp1012
(dp1013
g7
F-4.7957905455967413
sg8
VCHEMBL380359
p1014
sbag2
(g3
g4
NtRp1015
(dp1016
g7
F-4.9836066217083363
sg8
VCHEMBL213337
p1017
sbag2
(g3
g4
NtRp1018
(dp1019
g7
F-6.6758232216348476
sg8
VCHEMBL385693
p1020
sbag2
(g3
g4
NtRp1021
(dp1022
g7
F-1.1314021114911006
sg8
VCHEMBL192765
p1023
sbag2
(g3
g4
NtRp1024
(dp1025
g7
F-4.5217885770490405
sg8
VCHEMBL193727
p1026
sbag2
(g3
g4
NtRp1027
(dp1028
g7
F-5.0304379213924353
sg8
VCHEMBL183367
p1029
sbag2
(g3
g4
NtRp1030
(dp1031
g7
F-4.3820266346738812
sg8
VCHEMBL1395826
p1032
sbag2
(g3
g4
NtRp1033
(dp1034
g7
F-4.499809670330265
sg8
VCHEMBL1434189
p1035
sbag2
(g3
g4
NtRp1036
(dp1037
g7
F-6.0063531596017325
sg8
VCHEMBL371126
p1038
sbag2
(g3
g4
NtRp1039
(dp1040
g7
F-3.0910424533583161
sg8
VCHEMBL216024
p1041
sbag2
(g3
g4
NtRp1042
(dp1043
g7
F-1.7173950539391927
sg8
VCHEMBL472468
p1044
sbag2
(g3
g4
NtRp1045
(dp1046
g7
F-4.1108738641733114
sg8
VCHEMBL420623
p1047
sbag2
(g3
g4
NtRp1048
(dp1049
g7
F-5.575949103146316
sg8
VCHEMBL209803
p1050
sbag2
(g3
g4
NtRp1051
(dp1052
g7
F-3.4011973816621555
sg8
VCHEMBL209402
p1053
sbag2
(g3
g4
NtRp1054
(dp1055
g7
F-5.2983173665480363
sg8
VCHEMBL204970
p1056
sbag2
(g3
g4
NtRp1057
(dp1058
g7
F-0
sg8
VCHEMBL203472
p1059
sbag2
(g3
g4
NtRp1060
(dp1061
g7
F-5.0434251169192468
sg8
VCHEMBL425092
p1062
sbag2
(g3
g4
NtRp1063
(dp1064
g7
F-3.713572066704308
sg8
VCHEMBL380469
p1065
sbag2
(g3
g4
NtRp1066
(dp1067
g7
F-4.8520302639196169
sg8
VCHEMBL208978
p1068
sbag2
(g3
g4
NtRp1069
(dp1070
g7
F-5.1704839950381514
sg8
VCHEMBL377644
p1071
sbag2
(g3
g4
NtRp1072
(dp1073
g7
F-5.6970934865054046
sg8
VCHEMBL232023
p1074
sbag2
(g3
g4
NtRp1075
(dp1076
g7
F-1.0986122886681098
sg8
VCHEMBL191836
p1077
sbag2
(g3
g4
NtRp1078
(dp1079
g7
F-4.5849674786705723
sg8
VCHEMBL189356
p1080
sbag2
(g3
g4
NtRp1081
(dp1082
g7
F-4.5432947822700038
sg8
VCHEMBL93546
p1083
sbag2
(g3
g4
NtRp1084
(dp1085
g7
F-4.3820266346738812
sg8
VCHEMBL520107
p1086
sbag2
(g3
g4
NtRp1087
(dp1088
g7
F-5.5412635451584258
sg8
VCHEMBL1441930
p1089
sbag2
(g3
g4
NtRp1090
(dp1091
g7
F-1.3609765531356006
sg8
VCHEMBL85881
p1092
sbag2
(g3
g4
NtRp1093
(dp1094
g7
F-3.4011973816621555
sg8
VCHEMBL347560
p1095
sbag2
(g3
g4
NtRp1096
(dp1097
g7
F-5.9026333334013659
sg8
VCHEMBL25580
p1098
sbag2
(g3
g4
NtRp1099
(dp1100
g7
F-3.6635616461296463
sg8
VCHEMBL221515
p1101
sbag2
(g3
g4
NtRp1102
(dp1103
g7
F-2.7080502011022101
sg8
VCHEMBL389394
p1104
sbag2
(g3
g4
NtRp1105
(dp1106
g7
F-3.4339872044851463
sg8
VCHEMBL374277
p1107
sbag2
(g3
g4
NtRp1108
(dp1109
g7
F-3.572345637857985
sg8
VCHEMBL226379
p1110
sbag2
(g3
g4
NtRp1111
(dp1112
g7
F-4.7874917427820458
sg8
VCHEMBL1318094
p1113
sbag2
(g3
g4
NtRp1114
(dp1115
g7
F-0.26236426446749106
sg8
VCHEMBL368449
p1116
sbag2
(g3
g4
NtRp1117
(dp1118
g7
F-2.2192034840549946
sg8
VCHEMBL92900
p1119
sbag2
(g3
g4
NtRp1120
(dp1121
g7
F-4.290459441148391
sg8
VCHEMBL191759
p1122
sbag2
(g3
g4
NtRp1123
(dp1124
g7
F-5.4424177105217932
sg8
VCHEMBL365941
p1125
sbag2
(g3
g4
NtRp1126
(dp1127
g7
F-4.962844630259907
sg8
VCHEMBL191808
p1128
sbag2
(g3
g4
NtRp1129
(dp1130
g7
F-1.275362800412609
sg8
VCHEMBL360978
p1131
sbag2
(g3
g4
NtRp1132
(dp1133
g7
F-5.0937502008067623
sg8
VCHEMBL372011
p1134
sbag2
(g3
g4
NtRp1135
(dp1136
g7
F-4.5517694092609764
sg8
VCHEMBL200232
p1137
sbag2
(g3
g4
NtRp1138
(dp1139
g7
F-6.0014148779611505
sg8
VCHEMBL379234
p1140
sbag2
(g3
g4
NtRp1141
(dp1142
g7
F-5.6058020662959978
sg8
VCHEMBL203402
p1143
sbag2
(g3
g4
NtRp1144
(dp1145
g7
F-6.4393503711000983
sg8
VCHEMBL202673
p1146
sbag2
(g3
g4
NtRp1147
(dp1148
g7
F-4.8598124043616719
sg8
VCHEMBL203072
p1149
sbag2
(g3
g4
NtRp1150
(dp1151
g7
F-5.5333894887275203
sg8
VCHEMBL204434
p1152
sbag2
(g3
g4
NtRp1153
(dp1154
g7
F-3.1780538303479458
sg8
VCHEMBL383691
p1155
sbag2
(g3
g4
NtRp1156
(dp1157
g7
F-1.6094379124341003
sg8
VCHEMBL202472
p1158
sbag2
(g3
g4
NtRp1159
(dp1160
g7
F-6.7934661325800096
sg8
VCHEMBL378581
p1161
sbag2
(g3
g4
NtRp1162
(dp1163
g7
F-2.3978952727983707
sg8
VCHEMBL241300
p1164
sbag2
(g3
g4
NtRp1165
(dp1166
g7
F-5.934894195619588
sg8
VCHEMBL393179
p1167
sbag2
(g3
g4
NtRp1168
(dp1169
g7
F-3.6888794541139363
sg8
VCHEMBL442249
p1170
sbag2
(g3
g4
NtRp1171
(dp1172
g7
F-4.2341065045972597
sg8
VCHEMBL238959
p1173
sbag2
(g3
g4
NtRp1174
(dp1175
g7
F-2.4069451083182885
sg8
VCHEMBL1087919
p1176
sbag2
(g3
g4
NtRp1177
(dp1178
g7
F-4.7004803657924166
sg8
VCHEMBL153405
p1179
sbag2
(g3
g4
NtRp1180
(dp1181
g7
F-0
sg8
VCHEMBL327320
p1182
sbag2
(g3
g4
NtRp1183
(dp1184
g7
F-2.6390573296152584
sg8
VCHEMBL178559
p1185
sbag2
(g3
g4
NtRp1186
(dp1187
g7
F-3.7909846770510898
sg8
VCHEMBL94080
p1188
sbag2
(g3
g4
NtRp1189
(dp1190
g7
F-0.54232429082536171
sg8
VCHEMBL180973
p1191
sbag2
(g3
g4
NtRp1192
(dp1193
g7
F-5.5031747401749289
sg8
VCHEMBL1098709
p1194
sbag2
(g3
g4
NtRp1195
(dp1196
g7
F-3.8613610906259179
sg8
VCHEMBL1098710
p1197
sbag2
(g3
g4
NtRp1198
(dp1199
g7
F-3.4339872044851463
sg8
VCHEMBL144431
p1200
sbag2
(g3
g4
NtRp1201
(dp1202
g7
F-5.0106352940962555
sg8
VCHEMBL415864
p1203
sbag2
(g3
g4
NtRp1204
(dp1205
g7
F-4.9272536851572051
sg8
VCHEMBL189658
p1206
sbag2
(g3
g4
NtRp1207
(dp1208
g7
F-5.4595855141441589
sg8
VCHEMBL193064
p1209
sbag2
(g3
g4
NtRp1210
(dp1211
g7
F-6.0185932144962342
sg8
VCHEMBL186513
p1212
sbag2
(g3
g4
NtRp1213
(dp1214
g7
F-1.9021075263969205
sg8
VCHEMBL30439
p1215
sbag2
(g3
g4
NtRp1216
(dp1217
g7
F-3.3322045101752038
sg8
VCHEMBL312186
p1218
sbag2
(g3
g4
NtRp1219
(dp1220
g7
F0.77652878949899629
sg8
VCHEMBL81
p1221
sbag2
(g3
g4
NtRp1222
(dp1223
g7
F-3.6375861597263857
sg8
VCHEMBL180253
p1224
sbag2
(g3
g4
NtRp1225
(dp1226
g7
F-1.3862943611198906
sg8
VCHEMBL93705
p1227
sbag2
(g3
g4
NtRp1228
(dp1229
g7
F-6.1737861039019366
sg8
VCHEMBL190104
p1230
sbag2
(g3
g4
NtRp1231
(dp1232
g7
F0.15082288973458366
sg8
VCHEMBL360498
p1233
sbag2
(g3
g4
NtRp1234
(dp1235
g7
F-1.6094379124341003
sg8
VCHEMBL1082528
p1236
sbag2
(g3
g4
NtRp1237
(dp1238
g7
F-4.7874917427820458
sg8
VCHEMBL1083187
p1239
sbag2
(g3
g4
NtRp1240
(dp1241
g7
F-4.6913478822291435
sg8
VCHEMBL31128
p1242
sbag2
(g3
g4
NtRp1243
(dp1244
g7
F-5.1704839950381514
sg8
VCHEMBL367588
p1245
sbag2
(g3
g4
NtRp1246
(dp1247
g7
F-4.1743872698956368
sg8
VCHEMBL186597
p1248
sbag2
(g3
g4
NtRp1249
(dp1250
g7
F-2.9444389791664403
sg8
VCHEMBL145576
p1251
sbag2
(g3
g4
NtRp1252
(dp1253
g7
F-4.7361984483944957
sg8
VCHEMBL361258
p1254
sbag2
(g3
g4
NtRp1255
(dp1256
g7
F-3.4011973816621555
sg8
VCHEMBL363367
p1257
sbag2
(g3
g4
NtRp1258
(dp1259
g7
F-6.9077552789821368
sg8
VCHEMBL81591
p1260
sbag2
(g3
g4
NtRp1261
(dp1262
g7
F0.10536051565782628
sg8
VCHEMBL181369
p1263
sbag2
(g3
g4
NtRp1264
(dp1265
g7
F-0
sg8
VCHEMBL92660
p1266
sbag2
(g3
g4
NtRp1267
(dp1268
g7
F-0.26236426446749106
sg8
VCHEMBL135
p1269
sbag2
(g3
g4
NtRp1270
(dp1271
g7
F-6.3099182782265162
sg8
VCHEMBL57150
p1272
sbag2
(g3
g4
NtRp1273
(dp1274
g7
F-1.2237754316221157
sg8
VCHEMBL94116
p1275
sbag2
(g3
g4
NtRp1276
(dp1277
g7
F-3.044522437723423
sg8
VCHEMBL433944
p1278
sbag2
(g3
g4
NtRp1279
(dp1280
g7
F-4.6539603501575231
sg8
VCHEMBL371624
p1281
sbag2
(g3
g4
NtRp1282
(dp1283
g7
F-3.4339872044851463
sg8
VCHEMBL371788
p1284
sbag2
(g3
g4
NtRp1285
(dp1286
g7
F-3.0910424533583161
sg8
VCHEMBL189200
p1287
sbag2
(g3
g4
NtRp1288
(dp1289
g7
F-2.6390573296152584
sg8
VCHEMBL44426
p1290
sbag2
(g3
g4
NtRp1291
(dp1292
g7
F-4.4067192472642533
sg8
VCHEMBL187087
p1293
sbag2
(g3
g4
NtRp1294
(dp1295
g7
F-2.1400661634962708
sg8
VCHEMBL200021
p1296
sbag2
(g3
g4
NtRp1297
(dp1298
g7
F-2.0149030205422647
sg8
VCHEMBL316132
p1299
sbag2
(g3
g4
NtRp1300
(dp1301
g7
F-6.1612073216950769
sg8
VCHEMBL363963
p1302
sbag2
(g3
g4
NtRp1303
(dp1304
g7
F-3.3568971227655755
sg8
VCHEMBL89994
p1305
sbag2
(g3
g4
NtRp1306
(dp1307
g7
F-4.7791234931115296
sg8
VCHEMBL195118
p1308
sbag2
(g3
g4
NtRp1309
(dp1310
g7
F-5.7651911027848444
sg8
VCHEMBL441537
p1311
sbag2
(g3
g4
NtRp1312
(dp1313
g7
F-4.3694478524670215
sg8
VCHEMBL377694
p1314
sbag2
(g3
g4
NtRp1315
(dp1316
g7
F-3.0910424533583161
sg8
VCHEMBL192386
p1317
sbag2
(g3
g4
NtRp1318
(dp1319
g7
F-0.76546784213957142
sg8
VCHEMBL362020
p1320
sbag2
(g3
g4
NtRp1321
(dp1322
g7
F-6.4377516497364011
sg8
VCHEMBL183152
p1323
sbag2
(g3
g4
NtRp1324
(dp1325
g7
F-5.0039463059454592
sg8
VCHEMBL33053
p1326
sbag2
(g3
g4
NtRp1327
(dp1328
g7
F-3.1527360223636558
sg8
VCHEMBL387335
p1329
sbag2
(g3
g4
NtRp1330
(dp1331
g7
F-5.2983173665480363
sg8
VCHEMBL192587
p1332
sbag2
(g3
g4
NtRp1333
(dp1334
g7
F-1.791759469228055
sg8
VCHEMBL370849
p1335
sbag2
(g3
g4
NtRp1336
(dp1337
g7
F1.5141277326297755
sg8
VCHEMBL178679
p1338
sbag2
(g3
g4
NtRp1339
(dp1340
g7
F-4.6913478822291435
sg8
VCHEMBL185126
p1341
sbag2
(g3
g4
NtRp1342
(dp1343
g7
F-4.7621739347977563
sg8
VCHEMBL185918
p1344
sbag2
(g3
g4
NtRp1345
(dp1346
g7
F-1.205970806988609
sg8
VCHEMBL264216
p1347
sbag2
(g3
g4
NtRp1348
(dp1349
g7
F-6.4520489544372257
sg8
VCHEMBL198679
p1350
sbag2
(g3
g4
NtRp1351
(dp1352
g7
F-0
sg8
VCHEMBL121978
p1353
sbag2
(g3
g4
NtRp1354
(dp1355
g7
F-0.33647223662121289
sg8
VCHEMBL334096
p1356
sbag2
(g3
g4
NtRp1357
(dp1358
g7
F-3.6375861597263857
sg8
VCHEMBL192539
p1359
sbag2
(g3
g4
NtRp1360
(dp1361
g7
F-1.8082887711792655
sg8
VCHEMBL94030
p1362
sbag2
(g3
g4
NtRp1363
(dp1364
g7
F-2.5649493574615367
sg8
VCHEMBL186598
p1365
sbag2
(g3
g4
NtRp1366
(dp1367
g7
F-2.6026896854443837
sg8
VCHEMBL316119
p1368
sbag2
(g3
g4
NtRp1369
(dp1370
g7
F0.22314355131420971
sg8
VCHEMBL180146
p1371
sbag2
(g3
g4
NtRp1372
(dp1373
g7
F-5.9635793436184459
sg8
VCHEMBL377224
p1374
sbag2
(g3
g4
NtRp1375
(dp1376
g7
F-5.8406416573733981
sg8
VCHEMBL377848
p1377
sbag2
(g3
g4
NtRp1378
(dp1379
g7
F-3.9318256327243257
sg8
VCHEMBL204185
p1380
sbag2
(g3
g4
NtRp1381
(dp1382
g7
F-5.0751738152338266
sg8
VCHEMBL264349
p1383
sbag2
(g3
g4
NtRp1384
(dp1385
g7
F-5.2781146592305168
sg8
VCHEMBL378675
p1386
sbag2
(g3
g4
NtRp1387
(dp1388
g7
F-1.3862943611198906
sg8
VCHEMBL1402
p1389
sbag2
(g3
g4
NtRp1390
(dp1391
g7
F-2.3025850929940459
sg8
VCHEMBL369935
p1392
sbag2
(g3
g4
NtRp1393
(dp1394
g7
F-4.9416424226093039
sg8
VCHEMBL216279
p1395
sbag2
(g3
g4
NtRp1396
(dp1397
g7
F-6.2205901700997392
sg8
VCHEMBL219126
p1398
sbag2
(g3
g4
NtRp1399
(dp1400
g7
F-4.990432586778736
sg8
VCHEMBL381566
p1401
sbag2
(g3
g4
NtRp1402
(dp1403
g7
F-4.255612709818223
sg8
VCHEMBL209429
p1404
sbag2
(g3
g4
NtRp1405
(dp1406
g7
F-4.7361984483944957
sg8
VCHEMBL379109
p1407
sbag2
(g3
g4
NtRp1408
(dp1409
g7
F-4.8202815656050371
sg8
VCHEMBL379821
p1410
sbag2
(g3
g4
NtRp1411
(dp1412
g7
F-0.35767444427181588
sg8
VCHEMBL179518
p1413
sbag2
(g3
g4
NtRp1414
(dp1415
g7
F-6.7080840838530698
sg8
VCHEMBL187069
p1416
sbag2
(g3
g4
NtRp1417
(dp1418
g7
F-3.044522437723423
sg8
VCHEMBL363425
p1419
sbag2
(g3
g4
NtRp1420
(dp1421
g7
F-5.9914645471079817
sg8
VCHEMBL597498
p1422
sbag2
(g3
g4
NtRp1423
(dp1424
g7
F-1.2237754316221157
sg8
VCHEMBL1088631
p1425
sbag2
(g3
g4
NtRp1426
(dp1427
g7
F-5.43372200355424
sg8
VCHEMBL211800
p1428
sbag2
(g3
g4
NtRp1429
(dp1430
g7
F-6.4361503683694279
sg8
VCHEMBL379567
p1431
sbag2
(g3
g4
NtRp1432
(dp1433
g7
F-5.8636311755980968
sg8
VCHEMBL379595
p1434
sbag2
(g3
g4
NtRp1435
(dp1436
g7
F-5.2832037287379885
sg8
VCHEMBL211870
p1437
sbag2
(g3
g4
NtRp1438
(dp1439
g7
F-1.9459101490553132
sg8
VCHEMBL1084120
p1440
sbag2
(g3
g4
NtRp1441
(dp1442
g7
F-6.1758672701057611
sg8
VCHEMBL187937
p1443
sbag2
(g3
g4
NtRp1444
(dp1445
g7
F-6.5736801669606457
sg8
VCHEMBL380717
p1446
sbag2
(g3
g4
NtRp1447
(dp1448
g7
F-5.9215784196438159
sg8
VCHEMBL362355
p1449
sbag2
(g3
g4
NtRp1450
(dp1451
g7
F-5.2781146592305168
sg8
VCHEMBL221676
p1452
sbag2
(g3
g4
NtRp1453
(dp1454
g7
F-5.7365722974791922
sg8
VCHEMBL1254532
p1455
sbag2
(g3
g4
NtRp1456
(dp1457
g7
F-6.1025585946135692
sg8
VCHEMBL363955
p1458
sbag2
(g3
g4
NtRp1459
(dp1460
g7
F-4.5747109785033828
sg8
VCHEMBL379008
p1461
sbag2
(g3
g4
NtRp1462
(dp1463
g7
F-4.0073331852324712
sg8
VCHEMBL1087547
p1464
sbag2
(g3
g4
NtRp1465
(dp1466
g7
F-3.1354942159291497
sg8
VCHEMBL1086644
p1467
sbag2
(g3
g4
NtRp1468
(dp1469
g7
F-0.18232155679395459
sg8
VCHEMBL1086775
p1470
sbag2
(g3
g4
NtRp1471
(dp1472
g7
F-5.5093883366279774
sg8
VCHEMBL192016
p1473
sbag2
(g3
g4
NtRp1474
(dp1475
g7
F-2.4849066497880004
sg8
VCHEMBL191841
p1476
sbag2
(g3
g4
NtRp1477
(dp1478
g7
F-3.1354942159291497
sg8
VCHEMBL238960
p1479
sbag2
(g3
g4
NtRp1480
(dp1481
g7
F-2.0541237336955462
sg8
VCHEMBL238961
p1482
sbag2
(g3
g4
NtRp1483
(dp1484
g7
F-0.95551144502743635
sg8
VCHEMBL85090
p1485
sbag2
(g3
g4
NtRp1486
(dp1487
g7
F0.51082562376599072
sg8
VCHEMBL184360
p1488
sbag2
(g3
g4
NtRp1489
(dp1490
g7
F0.84397007029452897
sg8
VCHEMBL180176
p1491
sbag2
(g3
g4
NtRp1492
(dp1493
g7
F0.69314718055994529
sg8
VCHEMBL437695
p1494
sbag2
(g3
g4
NtRp1495
(dp1496
g7
F-3.3672958299864741
sg8
VCHEMBL209530
p1497
sbag2
(g3
g4
NtRp1498
(dp1499
g7
F-6.9077552789821368
sg8
VCHEMBL1276308
p1500
sbag2
(g3
g4
NtRp1501
(dp1502
g7
F-5.598421958998375
sg8
VCHEMBL388418
p1503
sbag2
(g3
g4
NtRp1504
(dp1505
g7
F-4.2484952420493594
sg8
VCHEMBL1433745
p1506
sbag2
(g3
g4
NtRp1507
(dp1508
g7
F-5.1929568508902104
sg8
VCHEMBL1475062
p1509
sbag2
(g3
g4
NtRp1510
(dp1511
g7
F-4.7874917427820458
sg8
VCHEMBL1597831
p1512
sbag2
(g3
g4
NtRp1513
(dp1514
g7
F-2.6390573296152584
sg8
VCHEMBL471627
p1515
sbag2
(g3
g4
NtRp1516
(dp1517
g7
F-6.0637852086876078
sg8
VCHEMBL1599080
p1518
sbag2
(g3
g4
NtRp1519
(dp1520
g7
F-6.4329400927391793
sg8
VCHEMBL375334
p1521
sbag2
(g3
g4
NtRp1522
(dp1523
g7
F-4.0775374439057197
sg8
VCHEMBL222522
p1524
sbag2
(g3
g4
NtRp1525
(dp1526
g7
F-2.9957322735539909
sg8
VCHEMBL222580
p1527
sbag2
(g3
g4
NtRp1528
(dp1529
g7
F-6.363028103540465
sg8
VCHEMBL1083188
p1530
sbag2
(g3
g4
NtRp1531
(dp1532
g7
F-4.5217885770490405
sg8
VCHEMBL191716
p1533
sbag2
(g3
g4
NtRp1534
(dp1535
g7
F-4.219507705176107
sg8
VCHEMBL311640
p1536
sbag2
(g3
g4
NtRp1537
(dp1538
g7
F-6.4583382833447898
sg8
VCHEMBL194772
p1539
sbag2
(g3
g4
NtRp1540
(dp1541
g7
F-2.2300144001592104
sg8
VCHEMBL329849
p1542
sbag2
(g3
g4
NtRp1543
(dp1544
g7
F-2.6713862167306188
sg8
VCHEMBL362425
p1545
sbag2
(g3
g4
NtRp1546
(dp1547
g7
F-4.7706846244656651
sg8
VCHEMBL363177
p1548
sbag2
(g3
g4
NtRp1549
(dp1550
g7
F-6.2859980945088649
sg8
VCHEMBL364329
p1551
sbag2
(g3
g4
NtRp1552
(dp1553
g7
F-4.4659081186545837
sg8
VCHEMBL192187
p1554
sbag2
(g3
g4
NtRp1555
(dp1556
g7
F0.35667494393873245
sg8
VCHEMBL183489
p1557
sbag2
(g3
g4
NtRp1558
(dp1559
g7
F-4.7874917427820458
sg8
VCHEMBL193518
p1560
sbag2
(g3
g4
NtRp1561
(dp1562
g7
F-3.3318473035273621
sg8
VCHEMBL174502
p1563
sbag2
(g3
g4
NtRp1564
(dp1565
g7
F-6.1800166536525722
sg8
VCHEMBL361226
p1566
sbag2
(g3
g4
NtRp1567
(dp1568
g7
F-6.045005314036012
sg8
VCHEMBL379543
p1569
sbag2
(g3
g4
NtRp1570
(dp1571
g7
F-2.3025850929940459
sg8
VCHEMBL68940
p1572
sbag2
(g3
g4
NtRp1573
(dp1574
g7
F-3.2188758248682006
sg8
VCHEMBL93308
p1575
sbag2
(g3
g4
NtRp1576
(dp1577
g7
F0.916290731874155
sg8
VCHEMBL361601
p1578
sbag2
(g3
g4
NtRp1579
(dp1580
g7
F-4.0249944840873075
sg8
VCHEMBL328810
p1581
sbag2
(g3
g4
NtRp1582
(dp1583
g7
F0.22314355131420971
sg8
VCHEMBL181404
p1584
sbag2
(g3
g4
NtRp1585
(dp1586
g7
F-6.1633148040346413
sg8
VCHEMBL189822
p1587
sbag2
(g3
g4
NtRp1588
(dp1589
g7
F-4.3438054218536841
sg8
VCHEMBL192782
p1590
sbag2
(g3
g4
NtRp1591
(dp1592
g7
F-4.290459441148391
sg8
VCHEMBL192901
p1593
sbag2
(g3
g4
NtRp1594
(dp1595
g7
F-3.4965075614664802
sg8
VCHEMBL362307
p1596
sbag2
(g3
g4
NtRp1597
(dp1598
g7
F-6.4800445619266531
sg8
VCHEMBL291002
p1599
sbag2
(g3
g4
NtRp1600
(dp1601
g7
F-6.5652649700353614
sg8
VCHEMBL190487
p1602
sbag2
(g3
g4
NtRp1603
(dp1604
g7
F-4.0500443033255209
sg8
VCHEMBL195991
p1605
sbag2
(g3
g4
NtRp1606
(dp1607
g7
F-0.33647223662121289
sg8
VCHEMBL328190
p1608
sbag2
(g3
g4
NtRp1609
(dp1610
g7
F-0.69314718055994529
sg8
VCHEMBL190038
p1611
sbag2
(g3
g4
NtRp1612
(dp1613
g7
F0.22314355131420971
sg8
VCHEMBL304552
p1614
sbag2
(g3
g4
NtRp1615
(dp1616
g7
F-2.1972245773362196
sg8
VCHEMBL1627354
p1617
sbag2
(g3
g4
NtRp1618
(dp1619
g7
F-2.0014800002101243
sg8
VCHEMBL85536
p1620
sbag2
(g3
g4
NtRp1621
(dp1622
g7
F0.77652878949899629
sg8
VCHEMBL178665
p1623
sbag2
(g3
g4
NtRp1624
(dp1625
g7
F-2.7725887222397811
sg8
VCHEMBL435696
p1626
sbag2
(g3
g4
NtRp1627
(dp1628
g7
F-6.776506992372183
sg8
VCHEMBL371564
p1629
sbag2
(g3
g4
NtRp1630
(dp1631
g7
F-3.8286413964890951
sg8
VCHEMBL1628170
p1632
sbag2
(g3
g4
NtRp1633
(dp1634
g7
F-3.380994674344636
sg8
VCHEMBL91740
p1635
sbag2
(g3
g4
NtRp1636
(dp1637
g7
F-2.3978952727983707
sg8
VCHEMBL30707
p1638
sbag2
(g3
g4
NtRp1639
(dp1640
g7
F-1.5173226235262947
sg8
VCHEMBL954
p1641
sbag2
(g3
g4
NtRp1642
(dp1643
g7
F-0.18232155679395459
sg8
VCHEMBL184974
p1644
sbag2
(g3
g4
NtRp1645
(dp1646
g7
F-5.9839362806871907
sg8
VCHEMBL1627353
p1647
sbag2
(g3
g4
NtRp1648
(dp1649
g7
F-1.9286186519452522
sg8
VCHEMBL373625
p1650
sbag2
(g3
g4
NtRp1651
(dp1652
g7
F-5.4249500174814029
sg8
VCHEMBL188846
p1653
sbag2
(g3
g4
NtRp1654
(dp1655
g7
F-1.0438040521731147
sg8
VCHEMBL196131
p1656
sbag2
(g3
g4
NtRp1657
(dp1658
g7
F-6.2747620212419388
sg8
VCHEMBL30574
p1659
sbag2
(g3
g4
NtRp1660
(dp1661
g7
F-5.1590552992145291
sg8
VCHEMBL427180
p1662
sbag2
(g3
g4
NtRp1663
(dp1664
g7
F-5.6454468976432377
sg8
VCHEMBL194265
p1665
sbag2
(g3
g4
NtRp1666
(dp1667
g7
F-6.5638555265321274
sg8
VCHEMBL195788
p1668
sbag2
(g3
g4
NtRp1669
(dp1670
g7
F-5.1298987149230735
sg8
VCHEMBL194334
p1671
sbag2
(g3
g4
NtRp1672
(dp1673
g7
F0.22314355131420971
sg8
VCHEMBL183344
p1674
sbag2
(g3
g4
NtRp1675
(dp1676
g7
F0.35667494393873245
sg8
VCHEMBL369545
p1677
sbag2
(g3
g4
NtRp1678
(dp1679
g7
F-3.4011973816621555
sg8
VCHEMBL361078
p1680
sbag2
(g3
g4
NtRp1681
(dp1682
g7
F-3.8918202981106265
sg8
VCHEMBL187393
p1683
sbag2
(g3
g4
NtRp1684
(dp1685
g7
F-4.4308167988433134
sg8
VCHEMBL194762
p1686
sbag2
(g3
g4
NtRp1687
(dp1688
g7
F-1.791759469228055
sg8
VCHEMBL188051
p1689
sbag2
(g3
g4
NtRp1690
(dp1691
g7
F-2.2512917986064953
sg8
VCHEMBL420017
p1692
sbag2
(g3
g4
NtRp1693
(dp1694
g7
F0.51082562376599072
sg8
VCHEMBL184367
p1695
sbag2
(g3
g4
NtRp1696
(dp1697
g7
F-6.2146080984221914
sg8
VCHEMBL356693
p1698
sbag2
(g3
g4
NtRp1699
(dp1700
g7
F-6.444131256700441
sg8
VCHEMBL1702774
p1701
sbag2
(g3
g4
NtRp1702
(dp1703
g7
F-2.7080502011022101
sg8
VCHEMBL149791
p1704
sbag2
(g3
g4
NtRp1705
(dp1706
g7
F-4.6821312271242199
sg8
VCHEMBL372029
p1707
sbag2
(g3
g4
NtRp1708
(dp1709
g7
F-2.3025850929940459
sg8
VCHEMBL370282
p1710
sbag2
(g3
g4
NtRp1711
(dp1712
g7
F-1.0079579203999789
sg8
VCHEMBL180702
p1713
sbag2
(g3
g4
NtRp1714
(dp1715
g7
F-5.6524891802686508
sg8
VCHEMBL103650
p1716
sbag2
(g3
g4
NtRp1717
(dp1718
g7
F-0.40546510810816438
sg8
VCHEMBL181936
p1719
sbag2
(g3
g4
NtRp1720
(dp1721
g7
F-0.40546510810816438
sg8
VCHEMBL183782
p1722
sbag2
(g3
g4
NtRp1723
(dp1724
g7
F-6.804614520062624
sg8
VCHEMBL187673
p1725
sbag2
(g3
g4
NtRp1726
(dp1727
g7
F-4.7874917427820458
sg8
VCHEMBL421368
p1728
sbag2
(g3
g4
NtRp1729
(dp1730
g7
F-3.7830526241311859
sg8
VCHEMBL98470
p1731
sbag2
(g3
g4
NtRp1732
(dp1733
g7
F-5.9532433342877846
sg8
VCHEMBL197757
p1734
sbag2
(g3
g4
NtRp1735
(dp1736
g7
F-6.0913098820776979
sg8
VCHEMBL191715
p1737
sbag2
(g3
g4
NtRp1738
(dp1739
g7
F0.35667494393873245
sg8
VCHEMBL122208
p1740
sbag2
(g3
g4
NtRp1741
(dp1742
g7
F-6.3368257311464413
sg8
VCHEMBL153395
p1743
sbag2
(g3
g4
NtRp1744
(dp1745
g7
F-3.2958368660043291
sg8
VCHEMBL195289
p1746
sbag2
(g3
g4
NtRp1747
(dp1748
g7
F-3.6635616461296463
sg8
VCHEMBL33899
p1749
sbag2
(g3
g4
NtRp1750
(dp1751
g7
F-1.7227665977411035
sg8
VCHEMBL93230
p1752
sbag2
(g3
g4
NtRp1753
(dp1754
g7
F-5.857933154483459
sg8
VCHEMBL1475434
p1755
sbag2
(g3
g4
NtRp1756
(dp1757
g7
F-5.1357984370502621
sg8
VCHEMBL1552932
p1758
sbag2
(g3
g4
NtRp1759
(dp1760
g7
F-4.499809670330265
sg8
VCHEMBL1593653
p1761
sbag2
(g3
g4
NtRp1762
(dp1763
g7
F-4.0073331852324712
sg8
VCHEMBL192390
p1764
sbag2
(g3
g4
NtRp1765
(dp1766
g7
F-1.2809338454620642
sg8
VCHEMBL340606
p1767
sbag2
(g3
g4
NtRp1768
(dp1769
g7
F-5.7430031878094825
sg8
VCHEMBL195280
p1770
sbag2
(g3
g4
NtRp1771
(dp1772
g7
F-5.1761497325738288
sg8
VCHEMBL191646
p1773
sbag2
(g3
g4
NtRp1774
(dp1775
g7
F-0.52472852893498212
sg8
VCHEMBL193482
p1776
sbag2
(g3
g4
NtRp1777
(dp1778
g7
F-2.8332133440562162
sg8
VCHEMBL539927
p1779
sbag2
(g3
g4
NtRp1780
(dp1781
g7
F-1.3862943611198906
sg8
VCHEMBL125362
p1782
sbag2
(g3
g4
NtRp1783
(dp1784
g7
F-0.96698384618967315
sg8
VCHEMBL1087557
p1785
sbag2
(g3
g4
NtRp1786
(dp1787
g7
F-5.7365722974791922
sg8
VCHEMBL1087683
p1788
sbag2
(g3
g4
NtRp1789
(dp1790
g7
F-6.9077552789821368
sg8
VCHEMBL551269
p1791
sbag2
(g3
g4
NtRp1792
(dp1793
g7
F-3.8501476017100584
sg8
VCHEMBL190682
p1794
sbag2
(g3
g4
NtRp1795
(dp1796
g7
F-2.3025850929940459
sg8
VCHEMBL1087812
p1797
sbag2
(g3
g4
NtRp1798
(dp1799
g7
F-0.18232155679395459
sg8
VCHEMBL1083178
p1800
sbag2
(g3
g4
NtRp1801
(dp1802
g7
F-4.7095302013123339
sg8
VCHEMBL1083179
p1803
sbag2
(g3
g4
NtRp1804
(dp1805
g7
F-6.9077552789821368
sg8
VCHEMBL1083497
p1806
sbag2
(g3
g4
NtRp1807
(dp1808
g7
F-1.6486586255873816
sg8
VCHEMBL363872
p1809
sbag2
(g3
g4
NtRp1810
(dp1811
g7
F0.51082562376599072
sg8
VCHEMBL184421
p1812
sbag2
(g3
g4
NtRp1813
(dp1814
g7
F-0.69314718055994529
sg8
VCHEMBL185383
p1815
sbag2
(g3
g4
NtRp1816
(dp1817
g7
F-0.95551144502743635
sg8
VCHEMBL362623
p1818
sbag2
(g3
g4
NtRp1819
(dp1820
g7
F-2.9601050959108397
sg8
VCHEMBL226329
p1821
sbag2
(g3
g4
NtRp1822
(dp1823
g7
F-5.9989365619466826
sg8
VCHEMBL200799
p1824
sbag2
(g3
g4
NtRp1825
(dp1826
g7
F-3.1780538303479458
sg8
VCHEMBL371012
p1827
sbag2
(g3
g4
NtRp1828
(dp1829
g7
F-5.4595855141441589
sg8
VCHEMBL426849
p1830
sbag2
(g3
g4
NtRp1831
(dp1832
g7
F-4.499809670330265
sg8
VCHEMBL202248
p1833
sbag2
(g3
g4
NtRp1834
(dp1835
g7
F-6.1202974189509503
sg8
VCHEMBL212418
p1836
sbag2
(g3
g4
NtRp1837
(dp1838
g7
F-6.1398845522262553
sg8
VCHEMBL362356
p1839
sbag2
(g3
g4
NtRp1840
(dp1841
g7
F-1.8718021769015913
sg8
VCHEMBL511971
p1842
sbag2
(g3
g4
NtRp1843
(dp1844
g7
F-1.6863989535702288
sg8
VCHEMBL1085669
p1845
sbag2
(g3
g4
NtRp1846
(dp1847
g7
F-1.7227665977411035
sg8
VCHEMBL1085899
p1848
sbag2
(g3
g4
NtRp1849
(dp1850
g7
F-5.5721540321777647
sg8
VCHEMBL364419
p1851
sbag2
(g3
g4
NtRp1852
(dp1853
g7
F-1.2809338454620642
sg8
VCHEMBL91807
p1854
sbag2
(g3
g4
NtRp1855
(dp1856
g7
F-3.2580965380214821
sg8
VCHEMBL202624
p1857
sbag2
(g3
g4
NtRp1858
(dp1859
g7
F-4.0943445622221004
sg8
VCHEMBL372997
p1860
sbag2
(g3
g4
NtRp1861
(dp1862
g7
F-1.8405496333974869
sg8
VCHEMBL183044
p1863
sbag2
(g3
g4
NtRp1864
(dp1865
g7
F1.6094379124341003
sg8
VCHEMBL198803
p1866
sbag2
(g3
g4
NtRp1867
(dp1868
g7
F-2.6390573296152584
sg8
VCHEMBL214091
p1869
sbag2
(g3
g4
NtRp1870
(dp1871
g7
F-5.393627546352362
sg8
VCHEMBL214972
p1872
sbag2
(g3
g4
NtRp1873
(dp1874
g7
F-2.6946271807700692
sg8
VCHEMBL90072
p1875
sbag2
(g3
g4
NtRp1876
(dp1877
g7
F-5.9661467391236922
sg8
VCHEMBL188957
p1878
sbag2
(g3
g4
NtRp1879
(dp1880
g7
F-4.9487598903781684
sg8
VCHEMBL209851
p1881
sbag2
(g3
g4
NtRp1882
(dp1883
g7
F-6.9077552789821368
sg8
VCHEMBL381489
p1884
sbag2
(g3
g4
NtRp1885
(dp1886
g7
F-3.2188758248682006
sg8
VCHEMBL204697
p1887
sbag2
(g3
g4
NtRp1888
(dp1889
g7
F-6.7799219074722519
sg8
VCHEMBL211739
p1890
sbag2
(g3
g4
NtRp1891
(dp1892
g7
F-6.4167322825123261
sg8
VCHEMBL213529
p1893
sbag2
(g3
g4
NtRp1894
(dp1895
g7
F-2.3978952727983707
sg8
VCHEMBL1082539
p1896
sbag2
(g3
g4
NtRp1897
(dp1898
g7
F-3.1780538303479458
sg8
VCHEMBL187219
p1899
sbag2
(g3
g4
NtRp1900
(dp1901
g7
F-2.9957322735539909
sg8
VCHEMBL394357
p1902
sbag2
(g3
g4
NtRp1903
(dp1904
g7
F-6.6871086078665147
sg8
VCHEMBL242818
p1905
sbag2
(g3
g4
NtRp1906
(dp1907
g7
F-5.8345182966452551
sg8
VCHEMBL94170
p1908
sbag2
(g3
g4
NtRp1909
(dp1910
g7
F-6.2146080984221914
sg8
VCHEMBL106773
p1911
sbag2
(g3
g4
NtRp1912
(dp1913
g7
F-4.5643481914678361
sg8
VCHEMBL192000
p1914
sbag2
(g3
g4
NtRp1915
(dp1916
g7
F-5.4595855141441589
sg8
VCHEMBL329630
p1917
sbag2
(g3
g4
NtRp1918
(dp1919
g7
F-5.1474944768134527
sg8
VCHEMBL432454
p1920
sbag2
(g3
g4
NtRp1921
(dp1922
g7
F-0.78845736036427028
sg8
VCHEMBL184491
p1923
sbag2
(g3
g4
NtRp1924
(dp1925
g7
F-2.2082744135228043
sg8
VCHEMBL393982
p1926
sbag2
(g3
g4
NtRp1927
(dp1928
g7
F-0.69314718055994529
sg8
VCHEMBL240438
p1929
sbag2
(g3
g4
NtRp1930
(dp1931
g7
F-6.2363695902037044
sg8
VCHEMBL188246
p1932
sbag2
(g3
g4
NtRp1933
(dp1934
g7
F-4.3820266346738812
sg8
VCHEMBL346455
p1935
sbag2
(g3
g4
NtRp1936
(dp1937
g7
F-4.9344739331306915
sg8
VCHEMBL377254
p1938
sbag2
(g3
g4
NtRp1939
(dp1940
g7
F-3.1354942159291497
sg8
VCHEMBL213829
p1941
sbag2
(g3
g4
NtRp1942
(dp1943
g7
F-6.678342114654332
sg8
VCHEMBL455215
p1944
sbag2
(g3
g4
NtRp1945
(dp1946
g7
F-4.4188406077965983
sg8
VCHEMBL364492
p1947
sbag2
(g3
g4
NtRp1948
(dp1949
g7
F-2.33214389523559
sg8
VCHEMBL469510
p1950
sbag2
(g3
g4
NtRp1951
(dp1952
g7
F0.10536051565782628
sg8
VCHEMBL368688
p1953
sbag2
(g3
g4
NtRp1954
(dp1955
g7
F-3.0910424533583161
sg8
VCHEMBL1087546
p1956
sbag2
(g3
g4
NtRp1957
(dp1958
g7
F-1.547562508716013
sg8
VCHEMBL92027
p1959
sbag2
(g3
g4
NtRp1960
(dp1961
g7
F-0.53062825106217038
sg8
VCHEMBL125119
p1962
sbag2
(g3
g4
NtRp1963
(dp1964
g7
F-6.3681871863504922
sg8
VCHEMBL414859
p1965
sbag2
(g3
g4
NtRp1966
(dp1967
g7
F-3.2188758248682006
sg8
VCHEMBL46903
p1968
sbag2
(g3
g4
NtRp1969
(dp1970
g7
F-2.3025850929940459
sg8
VCHEMBL195311
p1971
sbag2
(g3
g4
NtRp1972
(dp1973
g7
F-6.7334018918373593
sg8
VCHEMBL1455849
p1974
sbag2
(g3
g4
NtRp1975
(dp1976
g7
F-4.3820266346738812
sg8
VCHEMBL1356953
p1977
sbag2
(g3
g4
NtRp1978
(dp1979
g7
F-5.8324395068644632
sg8
VCHEMBL1097284
p1980
sbag2
(g3
g4
NtRp1981
(dp1982
g7
F-3.6888794541139363
sg8
VCHEMBL426897
p1983
sbag2
(g3
g4
NtRp1984
(dp1985
g7
F-1.0986122886681098
sg8
VCHEMBL386502
p1986
sbag2
(g3
g4
NtRp1987
(dp1988
g7
F-3.8712010109078911
sg8
VCHEMBL223026
p1989
sbag2
(g3
g4
NtRp1990
(dp1991
g7
F-5.9532433342877846
sg8
VCHEMBL91452
p1992
sbag2
(g3
g4
NtRp1993
(dp1994
g7
F-3.1780538303479458
sg8
VCHEMBL144897
p1995
sbag2
(g3
g4
NtRp1996
(dp1997
g7
F1.2039728043259361
sg8
VCHEMBL433769
p1998
sbag2
(g3
g4
NtRp1999
(dp2000
g7
F-4.4886363697321396
sg8
VCHEMBL282292
p2001
sbag2
(g3
g4
NtRp2002
(dp2003
g7
F0.35667494393873245
sg8
VCHEMBL179852
p2004
sbag2
(g3
g4
NtRp2005
(dp2006
g7
F-3.4339872044851463
sg8
VCHEMBL286115
p2007
sbag2
(g3
g4
NtRp2008
(dp2009
g7
F-3.4330189939851112
sg8
VCHEMBL327515
p2010
sbag2
(g3
g4
NtRp2011
(dp2012
g7
F-1.9021075263969205
sg8
VCHEMBL315866
p2013
sbag2
(g3
g4
NtRp2014
(dp2015
g7
F-6.8977049431286357
sg8
VCHEMBL183033
p2016
sbag2
(g3
g4
NtRp2017
(dp2018
g7
F-6.363028103540465
sg8
VCHEMBL190025
p2019
sbag2
(g3
g4
NtRp2020
(dp2021
g7
F-6.6631326959908028
sg8
VCHEMBL198088
p2022
sbag2
(g3
g4
NtRp2023
(dp2024
g7
F-6.3117348091529148
sg8
VCHEMBL30769
p2025
sbag2
(g3
g4
NtRp2026
(dp2027
g7
F-0.53062825106217038
sg8
VCHEMBL180792
p2028
sbag2
(g3
g4
NtRp2029
(dp2030
g7
F-0.87546873735389985
sg8
VCHEMBL369724
p2031
sbag2
(g3
g4
NtRp2032
(dp2033
g7
F-4.2621163380013236
sg8
VCHEMBL100231
p2034
sbag2
(g3
g4
NtRp2035
(dp2036
g7
F-5.4380793089231956
sg8
VCHEMBL195217
p2037
sbag2
(g3
g4
NtRp2038
(dp2039
g7
F-2.4765384001174837
sg8
VCHEMBL420611
p2040
sbag2
(g3
g4
NtRp2041
(dp2042
g7
F-3.4011973816621555
sg8
VCHEMBL1434556
p2043
sbag2
(g3
g4
NtRp2044
(dp2045
g7
F-3.912023005428146
sg8
VCHEMBL1414407
p2046
sbag2
(g3
g4
NtRp2047
(dp2048
g7
F-4.1743872698956368
sg8
VCHEMBL282575
p2049
sbag2
(g3
g4
NtRp2050
(dp2051
g7
F-0.26236426446749106
sg8
VCHEMBL361056
p2052
sbag2
(g3
g4
NtRp2053
(dp2054
g7
F-1.9459101490553132
sg8
VCHEMBL313825
p2055
sbag2
(g3
g4
NtRp2056
(dp2057
g7
F-2.174751721484161
sg8
VCHEMBL83623
p2058
sbag2
(g3
g4
NtRp2059
(dp2060
g7
F-6.6957989170584913
sg8
VCHEMBL188516
p2061
sbag2
(g3
g4
NtRp2062
(dp2063
g7
F0.35667494393873245
sg8
VCHEMBL183263
p2064
sbag2
(g3
g4
NtRp2065
(dp2066
g7
F1.2729656758128873
sg8
VCHEMBL178334
p2067
sbag2
(g3
g4
NtRp2068
(dp2069
g7
F-3.784189633918261
sg8
VCHEMBL187311
p2070
sbag2
(g3
g4
NtRp2071
(dp2072
g7
F-2.3978952727983707
sg8
VCHEMBL419110
p2073
sbag2
(g3
g4
NtRp2074
(dp2075
g7
F-4.1907147860417941
sg8
VCHEMBL319678
p2076
sbag2
(g3
g4
NtRp2077
(dp2078
g7
F-1.3711807233098425
sg8
VCHEMBL182157
p2079
sbag2
(g3
g4
NtRp2080
(dp2081
g7
F-0
sg8
VCHEMBL267385
p2082
sbag2
(g3
g4
NtRp2083
(dp2084
g7
F-0.69314718055994529
sg8
VCHEMBL489
p2085
sbag2
(g3
g4
NtRp2086
(dp2087
g7
F-3.5553480614894135
sg8
VCHEMBL192260
p2088
sbag2
(g3
g4
NtRp2089
(dp2090
g7
F-3.8292933578291501
sg8
VCHEMBL100595
p2091
sbag2
(g3
g4
NtRp2092
(dp2093
g7
F0.916290731874155
sg8
VCHEMBL183467
p2094
sbag2
(g3
g4
NtRp2095
(dp2096
g7
F-0
sg8
VCHEMBL329892
p2097
sbag2
(g3
g4
NtRp2098
(dp2099
g7
F-3.9721769282478934
sg8
VCHEMBL89995
p2100
sbag2
(g3
g4
NtRp2101
(dp2102
g7
F-6.0730445341004051
sg8
VCHEMBL189556
p2103
sbag2
(g3
g4
NtRp2104
(dp2105
g7
F-6.253828811575473
sg8
VCHEMBL1231453
p2106
sbag2
(g3
g4
NtRp2107
(dp2108
g7
F0.49429632181478012
sg8
VCHEMBL207324
p2109
sbag2
(g3
g4
NtRp2110
(dp2111
g7
F-5.521460917862246
sg8
VCHEMBL204376
p2112
sbag2
(g3
g4
NtRp2113
(dp2114
g7
F-4.0430512678345503
sg8
VCHEMBL460647
p2115
sbag2
(g3
g4
NtRp2116
(dp2117
g7
F-5.3752784076841653
sg8
VCHEMBL216334
p2118
sbag2
(g3
g4
NtRp2119
(dp2120
g7
F-6.4723462945009009
sg8
VCHEMBL385949
p2121
sbag2
(g3
g4
NtRp2122
(dp2123
g7
F-5.8636311755980968
sg8
VCHEMBL378883
p2124
sbag2
(g3
g4
NtRp2125
(dp2126
g7
F-4.3944491546724391
sg8
VCHEMBL215428
p2127
sbag2
(g3
g4
NtRp2128
(dp2129
g7
F-3.5263605246161616
sg8
VCHEMBL214692
p2130
sbag2
(g3
g4
NtRp2131
(dp2132
g7
F-5.3612921657094255
sg8
VCHEMBL372783
p2133
sbag2
(g3
g4
NtRp2134
(dp2135
g7
F-4.7004803657924166
sg8
VCHEMBL250110
p2136
sbag2
(g3
g4
NtRp2137
(dp2138
g7
F-6.1377270540862341
sg8
VCHEMBL188299
p2139
sbag2
(g3
g4
NtRp2140
(dp2141
g7
F-2.1282317058492679
sg8
VCHEMBL469511
p2142
sbag2
(g3
g4
NtRp2143
(dp2144
g7
F-5.4071717714601188
sg8
VCHEMBL211953
p2145
sbag2
(g3
g4
NtRp2146
(dp2147
g7
F-5.5174528964647074
sg8
VCHEMBL214034
p2148
sbag2
(g3
g4
NtRp2149
(dp2150
g7
F-5.4380793089231956
sg8
VCHEMBL211666
p2151
sbag2
(g3
g4
NtRp2152
(dp2153
g7
F-5.43372200355424
sg8
VCHEMBL206500
p2154
sbag2
(g3
g4
NtRp2155
(dp2156
g7
F-6.0753460310886842
sg8
VCHEMBL206439
p2157
sbag2
(g3
g4
NtRp2158
(dp2159
g7
F-4.4886363697321396
sg8
VCHEMBL10560
p2160
sbag2
(g3
g4
NtRp2161
(dp2162
g7
F-6.9077552789821368
sg8
VCHEMBL1087290
p2163
sbag2
(g3
g4
NtRp2164
(dp2165
g7
F-0.87546873735389985
sg8
VCHEMBL1086774
p2166
sbag2
(g3
g4
NtRp2167
(dp2168
g7
F-5.0106352940962555
sg8
VCHEMBL1087040
p2169
sbag2
(g3
g4
NtRp2170
(dp2171
g7
F-1.824549292051046
sg8
VCHEMBL1088337
p2172
sbag2
(g3
g4
NtRp2173
(dp2174
g7
F-1.6094379124341003
sg8
VCHEMBL1088629
p2175
sbag2
(g3
g4
NtRp2176
(dp2177
g7
F-4.9972122737641147
sg8
VCHEMBL231810
p2178
sbag2
(g3
g4
NtRp2179
(dp2180
g7
F-2.1972245773362196
sg8
VCHEMBL1088483
p2181
sbag2
(g3
g4
NtRp2182
(dp2183
g7
F-4.4067192472642533
sg8
VCHEMBL1222036
p2184
sbag2
(g3
g4
NtRp2185
(dp2186
g7
F-6.678342114654332
sg8
VCHEMBL1082743
p2187
sbag2
(g3
g4
NtRp2188
(dp2189
g7
F-2.33214389523559
sg8
VCHEMBL192621
p2190
sbag2
(g3
g4
NtRp2191
(dp2192
g7
F-2.1972245773362196
sg8
VCHEMBL192586
p2193
sbag2
(g3
g4
NtRp2194
(dp2195
g7
F-3.912023005428146
sg8
VCHEMBL434577
p2196
sbag2
(g3
g4
NtRp2197
(dp2198
g7
F-5.7365722974791922
sg8
VCHEMBL384708
p2199
sbag2
(g3
g4
NtRp2200
(dp2201
g7
F-4.6539603501575231
sg8
VCHEMBL221626
p2202
sbag2
(g3
g4
NtRp2203
(dp2204
g7
F-3.6888794541139363
sg8
VCHEMBL222452
p2205
sbag2
(g3
g4
NtRp2206
(dp2207
g7
F-6.9077552789821368
sg8
VCHEMBL219467
p2208
sbag2
(g3
g4
NtRp2209
(dp2210
g7
F-6.9077552789821368
sg8
VCHEMBL592043
p2211
sbag2
(g3
g4
NtRp2212
(dp2213
g7
F-2.3978952727983707
sg8
VCHEMBL1085668
p2214
sbag2
(g3
g4
NtRp2215
(dp2216
g7
F-2.1633230256605378
sg8
VCHEMBL1084922
p2217
sbag2
(g3
g4
NtRp2218
(dp2219
g7
F-5.7137328055093688
sg8
VCHEMBL205070
p2220
sbag2
(g3
g4
NtRp2221
(dp2222
g7
F-6.2146080984221914
sg8
VCHEMBL203860
p2223
sbag2
(g3
g4
NtRp2224
(dp2225
g7
F0.51082562376599072
sg8
VCHEMBL372337
p2226
sbag2
(g3
g4
NtRp2227
(dp2228
g7
F0.10536051565782628
sg8
VCHEMBL180995
p2229
sbag2
(g3
g4
NtRp2230
(dp2231
g7
F-5.0562458053483077
sg8
VCHEMBL203123
p2232
sbag2
(g3
g4
NtRp2233
(dp2234
g7
F-4.6913478822291435
sg8
VCHEMBL381976
p2235
sbag2
(g3
g4
NtRp2236
(dp2237
g7
F-2.6390573296152584
sg8
VCHEMBL201834
p2238
sbag2
(g3
g4
NtRp2239
(dp2240
g7
F-6.0867747269123065
sg8
VCHEMBL213457
p2241
sbag2
(g3
g4
NtRp2242
(dp2243
g7
F-4.9416424226093039
sg8
VCHEMBL211358
p2244
sbag2
(g3
g4
NtRp2245
(dp2246
g7
F-5.8289456176102075
sg8
VCHEMBL214291
p2247
sbag2
(g3
g4
NtRp2248
(dp2249
g7
F-6.4297194780391376
sg8
VCHEMBL424725
p2250
sbag2
(g3
g4
NtRp2251
(dp2252
g7
F-5.9401712527204316
sg8
VCHEMBL210063
p2253
sbag2
(g3
g4
NtRp2254
(dp2255
g7
F-5.5606816310155276
sg8
VCHEMBL385514
p2256
sbag2
(g3
g4
NtRp2257
(dp2258
g7
F-3.4339872044851463
sg8
VCHEMBL240230
p2259
sbag2
(g3
g4
NtRp2260
(dp2261
g7
F-6.0867747269123065
sg8
VCHEMBL394213
p2262
sbag2
(g3
g4
NtRp2263
(dp2264
g7
F-3.6888794541139363
sg8
VCHEMBL193146
p2265
sbag2
(g3
g4
NtRp2266
(dp2267
g7
F-5.3518581334760666
sg8
VCHEMBL191974
p2268
sbag2
(g3
g4
NtRp2269
(dp2270
g7
F-6.3189681137464344
sg8
VCHEMBL309245
p2271
sbag2
(g3
g4
NtRp2272
(dp2273
g7
F-2.3025850929940459
sg8
VCHEMBL193108
p2274
sbag2
(g3
g4
NtRp2275
(dp2276
g7
F0.69314718055994529
sg8
VCHEMBL182794
p2277
sbag2
(g3
g4
NtRp2278
(dp2279
g7
F-3.4011973816621555
sg8
VCHEMBL150461
p2280
sbag2
(g3
g4
NtRp2281
(dp2282
g7
F-2.3978952727983707
sg8
VCHEMBL104367
p2283
sbag2
(g3
g4
NtRp2284
(dp2285
g7
F0.51082562376599072
sg8
VCHEMBL46740
p2286
sbag2
(g3
g4
NtRp2287
(dp2288
g7
F-3.2347491740244907
sg8
VCHEMBL441457
p2289
sbag2
(g3
g4
NtRp2290
(dp2291
g7
F-5.2470240721604862
sg8
VCHEMBL189287
p2292
sbag2
(g3
g4
NtRp2293
(dp2294
g7
F-3.9815490680767565
sg8
VCHEMBL93326
p2295
sbag2
(g3
g4
NtRp2296
(dp2297
g7
F-2.0794415416798357
sg8
VCHEMBL93391
p2298
sbag2
(g3
g4
NtRp2299
(dp2300
g7
F-6.2225762680713688
sg8
VCHEMBL198089
p2301
sbag2
(g3
g4
NtRp2302
(dp2303
g7
F-3.1354942159291497
sg8
VCHEMBL185012
p2304
sbag2
(g3
g4
NtRp2305
(dp2306
g7
F-0.83290912293510388
sg8
VCHEMBL122237
p2307
sbag2
(g3
g4
NtRp2308
(dp2309
g7
F0.22314355131420971
sg8
VCHEMBL361005
p2310
sbag2
(g3
g4
NtRp2311
(dp2312
g7
F0.69314718055994529
sg8
VCHEMBL184679
p2313
sbag2
(g3
g4
NtRp2314
(dp2315
g7
F-2.0794415416798357
sg8
VCHEMBL187105
p2316
sbag2
(g3
g4
NtRp2317
(dp2318
g7
F-4.5643481914678361
sg8
VCHEMBL1405
p2319
sbag2
(g3
g4
NtRp2320
(dp2321
g7
F-3.6841181370122258
sg8
VCHEMBL98558
p2322
sbag2
(g3
g4
NtRp2323
(dp2324
g7
F-5.0434251169192468
sg8
VCHEMBL188528
p2325
sbag2
(g3
g4
NtRp2326
(dp2327
g7
F1.2039728043259361
sg8
VCHEMBL181368
p2328
sbag2
(g3
g4
NtRp2329
(dp2330
g7
F-5.5373342670185366
sg8
VCHEMBL195290
p2331
sbag2
(g3
g4
NtRp2332
(dp2333
g7
F-3.5550623063795967
sg8
VCHEMBL103294
p2334
sbag2
(g3
g4
NtRp2335
(dp2336
g7
F-3.6635616461296463
sg8
VCHEMBL363412
p2337
sbag2
(g3
g4
NtRp2338
(dp2339
g7
F-6.9077552789821368
sg8
VCHEMBL79335
p2340
sbag2
(g3
g4
NtRp2341
(dp2342
g7
F-3.1179499062782403
sg8
VCHEMBL327471
p2343
sbag2
(g3
g4
NtRp2344
(dp2345
g7
F-3.6888794541139363
sg8
VCHEMBL195389
p2346
sbag2
(g3
g4
NtRp2347
(dp2348
g7
F-5.3471075307174685
sg8
VCHEMBL360189
p2349
sbag2
(g3
g4
NtRp2350
(dp2351
g7
F-1.824549292051046
sg8
VCHEMBL71585
p2352
sbag2
(g3
g4
NtRp2353
(dp2354
g7
F-3.2950958507796098
sg8
VCHEMBL100763
p2355
sbag2
(g3
g4
NtRp2356
(dp2357
g7
F-1.9878743481543455
sg8
VCHEMBL365484
p2358
sbag2
(g3
g4
NtRp2359
(dp2360
g7
F-6.9077552789821368
sg8
VCHEMBL103
p2361
sbag2
(g3
g4
NtRp2362
(dp2363
g7
F-3.4242626545931514
sg8
VCHEMBL91052
p2364
sbag2
(g3
g4
NtRp2365
(dp2366
g7
F-6.9077552789821368
sg8
VCHEMBL311034
p2367
sbag2
(g3
g4
NtRp2368
(dp2369
g7
F-3.5524868292083815
sg8
VCHEMBL92335
p2370
sbag2
(g3
g4
NtRp2371
(dp2372
g7
F-3.5553480614894135
sg8
VCHEMBL189077
p2373
sbag2
(g3
g4
NtRp2374
(dp2375
g7
F-3.4657359027997265
sg8
VCHEMBL1627351
p2376
sbag2
(g3
g4
NtRp2377
(dp2378
g7
F-3.8918202981106265
sg8
VCHEMBL360338
p2379
sbag2
(g3
g4
NtRp2380
(dp2381
g7
F-0.97455963999813078
sg8
VCHEMBL178857
p2382
sbag2
(g3
g4
NtRp2383
(dp2384
g7
F-3.7541989202345789
sg8
VCHEMBL90008
p2385
sbag2
(g3
g4
NtRp2386
(dp2387
g7
F-6.7031881132408628
sg8
VCHEMBL188882
p2388
sbag2
(g3
g4
NtRp2389
(dp2390
g7
F-5.3423342519648109
sg8
VCHEMBL360385
p2391
sbag2
(g3
g4
NtRp2392
(dp2393
g7
F0.69314718055994529
sg8
VCHEMBL182980
p2394
sbag2
(g3
g4
NtRp2395
(dp2396
g7
F-4.7535901911063645
sg8
VCHEMBL195039
p2397
sbag2
(g3
g4
NtRp2398
(dp2399
g7
F-3.6633052029945059
sg8
VCHEMBL319211
p2400
sbag2
(g3
g4
NtRp2401
(dp2402
g7
F-2.5649493574615367
sg8
VCHEMBL180085
p2403
sbag2
(g3
g4
NtRp2404
(dp2405
g7
F-0.87546873735389985
sg8
VCHEMBL183162
p2406
sbag2
(g3
g4
NtRp2407
(dp2408
g7
F1.2039728043259361
sg8
VCHEMBL427324
p2409
sbag2
(g3
g4
NtRp2410
(dp2411
g7
F-3.912023005428146
sg8
VCHEMBL357824
p2412
sbag2
(g3
g4
NtRp2413
(dp2414
g7
F-1.3862943611198906
sg8
VCHEMBL1087418
p2415
sbag2
(g3
g4
NtRp2416
(dp2417
g7
F-5.4939663835528538
sg8
VCHEMBL1094732
p2418
sbag2
(g3
g4
NtRp2419
(dp2420
g7
F-4.3081109517237133
sg8
VCHEMBL1097377
p2421
sbag2
(g3
g4
NtRp2422
(dp2423
g7
F-6.1527326947041043
sg8
VCHEMBL425246
p2424
sbag2
(g3
g4
NtRp2425
(dp2426
g7
F-6.4967749901858625
sg8
VCHEMBL380032
p2427
sbag2
(g3
g4
NtRp2428
(dp2429
g7
F-3.8286413964890951
sg8
VCHEMBL211349
p2430
sbag2
(g3
g4
NtRp2431
(dp2432
g7
F-4.4308167988433134
sg8
VCHEMBL234524
p2433
sbag2
(g3
g4
NtRp2434
(dp2435
g7
F-6.6871086078665147
sg8
VCHEMBL396947
p2436
sbag2
(g3
g4
NtRp2437
(dp2438
g7
F-6.261491684321042
sg8
VCHEMBL203340
p2439
sbag2
(g3
g4
NtRp2440
(dp2441
g7
F-6.3716118472318568
sg8
VCHEMBL380720
p2442
sbag2
(g3
g4
NtRp2443
(dp2444
g7
F-6.9077552789821368
sg8
VCHEMBL205614
p2445
sbag2
(g3
g4
NtRp2446
(dp2447
g7
F-2.9957322735539909
sg8
VCHEMBL481189
p2448
sbag2
(g3
g4
NtRp2449
(dp2450
g7
F-6.9077552789821368
sg8
VCHEMBL519599
p2451
sbag2
(g3
g4
NtRp2452
(dp2453
g7
F-3.9512437185814275
sg8
VCHEMBL222453
p2454
sbag2
(g3
g4
NtRp2455
(dp2456
g7
F-1.5040773967762742
sg8
VCHEMBL1087297
p2457
sbag2
(g3
g4
NtRp2458
(dp2459
g7
F-1.4350845252893227
sg8
VCHEMBL1087426
p2460
sbag2
(g3
g4
NtRp2461
(dp2462
g7
F-0.095310179804324935
sg8
VCHEMBL1088485
p2463
sbag2
(g3
g4
NtRp2464
(dp2465
g7
F-4.6347289882296359
sg8
VCHEMBL183889
p2466
sbag2
(g3
g4
NtRp2467
(dp2468
g7
F-6.9077552789821368
sg8
VCHEMBL1083805
p2469
sbag2
(g3
g4
NtRp2470
(dp2471
g7
F-1.5686159179138452
sg8
VCHEMBL1085161
p2472
sbag2
(g3
g4
NtRp2473
(dp2474
g7
F-1.8405496333974869
sg8
VCHEMBL1082864
p2475
sbag2
(g3
g4
NtRp2476
(dp2477
g7
F-4.1271343850450917
sg8
VCHEMBL225514
p2478
sbag2
(g3
g4
NtRp2479
(dp2480
g7
F-3.6109179126442243
sg8
VCHEMBL222454
p2481
sbag2
(g3
g4
NtRp2482
(dp2483
g7
F-6.1202974189509503
sg8
VCHEMBL215593
p2484
sbag2
(g3
g4
NtRp2485
(dp2486
g7
F-3.6109179126442243
sg8
VCHEMBL391909
p2487
sbag2
(g3
g4
NtRp2488
(dp2489
g7
F-1.8870696490323797
sg8
VCHEMBL241256
p2490
sbag2
(g3
g4
NtRp2491
(dp2492
g7
F-2.3125354238472138
sg8
VCHEMBL241484
p2493
sbag2
(g3
g4
NtRp2494
(dp2495
g7
F-1.589235205116581
sg8
VCHEMBL396119
p2496
sbag2
(g3
g4
NtRp2497
(dp2498
g7
F-2.1972245773362196
sg8
VCHEMBL1084129
p2499
sbag2
(g3
g4
NtRp2500
(dp2501
g7
F-5.7430031878094825
sg8
VCHEMBL1085172
p2502
sbag2
(g3
g4
NtRp2503
(dp2504
g7
F-5.6419070709381138
sg8
VCHEMBL372030
p2505
sbag2
(g3
g4
NtRp2506
(dp2507
g7
F-6.7638849085624351
sg8
VCHEMBL382873
p2508
sbag2
(g3
g4
NtRp2509
(dp2510
g7
F-3.6888794541139363
sg8
VCHEMBL202155
p2511
sbag2
(g3
g4
NtRp2512
(dp2513
g7
F-6.0520891689244172
sg8
VCHEMBL437065
p2514
sbag2
(g3
g4
NtRp2515
(dp2516
g7
F-6.4457198193855785
sg8
VCHEMBL381495
p2517
sbag2
(g3
g4
NtRp2518
(dp2519
g7
F0.69314718055994529
sg8
VCHEMBL92748
p2520
sbag2
(g3
g4
NtRp2521
(dp2522
g7
F-3.068052935133617
sg8
VCHEMBL226267
p2523
sbag2
(g3
g4
NtRp2524
(dp2525
g7
F-2.0541237336955462
sg8
VCHEMBL226268
p2526
sbag2
(g3
g4
NtRp2527
(dp2528
g7
F-2.388762789235098
sg8
VCHEMBL226327
p2529
sbag2
(g3
g4
NtRp2530
(dp2531
g7
F-6.5652649700353614
sg8
VCHEMBL213838
p2532
sbag2
(g3
g4
NtRp2533
(dp2534
g7
F-5.6698809229805196
sg8
VCHEMBL190467
p2535
sbag2
(g3
g4
NtRp2536
(dp2537
g7
F-5.1929568508902104
sg8
VCHEMBL192849
p2538
sbag2
(g3
g4
NtRp2539
(dp2540
g7
F-5.4806389233419912
sg8
VCHEMBL205119
p2541
sbag2
(g3
g4
NtRp2542
(dp2543
g7
F-2.7725887222397811
sg8
VCHEMBL202607
p2544
sbag2
(g3
g4
NtRp2545
(dp2546
g7
F-1.9459101490553132
sg8
VCHEMBL371637
p2547
sbag2
(g3
g4
NtRp2548
(dp2549
g7
F-6.1717005974109149
sg8
VCHEMBL204315
p2550
sbag2
(g3
g4
NtRp2551
(dp2552
g7
F-5.6094717951849598
sg8
VCHEMBL210143
p2553
sbag2
(g3
g4
NtRp2554
(dp2555
g7
F-3.9318256327243257
sg8
VCHEMBL208085
p2556
sbag2
(g3
g4
NtRp2557
(dp2558
g7
F-4.6051701859880918
sg8
VCHEMBL383112
p2559
sbag2
(g3
g4
NtRp2560
(dp2561
g7
F-4.7273878187123408
sg8
VCHEMBL209978
p2562
sbag2
(g3
g4
NtRp2563
(dp2564
g7
F-2.7080502011022101
sg8
VCHEMBL341367
p2565
sbag2
(g3
g4
NtRp2566
(dp2567
g7
F-2.1972245773362196
sg8
VCHEMBL357283
p2568
sbag2
(g3
g4
NtRp2569
(dp2570
g7
F-5.9712618397904622
sg8
VCHEMBL216596
p2571
sbag2
(g3
g4
NtRp2572
(dp2573
g7
F-5.2626901889048856
sg8
VCHEMBL1628029
p2574
sbag2
(g3
g4
NtRp2575
(dp2576
g7
F-5.5174528964647074
sg8
VCHEMBL188517
p2577
sbag2
(g3
g4
NtRp2578
(dp2579
g7
F-2.1713368063840917
sg8
VCHEMBL513397
p2580
sbag2
(g3
g4
NtRp2581
(dp2582
g7
F-0
sg8
VCHEMBL121720
p2583
sbag2
(g3
g4
NtRp2584
(dp2585
g7
F-6.694562058521095
sg8
VCHEMBL1162
p2586
sbag2
(g3
g4
NtRp2587
(dp2588
g7
F-5.7589017738772803
sg8
VCHEMBL245378
p2589
sbag2
(g3
g4
NtRp2590
(dp2591
g7
F-6.4614681763537174
sg8
VCHEMBL249700
p2592
sbag2
(g3
g4
NtRp2593
(dp2594
g7
F-6.5072777123850116
sg8
VCHEMBL457035
p2595
sbag2
(g3
g4
NtRp2596
(dp2597
g7
F-0.10436001532424286
sg8
VCHEMBL1818254
p2598
sbag2
(g3
g4
NtRp2599
(dp2600
g7
F-4.4543472962535073
sg8
VCHEMBL1782331
p2601
sbag2
(g3
g4
NtRp2602
(dp2603
g7
F-6.0714303287458637
sg8
VCHEMBL2103774
p2604
sbag2
(g3
g4
NtRp2605
(dp2606
g7
F1.6094379124341003
sg8
VCHEMBL2024377
p2607
sbag2
(g3
g4
NtRp2608
(dp2609
g7
F0.51082562376599072
sg8
VCHEMBL2024376
p2610
sbag2
(g3
g4
NtRp2611
(dp2612
g7
F-0.40546510810816438
sg8
VCHEMBL2113002
p2613
sbag2
(g3
g4
NtRp2614
(dp2615
g7
F-1.0986122886681098
sg8
VCHEMBL2111532
p2616
sbag2
(g3
g4
NtRp2617
(dp2618
g7
F-5.4595855141441589
sg8
VCHEMBL2112469
p2619
sbag2
(g3
g4
NtRp2620
(dp2621
g7
F-0.095310179804324935
sg8
VCHEMBL2113027
p2622
sbag2
(g3
g4
NtRp2623
(dp2624
g7
F0.030459207484708574
sg8
VCHEMBL2113001
p2625
sbag2
(g3
g4
NtRp2626
(dp2627
g7
F-5.6698809229805196
sg8
VCHEMBL2071180
p2628
sbag2
(g3
g4
NtRp2629
(dp2630
g7
F-5.1357984370502621
sg8
VCHEMBL1208076
p2631
sbag2
(g3
g4
NtRp2632
(dp2633
g7
F-4.5951198501345898
sg8
VCHEMBL2403361
p2634
sbag2
(g3
g4
NtRp2635
(dp2636
g7
F-6.1944053911046719
sg8
VCHEMBL2403363
p2637
sbag2
(g3
g4
NtRp2638
(dp2639
g7
F-4.7004803657924166
sg8
VCHEMBL2403346
p2640
sbag2
(g3
g4
NtRp2641
(dp2642
g7
F-2.6390573296152584
sg8
VCHEMBL2403357
p2643
sbag2
(g3
g4
NtRp2644
(dp2645
g7
F-5.4380793089231956
sg8
VCHEMBL2403359
p2646
sbag2
(g3
g4
NtRp2647
(dp2648
g7
F-4.4308167988433134
sg8
VCHEMBL2403358
p2649
sbag2
(g3
g4
NtRp2650
(dp2651
g7
F-5.4380793089231956
sg8
VCHEMBL2403360
p2652
sbag2
(g3
g4
NtRp2653
(dp2654
g7
F-4.8441870864585912
sg8
VCHEMBL2401849
p2655
sbag2
(g3
g4
NtRp2656
(dp2657
g7
F-4.3694478524670215
sg8
VCHEMBL2403362
p2658
sbag2
(g3
g4
NtRp2659
(dp2660
g7
F-4.2766661190160553
sg8
VCHEMBL2403349
p2661
sbag2
(g3
g4
NtRp2662
(dp2663
g7
F-1.589235205116581
sg8
VCHEMBL2403356
p2664
sbag2
(g3
g4
NtRp2665
(dp2666
g7
F-5.5134287461649825
sg8
VCHEMBL2401848
p2667
sbag2
(g3
g4
NtRp2668
(dp2669
g7
F-4.5849674786705723
sg8
VCHEMBL2403348
p2670
sbag2
(g3
g4
NtRp2671
(dp2672
g7
F-4.3040650932041702
sg8
VCHEMBL2403347
p2673
sbag2
(g3
g4
NtRp2674
(dp2675
g7
F-3.2188758248682006
sg8
VCHEMBL2403355
p2676
sba.