(lp1
ccopy_reg
_reconstructor
p2
(cdatamining.molecule
Molecule
p3
c__builtin__
object
p4
NtRp5
(dp6
S'smiles'
p7
Vhttp://www.ebi.ac.uk/chemblws/compounds/CHEMBL219763.json
p8
sS'pIC'
p9
F-2.258633205464863
sS'id'
p10
VCHEMBL219763
p11
sS'activity'
p12
I1
sbag2
(g3
g4
NtRp13
(dp14
g7
Vhttp://www.ebi.ac.uk/chemblws/compounds/CHEMBL92720.json
p15
sg9
F-5.6131281063880705
sg10
VCHEMBL92720
p16
sg12
I1
sbag2
(g3
g4
NtRp17
(dp18
g7
Vhttp://www.ebi.ac.uk/chemblws/compounds/CHEMBL330307.json
p19
sg9
F-3.2108436531709366
sg10
VCHEMBL330307
p20
sg12
I1
sbag2
(g3
g4
NtRp21
(dp22
g7
Vhttp://www.ebi.ac.uk/chemblws/compounds/CHEMBL370037.json
p23
sg9
F-1.791759469228055
sg10
VCHEMBL370037
p24
sg12
I1
sbag2
(g3
g4
NtRp25
(dp26
g7
Vhttp://www.ebi.ac.uk/chemblws/compounds/CHEMBL315761.json
p27
sg9
F-3.5553480614894135
sg10
VCHEMBL315761
p28
sg12
I1
sbag2
(g3
g4
NtRp29
(dp30
g7
Vhttp://www.ebi.ac.uk/chemblws/compounds/CHEMBL180300.json
p31
sg9
F-0.26236426446749106
sg10
VCHEMBL180300
p32
sg12
I1
sbag2
(g3
g4
NtRp33
(dp34
g7
Vhttp://www.ebi.ac.uk/chemblws/compounds/CHEMBL365290.json
p35
sg9
F-4.7361984483944957
sg10
VCHEMBL365290
p36
sg12
I1
sbag2
(g3
g4
NtRp37
(dp38
g7
Vhttp://www.ebi.ac.uk/chemblws/compounds/CHEMBL191648.json
p39
sg9
F-6.2672005485413624
sg10
VCHEMBL191648
p40
sg12
I1
sbag2
(g3
g4
NtRp41
(dp42
g7
Vhttp://www.ebi.ac.uk/chemblws/compounds/CHEMBL184431.json
p43
sg9
F-0.78845736036427028
sg10
VCHEMBL184431
p44
sg12
I1
sbag2
(g3
g4
NtRp45
(dp46
g7
Vhttp://www.ebi.ac.uk/chemblws/compounds/CHEMBL364551.json
p47
sg9
F-6.3261494731550991
sg10
VCHEMBL364551
p48
sg12
I1
sbag2
(g3
g4
NtRp49
(dp50
g7
Vhttp://www.ebi.ac.uk/chemblws/compounds/CHEMBL124482.json
p51
sg9
F-1.6094379124341003
sg10
VCHEMBL124482
p52
sg12
I1
sbag2
(g3
g4
NtRp53
(dp54
g7
Vhttp://www.ebi.ac.uk/chemblws/compounds/CHEMBL198410.json
p55
sg9
F-5.5053315359323625
sg10
VCHEMBL198410
p56
sg12
I1
sbag2
(g3
g4
NtRp57
(dp58
g7
Vhttp://www.ebi.ac.uk/chemblws/compounds/CHEMBL420068.json
p59
sg9
F-1.547562508716013
sg10
VCHEMBL420068
p60
sg12
I1
sbag2
(g3
g4
NtRp61
(dp62
g7
Vhttp://www.ebi.ac.uk/chemblws/compounds/CHEMBL1200324.json
p63
sg9
F-4.7273878187123408
sg10
VCHEMBL1200324
p64
sg12
I1
sbag2
(g3
g4
NtRp65
(dp66
g7
Vhttp://www.ebi.ac.uk/chemblws/compounds/CHEMBL93793.json
p67
sg9
F-1.7047480922384253
sg10
VCHEMBL93793
p68
sg12
I1
sbag2
(g3
g4
NtRp69
(dp70
g7
Vhttp://www.ebi.ac.uk/chemblws/compounds/CHEMBL184448.json
p71
sg9
F-1.9169226121820611
sg10
VCHEMBL184448
p72
sg12
I1
sbag2
(g3
g4
NtRp73
(dp74
g7
Vhttp://www.ebi.ac.uk/chemblws/compounds/CHEMBL195466.json
p75
sg9
F-4.8121843553724171
sg10
VCHEMBL195466
p76
sg12
I1
sbag2
(g3
g4
NtRp77
(dp78
g7
Vhttp://www.ebi.ac.uk/chemblws/compounds/CHEMBL183049.json
p79
sg9
F-0
sg10
VCHEMBL183049
p80
sg12
I1
sbag2
(g3
g4
NtRp81
(dp82
g7
Vhttp://www.ebi.ac.uk/chemblws/compounds/CHEMBL77135.json
p83
sg9
F-5.3471075307174685
sg10
VCHEMBL77135
p84
sg12
I1
sbag2
(g3
g4
NtRp85
(dp86
g7
Vhttp://www.ebi.ac.uk/chemblws/compounds/CHEMBL183092.json
p87
sg9
F0.22314355131420971
sg10
VCHEMBL183092
p88
sg12
I1
sbag2
(g3
g4
NtRp89
(dp90
g7
Vhttp://www.ebi.ac.uk/chemblws/compounds/CHEMBL78413.json
p91
sg9
F-5.1929568508902104
sg10
VCHEMBL78413
p92
sg12
I1
sbag2
(g3
g4
NtRp93
(dp94
g7
Vhttp://www.ebi.ac.uk/chemblws/compounds/CHEMBL316080.json
p95
sg9
F-3.0440461338325417
sg10
VCHEMBL316080
p96
sg12
I1
sbag2
(g3
g4
NtRp97
(dp98
g7
Vhttp://www.ebi.ac.uk/chemblws/compounds/CHEMBL434502.json
p99
sg9
F-5.0106352940962555
sg10
VCHEMBL434502
p100
sg12
I1
sbag2
(g3
g4
NtRp101
(dp102
g7
Vhttp://www.ebi.ac.uk/chemblws/compounds/CHEMBL1628199.json
p103
sg9
F-3.4965075614664802
sg10
VCHEMBL1628199
p104
sg12
I1
sbag2
(g3
g4
NtRp105
(dp106
g7
Vhttp://www.ebi.ac.uk/chemblws/compounds/CHEMBL411.json
p107
sg9
F-6.6463905148477291
sg10
VCHEMBL411
p108
sg12
I1
sbag2
(g3
g4
NtRp109
(dp110
g7
Vhttp://www.ebi.ac.uk/chemblws/compounds/CHEMBL123025.json
p111
sg9
F-1.3862943611198906
sg10
VCHEMBL123025
p112
sg12
I1
sbag2
(g3
g4
NtRp113
(dp114
g7
Vhttp://www.ebi.ac.uk/chemblws/compounds/CHEMBL153062.json
p115
sg9
F-5.9322451874480109
sg10
VCHEMBL153062
p116
sg12
I1
sbag2
(g3
g4
NtRp117
(dp118
g7
Vhttp://www.ebi.ac.uk/chemblws/compounds/CHEMBL83.json
p119
sg9
F-3.6635616461296463
sg10
VCHEMBL83
p120
sg12
I1
sbag2
(g3
g4
NtRp121
(dp122
g7
Vhttp://www.ebi.ac.uk/chemblws/compounds/CHEMBL34679.json
p123
sg9
F-4.0604430105464191
sg10
VCHEMBL34679
p124
sg12
I1
sbag2
(g3
g4
NtRp125
(dp126
g7
Vhttp://www.ebi.ac.uk/chemblws/compounds/CHEMBL328716.json
p127
sg9
F-0.91629073187415511
sg10
VCHEMBL328716
p128
sg12
I1
sbag2
(g3
g4
NtRp129
(dp130
g7
Vhttp://www.ebi.ac.uk/chemblws/compounds/CHEMBL315271.json
p131
sg9
F-1.0986122886681098
sg10
VCHEMBL315271
p132
sg12
I1
sbag2
(g3
g4
NtRp133
(dp134
g7
Vhttp://www.ebi.ac.uk/chemblws/compounds/CHEMBL188049.json
p135
sg9
F-6.5889264775335192
sg10
VCHEMBL188049
p136
sg12
I1
sbag2
(g3
g4
NtRp137
(dp138
g7
Vhttp://www.ebi.ac.uk/chemblws/compounds/CHEMBL1462307.json
p139
sg9
F-4.7874917427820458
sg10
VCHEMBL1462307
p140
sg12
I1
sbag2
(g3
g4
NtRp141
(dp142
g7
Vhttp://www.ebi.ac.uk/chemblws/compounds/CHEMBL1087419.json
p143
sg9
F-2.5649493574615367
sg10
VCHEMBL1087419
p144
sg12
I1
sbag2
(g3
g4
NtRp145
(dp146
g7
Vhttp://www.ebi.ac.uk/chemblws/compounds/CHEMBL1087041.json
p147
sg9
F-5.2470240721604862
sg10
VCHEMBL1087041
p148
sg12
I1
sbag2
(g3
g4
NtRp149
(dp150
g7
Vhttp://www.ebi.ac.uk/chemblws/compounds/CHEMBL1348802.json
p151
sg9
F-6.9077552789821368
sg10
VCHEMBL1348802
p152
sg12
I1
sbag2
(g3
g4
NtRp153
(dp154
g7
Vhttp://www.ebi.ac.uk/chemblws/compounds/CHEMBL1322939.json
p155
sg9
F-4.2484952420493594
sg10
VCHEMBL1322939
p156
sg12
I1
sbag2
(g3
g4
NtRp157
(dp158
g7
Vhttp://www.ebi.ac.uk/chemblws/compounds/CHEMBL1253498.json
p159
sg9
F-0
sg10
VCHEMBL1253498
p160
sg12
I1
sbag2
(g3
g4
NtRp161
(dp162
g7
Vhttp://www.ebi.ac.uk/chemblws/compounds/CHEMBL184372.json
p163
sg9
F-0.58778666490211906
sg10
VCHEMBL184372
p164
sg12
I1
sbag2
(g3
g4
NtRp165
(dp166
g7
Vhttp://www.ebi.ac.uk/chemblws/compounds/CHEMBL1083186.json
p167
sg9
F-1.1939224684724346
sg10
VCHEMBL1083186
p168
sg12
I1
sbag2
(g3
g4
NtRp169
(dp170
g7
Vhttp://www.ebi.ac.uk/chemblws/compounds/CHEMBL1085429.json
p171
sg9
F-4.1588830833596715
sg10
VCHEMBL1085429
p172
sg12
I1
sbag2
(g3
g4
NtRp173
(dp174
g7
Vhttp://www.ebi.ac.uk/chemblws/compounds/CHEMBL1084128.json
p175
sg9
F-1.6094379124341003
sg10
VCHEMBL1084128
p176
sg12
I1
sbag2
(g3
g4
NtRp177
(dp178
g7
Vhttp://www.ebi.ac.uk/chemblws/compounds/CHEMBL124474.json
p179
sg9
F-0.33647223662121289
sg10
VCHEMBL124474
p180
sg12
I1
sbag2
(g3
g4
NtRp181
(dp182
g7
Vhttp://www.ebi.ac.uk/chemblws/compounds/CHEMBL231811.json
p183
sg9
F-3.6109179126442243
sg10
VCHEMBL231811
p184
sg12
I1
sbag2
(g3
g4
NtRp185
(dp186
g7
Vhttp://www.ebi.ac.uk/chemblws/compounds/CHEMBL385801.json
p187
sg9
F-3.2188758248682006
sg10
VCHEMBL385801
p188
sg12
I1
sbag2
(g3
g4
NtRp189
(dp190
g7
Vhttp://www.ebi.ac.uk/chemblws/compounds/CHEMBL1087682.json
p191
sg9
F-3.7128400915587796
sg10
VCHEMBL1087682
p192
sg12
I1
sbag2
(g3
g4
NtRp193
(dp194
g7
Vhttp://www.ebi.ac.uk/chemblws/compounds/CHEMBL1087811.json
p195
sg9
F-0.47000362924573563
sg10
VCHEMBL1087811
p196
sg12
I1
sbag2
(g3
g4
NtRp197
(dp198
g7
Vhttp://www.ebi.ac.uk/chemblws/compounds/CHEMBL1086389.json
p199
sg9
F-2.7725887222397811
sg10
VCHEMBL1086389
p200
sg12
I1
sbag2
(g3
g4
NtRp201
(dp202
g7
Vhttp://www.ebi.ac.uk/chemblws/compounds/CHEMBL427496.json
p203
sg9
F-1.1151415906193203
sg10
VCHEMBL427496
p204
sg12
I1
sbag2
(g3
g4
NtRp205
(dp206
g7
Vhttp://www.ebi.ac.uk/chemblws/compounds/CHEMBL225404.json
p207
sg9
F-5.1059454739005803
sg10
VCHEMBL225404
p208
sg12
I1
sbag2
(g3
g4
NtRp209
(dp210
g7
Vhttp://www.ebi.ac.uk/chemblws/compounds/CHEMBL222501.json
p211
sg9
F-4.5325994931532563
sg10
VCHEMBL222501
p212
sg12
I1
sbag2
(g3
g4
NtRp213
(dp214
g7
Vhttp://www.ebi.ac.uk/chemblws/compounds/CHEMBL226269.json
p215
sg9
F-2.8449093838194073
sg10
VCHEMBL226269
p216
sg12
I1
sbag2
(g3
g4
NtRp217
(dp218
g7
Vhttp://www.ebi.ac.uk/chemblws/compounds/CHEMBL1081361.json
p219
sg9
F-6.6463905148477291
sg10
VCHEMBL1081361
p220
sg12
I1
sbag2
(g3
g4
NtRp221
(dp222
g7
Vhttp://www.ebi.ac.uk/chemblws/compounds/CHEMBL219003.json
p223
sg9
F-1.0473189942805592
sg10
VCHEMBL219003
p224
sg12
I1
sbag2
(g3
g4
NtRp225
(dp226
g7
Vhttp://www.ebi.ac.uk/chemblws/compounds/CHEMBL329902.json
p227
sg9
F-0.83290912293510388
sg10
VCHEMBL329902
p228
sg12
I1
sbag2
(g3
g4
NtRp229
(dp230
g7
Vhttp://www.ebi.ac.uk/chemblws/compounds/CHEMBL235496.json
p231
sg9
F-3.970291913552122
sg10
VCHEMBL235496
p232
sg12
I1
sbag2
(g3
g4
NtRp233
(dp234
g7
Vhttp://www.ebi.ac.uk/chemblws/compounds/CHEMBL235497.json
p235
sg9
F-4.0253516907351496
sg10
VCHEMBL235497
p236
sg12
I1
sbag2
(g3
g4
NtRp237
(dp238
g7
Vhttp://www.ebi.ac.uk/chemblws/compounds/CHEMBL1084913.json
p239
sg9
F-5.7868973813667077
sg10
VCHEMBL1084913
p240
sg12
I1
sbag2
(g3
g4
NtRp241
(dp242
g7
Vhttp://www.ebi.ac.uk/chemblws/compounds/CHEMBL1082224.json
p243
sg9
F-1.1939224684724346
sg10
VCHEMBL1082224
p244
sg12
I1
sbag2
(g3
g4
NtRp245
(dp246
g7
Vhttp://www.ebi.ac.uk/chemblws/compounds/CHEMBL1083194.json
p247
sg9
F-1.5686159179138452
sg10
VCHEMBL1083194
p248
sg12
I1
sbag2
(g3
g4
NtRp249
(dp250
g7
Vhttp://www.ebi.ac.uk/chemblws/compounds/CHEMBL184371.json
p251
sg9
F0.51082562376599072
sg10
VCHEMBL184371
p252
sg12
I1
sbag2
(g3
g4
NtRp253
(dp254
g7
Vhttp://www.ebi.ac.uk/chemblws/compounds/CHEMBL188458.json
p255
sg9
F-5.8861040314501558
sg10
VCHEMBL188458
p256
sg12
I1
sbag2
(g3
g4
NtRp257
(dp258
g7
Vhttp://www.ebi.ac.uk/chemblws/compounds/CHEMBL361272.json
p259
sg9
F-5.2781146592305168
sg10
VCHEMBL361272
p260
sg12
I1
sbag2
(g3
g4
NtRp261
(dp262
g7
Vhttp://www.ebi.ac.uk/chemblws/compounds/CHEMBL431611.json
p263
sg9
F-0.91629073187415511
sg10
VCHEMBL431611
p264
sg12
I1
sbag2
(g3
g4
NtRp265
(dp266
g7
Vhttp://www.ebi.ac.uk/chemblws/compounds/CHEMBL33568.json
p267
sg9
F-4.6539603501575231
sg10
VCHEMBL33568
p268
sg12
I1
sbag2
(g3
g4
NtRp269
(dp270
g7
Vhttp://www.ebi.ac.uk/chemblws/compounds/CHEMBL241257.json
p271
sg9
F-2.5649493574615367
sg10
VCHEMBL241257
p272
sg12
I1
sbag2
(g3
g4
NtRp273
(dp274
g7
Vhttp://www.ebi.ac.uk/chemblws/compounds/CHEMBL396118.json
p275
sg9
F-5.1647859739235145
sg10
VCHEMBL396118
p276
sg12
I1
sbag2
(g3
g4
NtRp277
(dp278
g7
Vhttp://www.ebi.ac.uk/chemblws/compounds/CHEMBL1088344.json
p279
sg9
F-1.4350845252893227
sg10
VCHEMBL1088344
p280
sg12
I1
sbag2
(g3
g4
NtRp281
(dp282
g7
Vhttp://www.ebi.ac.uk/chemblws/compounds/CHEMBL150279.json
p283
sg9
F-5.4806389233419912
sg10
VCHEMBL150279
p284
sg12
I1
sbag2
(g3
g4
NtRp285
(dp286
g7
Vhttp://www.ebi.ac.uk/chemblws/compounds/CHEMBL365625.json
p287
sg9
F-6.5750758405996201
sg10
VCHEMBL365625
p288
sg12
I1
sbag2
(g3
g4
NtRp289
(dp290
g7
Vhttp://www.ebi.ac.uk/chemblws/compounds/CHEMBL365016.json
p291
sg9
F-6.6528630293533473
sg10
VCHEMBL365016
p292
sg12
I1
sbag2
(g3
g4
NtRp293
(dp294
g7
Vhttp://www.ebi.ac.uk/chemblws/compounds/CHEMBL398841.json
p295
sg9
F-5.0106352940962555
sg10
VCHEMBL398841
p296
sg12
I1
sbag2
(g3
g4
NtRp297
(dp298
g7
Vhttp://www.ebi.ac.uk/chemblws/compounds/CHEMBL359774.json
p299
sg9
F-1.3609765531356006
sg10
VCHEMBL359774
p300
sg12
I1
sbag2
(g3
g4
NtRp301
(dp302
g7
Vhttp://www.ebi.ac.uk/chemblws/compounds/CHEMBL179929.json
p303
sg9
F-3.6635616461296463
sg10
VCHEMBL179929
p304
sg12
I1
sbag2
(g3
g4
NtRp305
(dp306
g7
Vhttp://www.ebi.ac.uk/chemblws/compounds/CHEMBL470993.json
p307
sg9
F-0.64185388617239469
sg10
VCHEMBL470993
p308
sg12
I1
sbag2
(g3
g4
NtRp309
(dp310
g7
Vhttp://www.ebi.ac.uk/chemblws/compounds/CHEMBL511269.json
p311
sg9
F-1.9021075263969205
sg10
VCHEMBL511269
p312
sg12
I1
sbag2
(g3
g4
NtRp313
(dp314
g7
Vhttp://www.ebi.ac.uk/chemblws/compounds/CHEMBL469512.json
p315
sg9
F-2.7850112422383382
sg10
VCHEMBL469512
p316
sg12
I1
sbag2
(g3
g4
NtRp317
(dp318
g7
Vhttp://www.ebi.ac.uk/chemblws/compounds/CHEMBL470785.json
p319
sg9
F-4.5325994931532563
sg10
VCHEMBL470785
p320
sg12
I1
sbag2
(g3
g4
NtRp321
(dp322
g7
Vhttp://www.ebi.ac.uk/chemblws/compounds/CHEMBL1087289.json
p323
sg9
F-4.6051701859880918
sg10
VCHEMBL1087289
p324
sg12
I1
sbag2
(g3
g4
NtRp325
(dp326
g7
Vhttp://www.ebi.ac.uk/chemblws/compounds/CHEMBL1086776.json
p327
sg9
F-0.91629073187415511
sg10
VCHEMBL1086776
p328
sg12
I1
sbag2
(g3
g4
NtRp329
(dp330
g7
Vhttp://www.ebi.ac.uk/chemblws/compounds/CHEMBL101382.json
p331
sg9
F-2.9449651565003379
sg10
VCHEMBL101382
p332
sg12
I1
sbag2
(g3
g4
NtRp333
(dp334
g7
Vhttp://www.ebi.ac.uk/chemblws/compounds/CHEMBL185114.json
p335
sg9
F-0.53062825106217038
sg10
VCHEMBL185114
p336
sg12
I1
sbag2
(g3
g4
NtRp337
(dp338
g7
Vhttp://www.ebi.ac.uk/chemblws/compounds/CHEMBL377171.json
p339
sg9
F-6.8834625864130921
sg10
VCHEMBL377171
p340
sg12
I1
sbag2
(g3
g4
NtRp341
(dp342
g7
Vhttp://www.ebi.ac.uk/chemblws/compounds/CHEMBL385680.json
p343
sg9
F-3.929862923556477
sg10
VCHEMBL385680
p344
sg12
I1
sbag2
(g3
g4
NtRp345
(dp346
g7
Vhttp://www.ebi.ac.uk/chemblws/compounds/CHEMBL204902.json
p347
sg9
F-6.1820849067166321
sg10
VCHEMBL204902
p348
sg12
I1
sbag2
(g3
g4
NtRp349
(dp350
g7
Vhttp://www.ebi.ac.uk/chemblws/compounds/CHEMBL206727.json
p351
sg9
F-5.4293456289544411
sg10
VCHEMBL206727
p352
sg12
I1
sbag2
(g3
g4
NtRp353
(dp354
g7
Vhttp://www.ebi.ac.uk/chemblws/compounds/CHEMBL206547.json
p355
sg9
F-4.6151205168412597
sg10
VCHEMBL206547
p356
sg12
I1
sbag2
(g3
g4
NtRp357
(dp358
g7
Vhttp://www.ebi.ac.uk/chemblws/compounds/CHEMBL471626.json
p359
sg9
F-2.341805806147327
sg10
VCHEMBL471626
p360
sg12
I1
sbag2
(g3
g4
NtRp361
(dp362
g7
Vhttp://www.ebi.ac.uk/chemblws/compounds/CHEMBL511492.json
p363
sg9
F-4.836281906951478
sg10
VCHEMBL511492
p364
sg12
I1
sbag2
(g3
g4
NtRp365
(dp366
g7
Vhttp://www.ebi.ac.uk/chemblws/compounds/CHEMBL212992.json
p367
sg9
F-4.4308167988433134
sg10
VCHEMBL212992
p368
sg12
I1
sbag2
(g3
g4
NtRp369
(dp370
g7
Vhttp://www.ebi.ac.uk/chemblws/compounds/CHEMBL93792.json
p371
sg9
F-3.3322045101752038
sg10
VCHEMBL93792
p372
sg12
I1
sbag2
(g3
g4
NtRp373
(dp374
g7
Vhttp://www.ebi.ac.uk/chemblws/compounds/CHEMBL196836.json
p375
sg9
F-4.836281906951478
sg10
VCHEMBL196836
p376
sg12
I1
sbag2
(g3
g4
NtRp377
(dp378
g7
Vhttp://www.ebi.ac.uk/chemblws/compounds/CHEMBL25228.json
p379
sg9
F-4.5108595065168497
sg10
VCHEMBL25228
p380
sg12
I1
sbag2
(g3
g4
NtRp381
(dp382
g7
Vhttp://www.ebi.ac.uk/chemblws/compounds/CHEMBL219390.json
p383
sg9
F-4.2710950739665998
sg10
VCHEMBL219390
p384
sg12
I1
sbag2
(g3
g4
NtRp385
(dp386
g7
Vhttp://www.ebi.ac.uk/chemblws/compounds/CHEMBL328675.json
p387
sg9
F-3.912023005428146
sg10
VCHEMBL328675
p388
sg12
I1
sbag2
(g3
g4
NtRp389
(dp390
g7
Vhttp://www.ebi.ac.uk/chemblws/compounds/CHEMBL194326.json
p391
sg9
F-5.2257466737132017
sg10
VCHEMBL194326
p392
sg12
I1
sbag2
(g3
g4
NtRp393
(dp394
g7
Vhttp://www.ebi.ac.uk/chemblws/compounds/CHEMBL209269.json
p395
sg9
F-6.3403593037277517
sg10
VCHEMBL209269
p396
sg12
I1
sbag2
(g3
g4
NtRp397
(dp398
g7
Vhttp://www.ebi.ac.uk/chemblws/compounds/CHEMBL33888.json
p399
sg9
F-6.8341087388138382
sg10
VCHEMBL33888
p400
sg12
I1
sbag2
(g3
g4
NtRp401
(dp402
g7
Vhttp://www.ebi.ac.uk/chemblws/compounds/CHEMBL93586.json
p403
sg9
F-1.7749523509116738
sg10
VCHEMBL93586
p404
sg12
I1
sbag2
(g3
g4
NtRp405
(dp406
g7
Vhttp://www.ebi.ac.uk/chemblws/compounds/CHEMBL328388.json
p407
sg9
F-3.4330189939851112
sg10
VCHEMBL328388
p408
sg12
I1
sbag2
(g3
g4
NtRp409
(dp410
g7
Vhttp://www.ebi.ac.uk/chemblws/compounds/CHEMBL385993.json
p411
sg9
F-1.3660916538023711
sg10
VCHEMBL385993
p412
sg12
I1
sbag2
(g3
g4
NtRp413
(dp414
g7
Vhttp://www.ebi.ac.uk/chemblws/compounds/CHEMBL523477.json
p415
sg9
F-3.8286413964890951
sg10
VCHEMBL523477
p416
sg12
I1
sbag2
(g3
g4
NtRp417
(dp418
g7
Vhttp://www.ebi.ac.uk/chemblws/compounds/CHEMBL191300.json
p419
sg9
F-3.6888794541139363
sg10
VCHEMBL191300
p420
sg12
I1
sbag2
(g3
g4
NtRp421
(dp422
g7
Vhttp://www.ebi.ac.uk/chemblws/compounds/CHEMBL447837.json
p423
sg9
F-4.0604430105464191
sg10
VCHEMBL447837
p424
sg12
I1
sbag2
(g3
g4
NtRp425
(dp426
g7
Vhttp://www.ebi.ac.uk/chemblws/compounds/CHEMBL94280.json
p427
sg9
F-1.547562508716013
sg10
VCHEMBL94280
p428
sg12
I1
sbag2
(g3
g4
NtRp429
(dp430
g7
Vhttp://www.ebi.ac.uk/chemblws/compounds/CHEMBL187314.json
p431
sg9
F-6.6592939196836376
sg10
VCHEMBL187314
p432
sg12
I1
sbag2
(g3
g4
NtRp433
(dp434
g7
Vhttp://www.ebi.ac.uk/chemblws/compounds/CHEMBL371308.json
p435
sg9
F-3.3032169733019514
sg10
VCHEMBL371308
p436
sg12
I1
sbag2
(g3
g4
NtRp437
(dp438
g7
Vhttp://www.ebi.ac.uk/chemblws/compounds/CHEMBL191710.json
p439
sg9
F-3.5835189384561099
sg10
VCHEMBL191710
p440
sg12
I1
sbag2
(g3
g4
NtRp441
(dp442
g7
Vhttp://www.ebi.ac.uk/chemblws/compounds/CHEMBL313941.json
p443
sg9
F-0.99325177301028345
sg10
VCHEMBL313941
p444
sg12
I1
sbag2
(g3
g4
NtRp445
(dp446
g7
Vhttp://www.ebi.ac.uk/chemblws/compounds/CHEMBL426085.json
p447
sg9
F-5.8749307308520304
sg10
VCHEMBL426085
p448
sg12
I1
sbag2
(g3
g4
NtRp449
(dp450
g7
Vhttp://www.ebi.ac.uk/chemblws/compounds/CHEMBL202691.json
p451
sg9
F-5.7930136083841441
sg10
VCHEMBL202691
p452
sg12
I1
sbag2
(g3
g4
NtRp453
(dp454
g7
Vhttp://www.ebi.ac.uk/chemblws/compounds/CHEMBL211493.json
p455
sg9
F-6.1758672701057611
sg10
VCHEMBL211493
p456
sg12
I1
sbag2
(g3
g4
NtRp457
(dp458
g7
Vhttp://www.ebi.ac.uk/chemblws/compounds/CHEMBL377475.json
p459
sg9
F-6.7833252006039597
sg10
VCHEMBL377475
p460
sg12
I1
sbag2
(g3
g4
NtRp461
(dp462
g7
Vhttp://www.ebi.ac.uk/chemblws/compounds/CHEMBL204024.json
p463
sg9
F-6.4409465406329209
sg10
VCHEMBL204024
p464
sg12
I1
sbag2
(g3
g4
NtRp465
(dp466
g7
Vhttp://www.ebi.ac.uk/chemblws/compounds/CHEMBL183333.json
p467
sg9
F0.51082562376599072
sg10
VCHEMBL183333
p468
sg12
I1
sbag2
(g3
g4
NtRp469
(dp470
g7
Vhttp://www.ebi.ac.uk/chemblws/compounds/CHEMBL185231.json
p471
sg9
F-0
sg10
VCHEMBL185231
p472
sg12
I1
sbag2
(g3
g4
NtRp473
(dp474
g7
Vhttp://www.ebi.ac.uk/chemblws/compounds/CHEMBL382734.json
p475
sg9
F-3.4404180948154366
sg10
VCHEMBL382734
p476
sg12
I1
sbag2
(g3
g4
NtRp477
(dp478
g7
Vhttp://www.ebi.ac.uk/chemblws/compounds/CHEMBL195807.json
p479
sg9
F-4.6913478822291435
sg10
VCHEMBL195807
p480
sg12
I1
sbag2
(g3
g4
NtRp481
(dp482
g7
Vhttp://www.ebi.ac.uk/chemblws/compounds/CHEMBL31127.json
p483
sg9
F-6.1944053911046719
sg10
VCHEMBL31127
p484
sg12
I1
sbag2
(g3
g4
NtRp485
(dp486
g7
Vhttp://www.ebi.ac.uk/chemblws/compounds/CHEMBL198914.json
p487
sg9
F0.69314718055994529
sg10
VCHEMBL198914
p488
sg12
I1
sbag2
(g3
g4
NtRp489
(dp490
g7
Vhttp://www.ebi.ac.uk/chemblws/compounds/CHEMBL372808.json
p491
sg9
F0.916290731874155
sg10
VCHEMBL372808
p492
sg12
I1
sbag2
(g3
g4
NtRp493
(dp494
g7
Vhttp://www.ebi.ac.uk/chemblws/compounds/CHEMBL197495.json
p495
sg9
F0.51082562376599072
sg10
VCHEMBL197495
p496
sg12
I1
sbag2
(g3
g4
NtRp497
(dp498
g7
Vhttp://www.ebi.ac.uk/chemblws/compounds/CHEMBL191901.json
p499
sg9
F-4.8283137373023015
sg10
VCHEMBL191901
p500
sg12
I1
sbag2
(g3
g4
NtRp501
(dp502
g7
Vhttp://www.ebi.ac.uk/chemblws/compounds/CHEMBL214207.json
p503
sg9
F-3.6888794541139363
sg10
VCHEMBL214207
p504
sg12
I1
sbag2
(g3
g4
NtRp505
(dp506
g7
Vhttp://www.ebi.ac.uk/chemblws/compounds/CHEMBL195216.json
p507
sg9
F-3.6375861597263857
sg10
VCHEMBL195216
p508
sg12
I1
sbag2
(g3
g4
NtRp509
(dp510
g7
Vhttp://www.ebi.ac.uk/chemblws/compounds/CHEMBL241301.json
p511
sg9
F-0
sg10
VCHEMBL241301
p512
sg12
I1
sbag2
(g3
g4
NtRp513
(dp514
g7
Vhttp://www.ebi.ac.uk/chemblws/compounds/CHEMBL241304.json
p515
sg9
F-2.5649493574615367
sg10
VCHEMBL241304
p516
sg12
I1
sbag2
(g3
g4
NtRp517
(dp518
g7
Vhttp://www.ebi.ac.uk/chemblws/compounds/CHEMBL241485.json
p519
sg9
F-3.0910424533583161
sg10
VCHEMBL241485
p520
sg12
I1
sbag2
(g3
g4
NtRp521
(dp522
g7
Vhttp://www.ebi.ac.uk/chemblws/compounds/CHEMBL437190.json
p523
sg9
F-1.3862943611198906
sg10
VCHEMBL437190
p524
sg12
I1
sbag2
(g3
g4
NtRp525
(dp526
g7
Vhttp://www.ebi.ac.uk/chemblws/compounds/CHEMBL101083.json
p527
sg9
F-3.6381123370602833
sg10
VCHEMBL101083
p528
sg12
I1
sbag2
(g3
g4
NtRp529
(dp530
g7
Vhttp://www.ebi.ac.uk/chemblws/compounds/CHEMBL50995.json
p531
sg9
F-1.9459101490553132
sg10
VCHEMBL50995
p532
sg12
I1
sbag2
(g3
g4
NtRp533
(dp534
g7
Vhttp://www.ebi.ac.uk/chemblws/compounds/CHEMBL182402.json
p535
sg9
F-0.26236426446749106
sg10
VCHEMBL182402
p536
sg12
I1
sbag2
(g3
g4
NtRp537
(dp538
g7
Vhttp://www.ebi.ac.uk/chemblws/compounds/CHEMBL188391.json
p539
sg9
F-4.9344739331306915
sg10
VCHEMBL188391
p540
sg12
I1
sbag2
(g3
g4
NtRp541
(dp542
g7
Vhttp://www.ebi.ac.uk/chemblws/compounds/CHEMBL184598.json
p543
sg9
F0.22314355131420971
sg10
VCHEMBL184598
p544
sg12
I1
sbag2
(g3
g4
NtRp545
(dp546
g7
Vhttp://www.ebi.ac.uk/chemblws/compounds/CHEMBL360315.json
p547
sg9
F-0.33647223662121289
sg10
VCHEMBL360315
p548
sg12
I1
sbag2
(g3
g4
NtRp549
(dp550
g7
Vhttp://www.ebi.ac.uk/chemblws/compounds/CHEMBL371777.json
p551
sg9
F-4.0073331852324712
sg10
VCHEMBL371777
p552
sg12
I1
sbag2
(g3
g4
NtRp553
(dp554
g7
Vhttp://www.ebi.ac.uk/chemblws/compounds/CHEMBL126164.json
p555
sg9
F-2.8903717578961645
sg10
VCHEMBL126164
p556
sg12
I1
sbag2
(g3
g4
NtRp557
(dp558
g7
Vhttp://www.ebi.ac.uk/chemblws/compounds/CHEMBL101719.json
p559
sg9
F-2.9856819377004897
sg10
VCHEMBL101719
p560
sg12
I1
sbag2
(g3
g4
NtRp561
(dp562
g7
Vhttp://www.ebi.ac.uk/chemblws/compounds/CHEMBL328475.json
p563
sg9
F-4.7184988712950942
sg10
VCHEMBL328475
p564
sg12
I1
sbag2
(g3
g4
NtRp565
(dp566
g7
Vhttp://www.ebi.ac.uk/chemblws/compounds/CHEMBL94225.json
p567
sg9
F-1.2527629684953681
sg10
VCHEMBL94225
p568
sg12
I1
sbag2
(g3
g4
NtRp569
(dp570
g7
Vhttp://www.ebi.ac.uk/chemblws/compounds/CHEMBL195786.json
p571
sg9
F-6.7844570626376433
sg10
VCHEMBL195786
p572
sg12
I1
sbag2
(g3
g4
NtRp573
(dp574
g7
Vhttp://www.ebi.ac.uk/chemblws/compounds/CHEMBL441366.json
p575
sg9
F-5.393627546352362
sg10
VCHEMBL441366
p576
sg12
I1
sbag2
(g3
g4
NtRp577
(dp578
g7
Vhttp://www.ebi.ac.uk/chemblws/compounds/CHEMBL384709.json
p579
sg9
F-6.7979404129749303
sg10
VCHEMBL384709
p580
sg12
I1
sbag2
(g3
g4
NtRp581
(dp582
g7
Vhttp://www.ebi.ac.uk/chemblws/compounds/CHEMBL189080.json
p583
sg9
F-5.2094861528414214
sg10
VCHEMBL189080
p584
sg12
I1
sbag2
(g3
g4
NtRp585
(dp586
g7
Vhttp://www.ebi.ac.uk/chemblws/compounds/CHEMBL180707.json
p587
sg9
F1.5141277326297755
sg10
VCHEMBL180707
p588
sg12
I1
sbag2
(g3
g4
NtRp589
(dp590
g7
Vhttp://www.ebi.ac.uk/chemblws/compounds/CHEMBL285632.json
p591
sg9
F-5.1873858058407549
sg10
VCHEMBL285632
p592
sg12
I1
sbag2
(g3
g4
NtRp593
(dp594
g7
Vhttp://www.ebi.ac.uk/chemblws/compounds/CHEMBL362272.json
p595
sg9
F-5.8141305318250662
sg10
VCHEMBL362272
p596
sg12
I1
sbag2
(g3
g4
NtRp597
(dp598
g7
Vhttp://www.ebi.ac.uk/chemblws/compounds/CHEMBL367574.json
p599
sg9
F0.35667494393873245
sg10
VCHEMBL367574
p600
sg12
I1
sbag2
(g3
g4
NtRp601
(dp602
g7
Vhttp://www.ebi.ac.uk/chemblws/compounds/CHEMBL438516.json
p603
sg9
F-5.598421958998375
sg10
VCHEMBL438516
p604
sg12
I1
sbag2
(g3
g4
NtRp605
(dp606
g7
Vhttp://www.ebi.ac.uk/chemblws/compounds/CHEMBL219004.json
p607
sg9
F0.52763274208237199
sg10
VCHEMBL219004
p608
sg12
I1
sbag2
(g3
g4
NtRp609
(dp610
g7
Vhttp://www.ebi.ac.uk/chemblws/compounds/CHEMBL195212.json
p611
sg9
F-4.1431347263915326
sg10
VCHEMBL195212
p612
sg12
I1
sbag2
(g3
g4
NtRp613
(dp614
g7
Vhttp://www.ebi.ac.uk/chemblws/compounds/CHEMBL425439.json
p615
sg9
F-3.6888794541139363
sg10
VCHEMBL425439
p616
sg12
I1
sbag2
(g3
g4
NtRp617
(dp618
g7
Vhttp://www.ebi.ac.uk/chemblws/compounds/CHEMBL93266.json
p619
sg9
F-4.8097423517168654
sg10
VCHEMBL93266
p620
sg12
I1
sbag2
(g3
g4
NtRp621
(dp622
g7
Vhttp://www.ebi.ac.uk/chemblws/compounds/CHEMBL395308.json
p623
sg9
F-4.5538768916005408
sg10
VCHEMBL395308
p624
sg12
I1
sbag2
(g3
g4
NtRp625
(dp626
g7
Vhttp://www.ebi.ac.uk/chemblws/compounds/CHEMBL394788.json
p627
sg9
F-3.044522437723423
sg10
VCHEMBL394788
p628
sg12
I1
sbag2
(g3
g4
NtRp629
(dp630
g7
Vhttp://www.ebi.ac.uk/chemblws/compounds/CHEMBL245133.json
p631
sg9
F-3.5835189384561099
sg10
VCHEMBL245133
p632
sg12
I1
sbag2
(g3
g4
NtRp633
(dp634
g7
Vhttp://www.ebi.ac.uk/chemblws/compounds/CHEMBL101807.json
p635
sg9
F-3.3662608117812591
sg10
VCHEMBL101807
p636
sg12
I1
sbag2
(g3
g4
NtRp637
(dp638
g7
Vhttp://www.ebi.ac.uk/chemblws/compounds/CHEMBL195208.json
p639
sg9
F-4.7273878187123408
sg10
VCHEMBL195208
p640
sg12
I1
sbag2
(g3
g4
NtRp641
(dp642
g7
Vhttp://www.ebi.ac.uk/chemblws/compounds/CHEMBL183584.json
p643
sg9
F-1.0986122886681098
sg10
VCHEMBL183584
p644
sg12
I1
sbag2
(g3
g4
NtRp645
(dp646
g7
Vhttp://www.ebi.ac.uk/chemblws/compounds/CHEMBL8145.json
p647
sg9
F-6.1092475827643655
sg10
VCHEMBL8145
p648
sg12
I1
sbag2
(g3
g4
NtRp649
(dp650
g7
Vhttp://www.ebi.ac.uk/chemblws/compounds/CHEMBL435090.json
p651
sg9
F-3.912023005428146
sg10
VCHEMBL435090
p652
sg12
I1
sbag2
(g3
g4
NtRp653
(dp654
g7
Vhttp://www.ebi.ac.uk/chemblws/compounds/CHEMBL1201151.json
p655
sg9
F-2.8903717578961645
sg10
VCHEMBL1201151
p656
sg12
I1
sbag2
(g3
g4
NtRp657
(dp658
g7
Vhttp://www.ebi.ac.uk/chemblws/compounds/CHEMBL366928.json
p659
sg9
F-0.076961041136128394
sg10
VCHEMBL366928
p660
sg12
I1
sbag2
(g3
g4
NtRp661
(dp662
g7
Vhttp://www.ebi.ac.uk/chemblws/compounds/CHEMBL103305.json
p663
sg9
F-3.8914120515240218
sg10
VCHEMBL103305
p664
sg12
I1
sbag2
(g3
g4
NtRp665
(dp666
g7
Vhttp://www.ebi.ac.uk/chemblws/compounds/CHEMBL311662.json
p667
sg9
F-6.9077552789821368
sg10
VCHEMBL311662
p668
sg12
I1
sbag2
(g3
g4
NtRp669
(dp670
g7
Vhttp://www.ebi.ac.uk/chemblws/compounds/CHEMBL192068.json
p671
sg9
F-6.2519038831658884
sg10
VCHEMBL192068
p672
sg12
I1
sbag2
(g3
g4
NtRp673
(dp674
g7
Vhttp://www.ebi.ac.uk/chemblws/compounds/CHEMBL360651.json
p675
sg9
F-5.6094717951849598
sg10
VCHEMBL360651
p676
sg12
I1
sbag2
(g3
g4
NtRp677
(dp678
g7
Vhttp://www.ebi.ac.uk/chemblws/compounds/CHEMBL195878.json
p679
sg9
F-3.1780538303479458
sg10
VCHEMBL195878
p680
sg12
I1
sbag2
(g3
g4
NtRp681
(dp682
g7
Vhttp://www.ebi.ac.uk/chemblws/compounds/CHEMBL182237.json
p683
sg9
F-0.75141608868392118
sg10
VCHEMBL182237
p684
sg12
I1
sbag2
(g3
g4
NtRp685
(dp686
g7
Vhttp://www.ebi.ac.uk/chemblws/compounds/CHEMBL183086.json
p687
sg9
F-0.18232155679395459
sg10
VCHEMBL183086
p688
sg12
I1
sbag2
(g3
g4
NtRp689
(dp690
g7
Vhttp://www.ebi.ac.uk/chemblws/compounds/CHEMBL426641.json
p691
sg9
F-3.8066624897703196
sg10
VCHEMBL426641
p692
sg12
I1
sbag2
(g3
g4
NtRp693
(dp694
g7
Vhttp://www.ebi.ac.uk/chemblws/compounds/CHEMBL195465.json
p695
sg9
F-4.2341065045972597
sg10
VCHEMBL195465
p696
sg12
I1
sbag2
(g3
g4
NtRp697
(dp698
g7
Vhttp://www.ebi.ac.uk/chemblws/compounds/CHEMBL374799.json
p699
sg9
F-6.0161571596983539
sg10
VCHEMBL374799
p700
sg12
I1
sbag2
(g3
g4
NtRp701
(dp702
g7
Vhttp://www.ebi.ac.uk/chemblws/compounds/CHEMBL225349.json
p703
sg9
F-5.7203117766074119
sg10
VCHEMBL225349
p704
sg12
I1
sbag2
(g3
g4
NtRp705
(dp706
g7
Vhttp://www.ebi.ac.uk/chemblws/compounds/CHEMBL222434.json
p707
sg9
F-2.8903717578961645
sg10
VCHEMBL222434
p708
sg12
I1
sbag2
(g3
g4
NtRp709
(dp710
g7
Vhttp://www.ebi.ac.uk/chemblws/compounds/CHEMBL373743.json
p711
sg9
F-2.8903717578961645
sg10
VCHEMBL373743
p712
sg12
I1
sbag2
(g3
g4
NtRp713
(dp714
g7
Vhttp://www.ebi.ac.uk/chemblws/compounds/CHEMBL451496.json
p715
sg9
F-3.970291913552122
sg10
VCHEMBL451496
p716
sg12
I1
sbag2
(g3
g4
NtRp717
(dp718
g7
Vhttp://www.ebi.ac.uk/chemblws/compounds/CHEMBL186643.json
p719
sg9
F-5.9295891433898946
sg10
VCHEMBL186643
p720
sg12
I1
sbag2
(g3
g4
NtRp721
(dp722
g7
Vhttp://www.ebi.ac.uk/chemblws/compounds/CHEMBL362718.json
p723
sg9
F-0.40546510810816438
sg10
VCHEMBL362718
p724
sg12
I1
sbag2
(g3
g4
NtRp725
(dp726
g7
Vhttp://www.ebi.ac.uk/chemblws/compounds/CHEMBL74758.json
p727
sg9
F-6.7452363494843626
sg10
VCHEMBL74758
p728
sg12
I1
sbag2
(g3
g4
NtRp729
(dp730
g7
Vhttp://www.ebi.ac.uk/chemblws/compounds/CHEMBL418327.json
p731
sg9
F-0.47000362924573563
sg10
VCHEMBL418327
p732
sg12
I1
sbag2
(g3
g4
NtRp733
(dp734
g7
Vhttp://www.ebi.ac.uk/chemblws/compounds/CHEMBL83451.json
p735
sg9
F-6.1944053911046719
sg10
VCHEMBL83451
p736
sg12
I1
sbag2
(g3
g4
NtRp737
(dp738
g7
Vhttp://www.ebi.ac.uk/chemblws/compounds/CHEMBL77609.json
p739
sg9
F-5.1929568508902104
sg10
VCHEMBL77609
p740
sg12
I1
sbag2
(g3
g4
NtRp741
(dp742
g7
Vhttp://www.ebi.ac.uk/chemblws/compounds/CHEMBL187207.json
p743
sg9
F-5.5606816310155276
sg10
VCHEMBL187207
p744
sg12
I1
sbag2
(g3
g4
NtRp745
(dp746
g7
Vhttp://www.ebi.ac.uk/chemblws/compounds/CHEMBL284453.json
p747
sg9
F-3.8918202981106265
sg10
VCHEMBL284453
p748
sg12
I1
sbag2
(g3
g4
NtRp749
(dp750
g7
Vhttp://www.ebi.ac.uk/chemblws/compounds/CHEMBL181248.json
p751
sg9
F0.35667494393873245
sg10
VCHEMBL181248
p752
sg12
I1
sbag2
(g3
g4
NtRp753
(dp754
g7
Vhttp://www.ebi.ac.uk/chemblws/compounds/CHEMBL183371.json
p755
sg9
F0.10536051565782628
sg10
VCHEMBL183371
p756
sg12
I1
sbag2
(g3
g4
NtRp757
(dp758
g7
Vhttp://www.ebi.ac.uk/chemblws/compounds/CHEMBL439806.json
p759
sg9
F-4.0604430105464191
sg10
VCHEMBL439806
p760
sg12
I1
sbag2
(g3
g4
NtRp761
(dp762
g7
Vhttp://www.ebi.ac.uk/chemblws/compounds/CHEMBL180538.json
p763
sg9
F-3.8066624897703196
sg10
VCHEMBL180538
p764
sg12
I1
sbag2
(g3
g4
NtRp765
(dp766
g7
Vhttp://www.ebi.ac.uk/chemblws/compounds/CHEMBL30950.json
p767
sg9
F-2.6390573296152584
sg10
VCHEMBL30950
p768
sg12
I1
sbag2
(g3
g4
NtRp769
(dp770
g7
Vhttp://www.ebi.ac.uk/chemblws/compounds/CHEMBL121879.json
p771
sg9
F-1.2809338454620642
sg10
VCHEMBL121879
p772
sg12
I1
sbag2
(g3
g4
NtRp773
(dp774
g7
Vhttp://www.ebi.ac.uk/chemblws/compounds/CHEMBL427533.json
p775
sg9
F-5.2203558250783244
sg10
VCHEMBL427533
p776
sg12
I1
sbag2
(g3
g4
NtRp777
(dp778
g7
Vhttp://www.ebi.ac.uk/chemblws/compounds/CHEMBL373095.json
p779
sg9
F-2.3025850929940459
sg10
VCHEMBL373095
p780
sg12
I1
sbag2
(g3
g4
NtRp781
(dp782
g7
Vhttp://www.ebi.ac.uk/chemblws/compounds/CHEMBL93207.json
p783
sg9
F-5.0751738152338266
sg10
VCHEMBL93207
p784
sg12
I1
sbag2
(g3
g4
NtRp785
(dp786
g7
Vhttp://www.ebi.ac.uk/chemblws/compounds/CHEMBL178470.json
p787
sg9
F-0.33647223662121289
sg10
VCHEMBL178470
p788
sg12
I1
sbag2
(g3
g4
NtRp789
(dp790
g7
Vhttp://www.ebi.ac.uk/chemblws/compounds/CHEMBL185480.json
p791
sg9
F-0.69314718055994529
sg10
VCHEMBL185480
p792
sg12
I1
sbag2
(g3
g4
NtRp793
(dp794
g7
Vhttp://www.ebi.ac.uk/chemblws/compounds/CHEMBL389683.json
p795
sg9
F-3.2958368660043291
sg10
VCHEMBL389683
p796
sg12
I1
sbag2
(g3
g4
NtRp797
(dp798
g7
Vhttp://www.ebi.ac.uk/chemblws/compounds/CHEMBL449038.json
p799
sg9
F-6.5012896705403893
sg10
VCHEMBL449038
p800
sg12
I1
sbag2
(g3
g4
NtRp801
(dp802
g7
Vhttp://www.ebi.ac.uk/chemblws/compounds/CHEMBL225022.json
p803
sg9
F-4.7184988712950942
sg10
VCHEMBL225022
p804
sg12
I1
sbag2
(g3
g4
NtRp805
(dp806
g7
Vhttp://www.ebi.ac.uk/chemblws/compounds/CHEMBL389393.json
p807
sg9
F-6.0935697700451357
sg10
VCHEMBL389393
p808
sg12
I1
sbag2
(g3
g4
NtRp809
(dp810
g7
Vhttp://www.ebi.ac.uk/chemblws/compounds/CHEMBL218220.json
p811
sg9
F-4.499809670330265
sg10
VCHEMBL218220
p812
sg12
I1
sbag2
(g3
g4
NtRp813
(dp814
g7
Vhttp://www.ebi.ac.uk/chemblws/compounds/CHEMBL360802.json
p815
sg9
F-0.69314718055994529
sg10
VCHEMBL360802
p816
sg12
I1
sbag2
(g3
g4
NtRp817
(dp818
g7
Vhttp://www.ebi.ac.uk/chemblws/compounds/CHEMBL332625.json
p819
sg9
F-1.4816045409242156
sg10
VCHEMBL332625
p820
sg12
I1
sbag2
(g3
g4
NtRp821
(dp822
g7
Vhttp://www.ebi.ac.uk/chemblws/compounds/CHEMBL194936.json
p823
sg9
F-5.5834963087816991
sg10
VCHEMBL194936
p824
sg12
I1
sbag2
(g3
g4
NtRp825
(dp826
g7
Vhttp://www.ebi.ac.uk/chemblws/compounds/CHEMBL192154.json
p827
sg9
F-5.3471075307174685
sg10
VCHEMBL192154
p828
sg12
I1
sbag2
(g3
g4
NtRp829
(dp830
g7
Vhttp://www.ebi.ac.uk/chemblws/compounds/CHEMBL91758.json
p831
sg9
F-0.26236426446749106
sg10
VCHEMBL91758
p832
sg12
I1
sbag2
(g3
g4
NtRp833
(dp834
g7
Vhttp://www.ebi.ac.uk/chemblws/compounds/CHEMBL71584.json
p835
sg9
F-0.47000362924573563
sg10
VCHEMBL71584
p836
sg12
I1
sbag2
(g3
g4
NtRp837
(dp838
g7
Vhttp://www.ebi.ac.uk/chemblws/compounds/CHEMBL433581.json
p839
sg9
F-0.26236426446749106
sg10
VCHEMBL433581
p840
sg12
I1
sbag2
(g3
g4
NtRp841
(dp842
g7
Vhttp://www.ebi.ac.uk/chemblws/compounds/CHEMBL100617.json
p843
sg9
F-3.5251833614431467
sg10
VCHEMBL100617
p844
sg12
I1
sbag2
(g3
g4
NtRp845
(dp846
g7
Vhttp://www.ebi.ac.uk/chemblws/compounds/CHEMBL434346.json
p847
sg9
F-4.2621163380013236
sg10
VCHEMBL434346
p848
sg12
I1
sbag2
(g3
g4
NtRp849
(dp850
g7
Vhttp://www.ebi.ac.uk/chemblws/compounds/CHEMBL33890.json
p851
sg9
F-4.2626798770413155
sg10
VCHEMBL33890
p852
sg12
I1
sbag2
(g3
g4
NtRp853
(dp854
g7
Vhttp://www.ebi.ac.uk/chemblws/compounds/CHEMBL359671.json
p855
sg9
F-0.91629073187415511
sg10
VCHEMBL359671
p856
sg12
I1
sbag2
(g3
g4
NtRp857
(dp858
g7
Vhttp://www.ebi.ac.uk/chemblws/compounds/CHEMBL204664.json
p859
sg9
F-6.7696419768525029
sg10
VCHEMBL204664
p860
sg12
I1
sbag2
(g3
g4
NtRp861
(dp862
g7
Vhttp://www.ebi.ac.uk/chemblws/compounds/CHEMBL425399.json
p863
sg9
F-6.7214257007906433
sg10
VCHEMBL425399
p864
sg12
I1
sbag2
(g3
g4
NtRp865
(dp866
g7
Vhttp://www.ebi.ac.uk/chemblws/compounds/CHEMBL201364.json
p867
sg9
F-6.9077552789821368
sg10
VCHEMBL201364
p868
sg12
I1
sbag2
(g3
g4
NtRp869
(dp870
g7
Vhttp://www.ebi.ac.uk/chemblws/compounds/CHEMBL381298.json
p871
sg9
F-5.2729995585637468
sg10
VCHEMBL381298
p872
sg12
I1
sbag2
(g3
g4
NtRp873
(dp874
g7
Vhttp://www.ebi.ac.uk/chemblws/compounds/CHEMBL204025.json
p875
sg9
F-6.1484682959176471
sg10
VCHEMBL204025
p876
sg12
I1
sbag2
(g3
g4
NtRp877
(dp878
g7
Vhttp://www.ebi.ac.uk/chemblws/compounds/CHEMBL264655.json
p879
sg9
F-3.7376696182833684
sg10
VCHEMBL264655
p880
sg12
I1
sbag2
(g3
g4
NtRp881
(dp882
g7
Vhttp://www.ebi.ac.uk/chemblws/compounds/CHEMBL202500.json
p883
sg9
F-3.2580965380214821
sg10
VCHEMBL202500
p884
sg12
I1
sbag2
(g3
g4
NtRp885
(dp886
g7
Vhttp://www.ebi.ac.uk/chemblws/compounds/CHEMBL202615.json
p887
sg9
F-2.5649493574615367
sg10
VCHEMBL202615
p888
sg12
I1
sbag2
(g3
g4
NtRp889
(dp890
g7
Vhttp://www.ebi.ac.uk/chemblws/compounds/CHEMBL201013.json
p891
sg9
F-5.768320995793772
sg10
VCHEMBL201013
p892
sg12
I1
sbag2
(g3
g4
NtRp893
(dp894
g7
Vhttp://www.ebi.ac.uk/chemblws/compounds/CHEMBL385279.json
p895
sg9
F-5.9480349891806457
sg10
VCHEMBL385279
p896
sg12
I1
sbag2
(g3
g4
NtRp897
(dp898
g7
Vhttp://www.ebi.ac.uk/chemblws/compounds/CHEMBL219387.json
p899
sg9
F-6.0776422433490342
sg10
VCHEMBL219387
p900
sg12
I1
sbag2
(g3
g4
NtRp901
(dp902
g7
Vhttp://www.ebi.ac.uk/chemblws/compounds/CHEMBL90794.json
p903
sg9
F-1.2237754316221157
sg10
VCHEMBL90794
p904
sg12
I1
sbag2
(g3
g4
NtRp905
(dp906
g7
Vhttp://www.ebi.ac.uk/chemblws/compounds/CHEMBL195371.json
p907
sg9
F-2.8903717578961645
sg10
VCHEMBL195371
p908
sg12
I1
sbag2
(g3
g4
NtRp909
(dp910
g7
Vhttp://www.ebi.ac.uk/chemblws/compounds/CHEMBL187915.json
p911
sg9
F-3.8501476017100584
sg10
VCHEMBL187915
p912
sg12
I1
sbag2
(g3
g4
NtRp913
(dp914
g7
Vhttp://www.ebi.ac.uk/chemblws/compounds/CHEMBL364092.json
p915
sg9
F-4.5108595065168497
sg10
VCHEMBL364092
p916
sg12
I1
sbag2
(g3
g4
NtRp917
(dp918
g7
Vhttp://www.ebi.ac.uk/chemblws/compounds/CHEMBL93826.json
p919
sg9
F-3.0007198150650303
sg10
VCHEMBL93826
p920
sg12
I1
sbag2
(g3
g4
NtRp921
(dp922
g7
Vhttp://www.ebi.ac.uk/chemblws/compounds/CHEMBL193726.json
p923
sg9
F-3.0910424533583161
sg10
VCHEMBL193726
p924
sg12
I1
sbag2
(g3
g4
NtRp925
(dp926
g7
Vhttp://www.ebi.ac.uk/chemblws/compounds/CHEMBL420244.json
p927
sg9
F-1.6486586255873816
sg10
VCHEMBL420244
p928
sg12
I1
sbag2
(g3
g4
NtRp929
(dp930
g7
Vhttp://www.ebi.ac.uk/chemblws/compounds/CHEMBL192218.json
p931
sg9
F-4.5849674786705723
sg10
VCHEMBL192218
p932
sg12
I1
sbag2
(g3
g4
NtRp933
(dp934
g7
Vhttp://www.ebi.ac.uk/chemblws/compounds/CHEMBL441499.json
p935
sg9
F-0.3293037471426003
sg10
VCHEMBL441499
p936
sg12
I1
sbag2
(g3
g4
NtRp937
(dp938
g7
Vhttp://www.ebi.ac.uk/chemblws/compounds/CHEMBL426461.json
p939
sg9
F-4.6634390941120669
sg10
VCHEMBL426461
p940
sg12
I1
sbag2
(g3
g4
NtRp941
(dp942
g7
Vhttp://www.ebi.ac.uk/chemblws/compounds/CHEMBL183084.json
p943
sg9
F-0.91629073187415511
sg10
VCHEMBL183084
p944
sg12
I1
sbag2
(g3
g4
NtRp945
(dp946
g7
Vhttp://www.ebi.ac.uk/chemblws/compounds/CHEMBL187000.json
p947
sg9
F-6.2897155709089976
sg10
VCHEMBL187000
p948
sg12
I1
sbag2
(g3
g4
NtRp949
(dp950
g7
Vhttp://www.ebi.ac.uk/chemblws/compounds/CHEMBL206584.json
p951
sg9
F-5.4680601411351315
sg10
VCHEMBL206584
p952
sg12
I1
sbag2
(g3
g4
NtRp953
(dp954
g7
Vhttp://www.ebi.ac.uk/chemblws/compounds/CHEMBL203565.json
p955
sg9
F-4.3040650932041702
sg10
VCHEMBL203565
p956
sg12
I1
sbag2
(g3
g4
NtRp957
(dp958
g7
Vhttp://www.ebi.ac.uk/chemblws/compounds/CHEMBL382598.json
p959
sg9
F-3.9889840465642745
sg10
VCHEMBL382598
p960
sg12
I1
sbag2
(g3
g4
NtRp961
(dp962
g7
Vhttp://www.ebi.ac.uk/chemblws/compounds/CHEMBL385358.json
p963
sg9
F-4.4067192472642533
sg10
VCHEMBL385358
p964
sg12
I1
sbag2
(g3
g4
NtRp965
(dp966
g7
Vhttp://www.ebi.ac.uk/chemblws/compounds/CHEMBL383533.json
p967
sg9
F-4.3694478524670215
sg10
VCHEMBL383533
p968
sg12
I1
sbag2
(g3
g4
NtRp969
(dp970
g7
Vhttp://www.ebi.ac.uk/chemblws/compounds/CHEMBL219577.json
p971
sg9
F-4.3820266346738812
sg10
VCHEMBL219577
p972
sg12
I1
sbag2
(g3
g4
NtRp973
(dp974
g7
Vhttp://www.ebi.ac.uk/chemblws/compounds/CHEMBL391910.json
p975
sg9
F-0
sg10
VCHEMBL391910
p976
sg12
I1
sbag2
(g3
g4
NtRp977
(dp978
g7
Vhttp://www.ebi.ac.uk/chemblws/compounds/CHEMBL241303.json
p979
sg9
F-2.0794415416798357
sg10
VCHEMBL241303
p980
sg12
I1
sbag2
(g3
g4
NtRp981
(dp982
g7
Vhttp://www.ebi.ac.uk/chemblws/compounds/CHEMBL240227.json
p983
sg9
F-2.9957322735539909
sg10
VCHEMBL240227
p984
sg12
I1
sbag2
(g3
g4
NtRp985
(dp986
g7
Vhttp://www.ebi.ac.uk/chemblws/compounds/CHEMBL362428.json
p987
sg9
F0.41551544396166579
sg10
VCHEMBL362428
p988
sg12
I1
sbag2
(g3
g4
NtRp989
(dp990
g7
Vhttp://www.ebi.ac.uk/chemblws/compounds/CHEMBL367350.json
p991
sg9
F0.69314718055994529
sg10
VCHEMBL367350
p992
sg12
I1
sbag2
(g3
g4
NtRp993
(dp994
g7
Vhttp://www.ebi.ac.uk/chemblws/compounds/CHEMBL434525.json
p995
sg9
F0.35667494393873245
sg10
VCHEMBL434525
p996
sg12
I1
sbag2
(g3
g4
NtRp997
(dp998
g7
Vhttp://www.ebi.ac.uk/chemblws/compounds/CHEMBL365999.json
p999
sg9
F-4.6728288344619058
sg10
VCHEMBL365999
p1000
sg12
I1
sbag2
(g3
g4
NtRp1001
(dp1002
g7
Vhttp://www.ebi.ac.uk/chemblws/compounds/CHEMBL323119.json
p1003
sg9
F-4.5429755823949733
sg10
VCHEMBL323119
p1004
sg12
I1
sbag2
(g3
g4
NtRp1005
(dp1006
g7
Vhttp://www.ebi.ac.uk/chemblws/compounds/CHEMBL198411.json
p1007
sg9
F-5.3565862746720123
sg10
VCHEMBL198411
p1008
sg12
I1
sbag2
(g3
g4
NtRp1009
(dp1010
g7
Vhttp://www.ebi.ac.uk/chemblws/compounds/CHEMBL186945.json
p1011
sg9
F-6.0661080901037474
sg10
VCHEMBL186945
p1012
sg12
I1
sbag2
(g3
g4
NtRp1013
(dp1014
g7
Vhttp://www.ebi.ac.uk/chemblws/compounds/CHEMBL197667.json
p1015
sg9
F-6.1202974189509503
sg10
VCHEMBL197667
p1016
sg12
I1
sbag2
(g3
g4
NtRp1017
(dp1018
g7
Vhttp://www.ebi.ac.uk/chemblws/compounds/CHEMBL206406.json
p1019
sg9
F-6.3919171133926023
sg10
VCHEMBL206406
p1020
sg12
I1
sbag2
(g3
g4
NtRp1021
(dp1022
g7
Vhttp://www.ebi.ac.uk/chemblws/compounds/CHEMBL381697.json
p1023
sg9
F-5.4161004022044201
sg10
VCHEMBL381697
p1024
sg12
I1
sbag2
(g3
g4
NtRp1025
(dp1026
g7
Vhttp://www.ebi.ac.uk/chemblws/compounds/CHEMBL204922.json
p1027
sg9
F-5.0689042022202315
sg10
VCHEMBL204922
p1028
sg12
I1
sbag2
(g3
g4
NtRp1029
(dp1030
g7
Vhttp://www.ebi.ac.uk/chemblws/compounds/CHEMBL206600.json
p1031
sg9
F-6.4831073514571989
sg10
VCHEMBL206600
p1032
sg12
I1
sbag2
(g3
g4
NtRp1033
(dp1034
g7
Vhttp://www.ebi.ac.uk/chemblws/compounds/CHEMBL206227.json
p1035
sg9
F-6.1903154058531475
sg10
VCHEMBL206227
p1036
sg12
I1
sbag2
(g3
g4
NtRp1037
(dp1038
g7
Vhttp://www.ebi.ac.uk/chemblws/compounds/CHEMBL211816.json
p1039
sg9
F-4.5325994931532563
sg10
VCHEMBL211816
p1040
sg12
I1
sbag2
(g3
g4
NtRp1041
(dp1042
g7
Vhttp://www.ebi.ac.uk/chemblws/compounds/CHEMBL208929.json
p1043
sg9
F-5.8861040314501558
sg10
VCHEMBL208929
p1044
sg12
I1
sbag2
(g3
g4
NtRp1045
(dp1046
g7
Vhttp://www.ebi.ac.uk/chemblws/compounds/CHEMBL209623.json
p1047
sg9
F-6.1527326947041043
sg10
VCHEMBL209623
p1048
sg12
I1
sbag2
(g3
g4
NtRp1049
(dp1050
g7
Vhttp://www.ebi.ac.uk/chemblws/compounds/CHEMBL211887.json
p1051
sg9
F-4.4067192472642533
sg10
VCHEMBL211887
p1052
sg12
I1
sbag2
(g3
g4
NtRp1053
(dp1054
g7
Vhttp://www.ebi.ac.uk/chemblws/compounds/CHEMBL181862.json
p1055
sg9
F0.69314718055994529
sg10
VCHEMBL181862
p1056
sg12
I1
sbag2
(g3
g4
NtRp1057
(dp1058
g7
Vhttp://www.ebi.ac.uk/chemblws/compounds/CHEMBL184202.json
p1059
sg9
F0.35667494393873245
sg10
VCHEMBL184202
p1060
sg12
I1
sbag2
(g3
g4
NtRp1061
(dp1062
g7
Vhttp://www.ebi.ac.uk/chemblws/compounds/CHEMBL1096975.json
p1063
sg9
F-6.1985600140005843
sg10
VCHEMBL1096975
p1064
sg12
I1
sbag2
(g3
g4
NtRp1065
(dp1066
g7
Vhttp://www.ebi.ac.uk/chemblws/compounds/CHEMBL205934.json
p1067
sg9
F-6.6656837177824082
sg10
VCHEMBL205934
p1068
sg12
I1
sbag2
(g3
g4
NtRp1069
(dp1070
g7
Vhttp://www.ebi.ac.uk/chemblws/compounds/CHEMBL381337.json
p1071
sg9
F-5.8141305318250662
sg10
VCHEMBL381337
p1072
sg12
I1
sbag2
(g3
g4
NtRp1073
(dp1074
g7
Vhttp://www.ebi.ac.uk/chemblws/compounds/CHEMBL206814.json
p1075
sg9
F-5.181783550292085
sg10
VCHEMBL206814
p1076
sg12
I1
sbag2
(g3
g4
NtRp1077
(dp1078
g7
Vhttp://www.ebi.ac.uk/chemblws/compounds/CHEMBL191238.json
p1079
sg9
F-5.7004435733906869
sg10
VCHEMBL191238
p1080
sg12
I1
sbag2
(g3
g4
NtRp1081
(dp1082
g7
Vhttp://www.ebi.ac.uk/chemblws/compounds/CHEMBL1358.json
p1083
sg9
F-1.3862943611198906
sg10
VCHEMBL1358
p1084
sg12
I1
sbag2
(g3
g4
NtRp1085
(dp1086
g7
Vhttp://www.ebi.ac.uk/chemblws/compounds/CHEMBL77620.json
p1087
sg9
F-5.768320995793772
sg10
VCHEMBL77620
p1088
sg12
I1
sbag2
(g3
g4
NtRp1089
(dp1090
g7
Vhttp://www.ebi.ac.uk/chemblws/compounds/CHEMBL331996.json
p1091
sg9
F-3.044522437723423
sg10
VCHEMBL331996
p1092
sg12
I1
sbag2
(g3
g4
NtRp1093
(dp1094
g7
Vhttp://www.ebi.ac.uk/chemblws/compounds/CHEMBL363634.json
p1095
sg9
F-3.2580965380214821
sg10
VCHEMBL363634
p1096
sg12
I1
sbag2
(g3
g4
NtRp1097
(dp1098
g7
Vhttp://www.ebi.ac.uk/chemblws/compounds/CHEMBL101997.json
p1099
sg9
F-3.4330189939851112
sg10
VCHEMBL101997
p1100
sg12
I1
sbag2
(g3
g4
NtRp1101
(dp1102
g7
Vhttp://www.ebi.ac.uk/chemblws/compounds/CHEMBL185890.json
p1103
sg9
F-5.575949103146316
sg10
VCHEMBL185890
p1104
sg12
I1
sbag2
(g3
g4
NtRp1105
(dp1106
g7
Vhttp://www.ebi.ac.uk/chemblws/compounds/CHEMBL185083.json
p1107
sg9
F0.916290731874155
sg10
VCHEMBL185083
p1108
sg12
I1
sbag2
(g3
g4
NtRp1109
(dp1110
g7
Vhttp://www.ebi.ac.uk/chemblws/compounds/CHEMBL24950.json
p1111
sg9
F-3.5553480614894135
sg10
VCHEMBL24950
p1112
sg12
I1
sbag2
(g3
g4
NtRp1113
(dp1114
g7
Vhttp://www.ebi.ac.uk/chemblws/compounds/CHEMBL373987.json
p1115
sg9
F-6.0258659738253142
sg10
VCHEMBL373987
p1116
sg12
I1
sbag2
(g3
g4
NtRp1117
(dp1118
g7
Vhttp://www.ebi.ac.uk/chemblws/compounds/CHEMBL213950.json
p1119
sg9
F-6.4052284580308418
sg10
VCHEMBL213950
p1120
sg12
I1
sbag2
(g3
g4
NtRp1121
(dp1122
g7
Vhttp://www.ebi.ac.uk/chemblws/compounds/CHEMBL389907.json
p1123
sg9
F-3.2958368660043291
sg10
VCHEMBL389907
p1124
sg12
I1
sbag2
(g3
g4
NtRp1125
(dp1126
g7
Vhttp://www.ebi.ac.uk/chemblws/compounds/CHEMBL316292.json
p1127
sg9
F-6.3315018498936908
sg10
VCHEMBL316292
p1128
sg12
I1
sbag2
(g3
g4
NtRp1129
(dp1130
g7
Vhttp://www.ebi.ac.uk/chemblws/compounds/CHEMBL363633.json
p1131
sg9
F-5.8377304471659395
sg10
VCHEMBL363633
p1132
sg12
I1
sbag2
(g3
g4
NtRp1133
(dp1134
g7
Vhttp://www.ebi.ac.uk/chemblws/compounds/CHEMBL182850.json
p1135
sg9
F-2.4849066497880004
sg10
VCHEMBL182850
p1136
sg12
I1
sbag2
(g3
g4
NtRp1137
(dp1138
g7
Vhttp://www.ebi.ac.uk/chemblws/compounds/CHEMBL361751.json
p1139
sg9
F-0.53062825106217038
sg10
VCHEMBL361751
p1140
sg12
I1
sbag2
(g3
g4
NtRp1141
(dp1142
g7
Vhttp://www.ebi.ac.uk/chemblws/compounds/CHEMBL188189.json
p1143
sg9
F-5.0814043649844631
sg10
VCHEMBL188189
p1144
sg12
I1
sbag2
(g3
g4
NtRp1145
(dp1146
g7
Vhttp://www.ebi.ac.uk/chemblws/compounds/CHEMBL412907.json
p1147
sg9
F-3.3945083935113587
sg10
VCHEMBL412907
p1148
sg12
I1
sbag2
(g3
g4
NtRp1149
(dp1150
g7
Vhttp://www.ebi.ac.uk/chemblws/compounds/CHEMBL316003.json
p1151
sg9
F-4.1743872698956368
sg10
VCHEMBL316003
p1152
sg12
I1
sbag2
(g3
g4
NtRp1153
(dp1154
g7
Vhttp://www.ebi.ac.uk/chemblws/compounds/CHEMBL33808.json
p1155
sg9
F-4.219507705176107
sg10
VCHEMBL33808
p1156
sg12
I1
sbag2
(g3
g4
NtRp1157
(dp1158
g7
Vhttp://www.ebi.ac.uk/chemblws/compounds/CHEMBL360410.json
p1159
sg9
F-3.1780538303479458
sg10
VCHEMBL360410
p1160
sg12
I1
sbag2
(g3
g4
NtRp1161
(dp1162
g7
Vhttp://www.ebi.ac.uk/chemblws/compounds/CHEMBL196530.json
p1163
sg9
F-6.4488893941468577
sg10
VCHEMBL196530
p1164
sg12
I1
sbag2
(g3
g4
NtRp1165
(dp1166
g7
Vhttp://www.ebi.ac.uk/chemblws/compounds/CHEMBL203810.json
p1167
sg9
F-5.7589017738772803
sg10
VCHEMBL203810
p1168
sg12
I1
sbag2
(g3
g4
NtRp1169
(dp1170
g7
Vhttp://www.ebi.ac.uk/chemblws/compounds/CHEMBL203061.json
p1171
sg9
F-6.0161571596983539
sg10
VCHEMBL203061
p1172
sg12
I1
sbag2
(g3
g4
NtRp1173
(dp1174
g7
Vhttp://www.ebi.ac.uk/chemblws/compounds/CHEMBL440283.json
p1175
sg9
F-5.1929568508902104
sg10
VCHEMBL440283
p1176
sg12
I1
sbag2
(g3
g4
NtRp1177
(dp1178
g7
Vhttp://www.ebi.ac.uk/chemblws/compounds/CHEMBL359633.json
p1179
sg9
F0.69314718055994529
sg10
VCHEMBL359633
p1180
sg12
I1
sbag2
(g3
g4
NtRp1181
(dp1182
g7
Vhttp://www.ebi.ac.uk/chemblws/compounds/CHEMBL83060.json
p1183
sg9
F-6.2952660014396464
sg10
VCHEMBL83060
p1184
sg12
I1
sbag2
(g3
g4
NtRp1185
(dp1186
g7
Vhttp://www.ebi.ac.uk/chemblws/compounds/CHEMBL1627356.json
p1187
sg9
F-4.5432947822700038
sg10
VCHEMBL1627356
p1188
sg12
I1
sbag2
(g3
g4
NtRp1189
(dp1190
g7
Vhttp://www.ebi.ac.uk/chemblws/compounds/CHEMBL1087288.json
p1191
sg9
F-4.4426512564903167
sg10
VCHEMBL1087288
p1192
sg12
I1
sbag2
(g3
g4
NtRp1193
(dp1194
g7
Vhttp://www.ebi.ac.uk/chemblws/compounds/CHEMBL1087545.json
p1195
sg9
F-0.78845736036427028
sg10
VCHEMBL1087545
p1196
sg12
I1
sbag2
(g3
g4
NtRp1197
(dp1198
g7
Vhttp://www.ebi.ac.uk/chemblws/compounds/CHEMBL1087298.json
p1199
sg9
F-1.7578579175523736
sg10
VCHEMBL1087298
p1200
sg12
I1
sbag2
(g3
g4
NtRp1201
(dp1202
g7
Vhttp://www.ebi.ac.uk/chemblws/compounds/CHEMBL1086652.json
p1203
sg9
F-1.8405496333974869
sg10
VCHEMBL1086652
p1204
sg12
I1
sbag2
(g3
g4
NtRp1205
(dp1206
g7
Vhttp://www.ebi.ac.uk/chemblws/compounds/CHEMBL184003.json
p1207
sg9
F-6.2106000770246528
sg10
VCHEMBL184003
p1208
sg12
I1
sbag2
(g3
g4
NtRp1209
(dp1210
g7
Vhttp://www.ebi.ac.uk/chemblws/compounds/CHEMBL182751.json
p1211
sg9
F-6.6883547139467616
sg10
VCHEMBL182751
p1212
sg12
I1
sbag2
(g3
g4
NtRp1213
(dp1214
g7
Vhttp://www.ebi.ac.uk/chemblws/compounds/CHEMBL33230.json
p1215
sg9
F-6.0234475929610332
sg10
VCHEMBL33230
p1216
sg12
I1
sbag2
(g3
g4
NtRp1217
(dp1218
g7
Vhttp://www.ebi.ac.uk/chemblws/compounds/CHEMBL491705.json
p1219
sg9
F-3.7612001156935624
sg10
VCHEMBL491705
p1220
sg12
I1
sbag2
(g3
g4
NtRp1221
(dp1222
g7
Vhttp://www.ebi.ac.uk/chemblws/compounds/CHEMBL1088343.json
p1223
sg9
F-1.7578579175523736
sg10
VCHEMBL1088343
p1224
sg12
I1
sbag2
(g3
g4
NtRp1225
(dp1226
g7
Vhttp://www.ebi.ac.uk/chemblws/compounds/CHEMBL1086388.json
p1227
sg9
F-6.9077552789821368
sg10
VCHEMBL1086388
p1228
sg12
I1
sbag2
(g3
g4
NtRp1229
(dp1230
g7
Vhttp://www.ebi.ac.uk/chemblws/compounds/CHEMBL1082529.json
p1231
sg9
F-5.1929568508902104
sg10
VCHEMBL1082529
p1232
sg12
I1
sbag2
(g3
g4
NtRp1233
(dp1234
g7
Vhttp://www.ebi.ac.uk/chemblws/compounds/CHEMBL192876.json
p1235
sg9
F-3.7612001156935624
sg10
VCHEMBL192876
p1236
sg12
I1
sbag2
(g3
g4
NtRp1237
(dp1238
g7
Vhttp://www.ebi.ac.uk/chemblws/compounds/CHEMBL192055.json
p1239
sg9
F-5.0875963352323836
sg10
VCHEMBL192055
p1240
sg12
I1
sbag2
(g3
g4
NtRp1241
(dp1242
g7
Vhttp://www.ebi.ac.uk/chemblws/compounds/CHEMBL1084127.json
p1243
sg9
F-2.5649493574615367
sg10
VCHEMBL1084127
p1244
sg12
I1
sbag2
(g3
g4
NtRp1245
(dp1246
g7
Vhttp://www.ebi.ac.uk/chemblws/compounds/CHEMBL691.json
p1247
sg9
F0.80296204656715187
sg10
VCHEMBL691
p1248
sg12
I1
sbag2
(g3
g4
NtRp1249
(dp1250
g7
Vhttp://www.ebi.ac.uk/chemblws/compounds/CHEMBL340111.json
p1251
sg9
F-5.0434251169192468
sg10
VCHEMBL340111
p1252
sg12
I1
sbag2
(g3
g4
NtRp1253
(dp1254
g7
Vhttp://www.ebi.ac.uk/chemblws/compounds/CHEMBL92635.json
p1255
sg9
F-1.3862943611198906
sg10
VCHEMBL92635
p1256
sg12
I1
sbag2
(g3
g4
NtRp1257
(dp1258
g7
Vhttp://www.ebi.ac.uk/chemblws/compounds/CHEMBL181944.json
p1259
sg9
F-0.91629073187415511
sg10
VCHEMBL181944
p1260
sg12
I1
sbag2
(g3
g4
NtRp1261
(dp1262
g7
Vhttp://www.ebi.ac.uk/chemblws/compounds/CHEMBL85650.json
p1263
sg9
F-1.0986122886681098
sg10
VCHEMBL85650
p1264
sg12
I1
sbag2
(g3
g4
NtRp1265
(dp1266
g7
Vhttp://www.ebi.ac.uk/chemblws/compounds/CHEMBL183388.json
p1267
sg9
F0.10536051565782628
sg10
VCHEMBL183388
p1268
sg12
I1
sbag2
(g3
g4
NtRp1269
(dp1270
g7
Vhttp://www.ebi.ac.uk/chemblws/compounds/CHEMBL211614.json
p1271
sg9
F-4.8598124043616719
sg10
VCHEMBL211614
p1272
sg12
I1
sbag2
(g3
g4
NtRp1273
(dp1274
g7
Vhttp://www.ebi.ac.uk/chemblws/compounds/CHEMBL214693.json
p1275
sg9
F-4.9487598903781684
sg10
VCHEMBL214693
p1276
sg12
I1
sbag2
(g3
g4
NtRp1277
(dp1278
g7
Vhttp://www.ebi.ac.uk/chemblws/compounds/CHEMBL44.json
p1279
sg9
F-4.9052747784384296
sg10
VCHEMBL44
p1280
sg12
I1
sbag2
(g3
g4
NtRp1281
(dp1282
g7
Vhttp://www.ebi.ac.uk/chemblws/compounds/CHEMBL196283.json
p1283
sg9
F-3.9396381724611196
sg10
VCHEMBL196283
p1284
sg12
I1
sbag2
(g3
g4
NtRp1285
(dp1286
g7
Vhttp://www.ebi.ac.uk/chemblws/compounds/CHEMBL195154.json
p1287
sg9
F-6.3062752869480159
sg10
VCHEMBL195154
p1288
sg12
I1
sbag2
(g3
g4
NtRp1289
(dp1290
g7
Vhttp://www.ebi.ac.uk/chemblws/compounds/CHEMBL363498.json
p1291
sg9
F-3.8286413964890951
sg10
VCHEMBL363498
p1292
sg12
I1
sbag2
(g3
g4
NtRp1293
(dp1294
g7
Vhttp://www.ebi.ac.uk/chemblws/compounds/CHEMBL183368.json
p1295
sg9
F-5.0937502008067623
sg10
VCHEMBL183368
p1296
sg12
I1
sbag2
(g3
g4
NtRp1297
(dp1298
g7
Vhttp://www.ebi.ac.uk/chemblws/compounds/CHEMBL215409.json
p1299
sg9
F-4.0604430105464191
sg10
VCHEMBL215409
p1300
sg12
I1
sbag2
(g3
g4
NtRp1301
(dp1302
g7
Vhttp://www.ebi.ac.uk/chemblws/compounds/CHEMBL384268.json
p1303
sg9
F-3.8958936234982624
sg10
VCHEMBL384268
p1304
sg12
I1
sbag2
(g3
g4
NtRp1305
(dp1306
g7
Vhttp://www.ebi.ac.uk/chemblws/compounds/CHEMBL313849.json
p1307
sg9
F-5.1059454739005803
sg10
VCHEMBL313849
p1308
sg12
I1
sbag2
(g3
g4
NtRp1309
(dp1310
g7
Vhttp://www.ebi.ac.uk/chemblws/compounds/CHEMBL203348.json
p1311
sg9
F-6.3919171133926023
sg10
VCHEMBL203348
p1312
sg12
I1
sbag2
(g3
g4
NtRp1313
(dp1314
g7
Vhttp://www.ebi.ac.uk/chemblws/compounds/CHEMBL371072.json
p1315
sg9
F-2.8903717578961645
sg10
VCHEMBL371072
p1316
sg12
I1
sbag2
(g3
g4
NtRp1317
(dp1318
g7
Vhttp://www.ebi.ac.uk/chemblws/compounds/CHEMBL180873.json
p1319
sg9
F1.3093333199837622
sg10
VCHEMBL180873
p1320
sg12
I1
sbag2
(g3
g4
NtRp1321
(dp1322
g7
Vhttp://www.ebi.ac.uk/chemblws/compounds/CHEMBL191711.json
p1323
sg9
F-4.8040210447332568
sg10
VCHEMBL191711
p1324
sg12
I1
sbag2
(g3
g4
NtRp1325
(dp1326
g7
Vhttp://www.ebi.ac.uk/chemblws/compounds/CHEMBL225081.json
p1327
sg9
F-4.5643481914678361
sg10
VCHEMBL225081
p1328
sg12
I1
sbag2
(g3
g4
NtRp1329
(dp1330
g7
Vhttp://www.ebi.ac.uk/chemblws/compounds/CHEMBL231812.json
p1331
sg9
F-5.0434251169192468
sg10
VCHEMBL231812
p1332
sg12
I1
sbag2
(g3
g4
NtRp1333
(dp1334
g7
Vhttp://www.ebi.ac.uk/chemblws/compounds/CHEMBL182887.json
p1335
sg9
F-0
sg10
VCHEMBL182887
p1336
sg12
I1
sbag2
(g3
g4
NtRp1337
(dp1338
g7
Vhttp://www.ebi.ac.uk/chemblws/compounds/CHEMBL281499.json
p1339
sg9
F-1.4586150226995167
sg10
VCHEMBL281499
p1340
sg12
I1
sbag2
(g3
g4
NtRp1341
(dp1342
g7
Vhttp://www.ebi.ac.uk/chemblws/compounds/CHEMBL386948.json
p1343
sg9
F-1.2809338454620642
sg10
VCHEMBL386948
p1344
sg12
I1
sbag2
(g3
g4
NtRp1345
(dp1346
g7
Vhttp://www.ebi.ac.uk/chemblws/compounds/CHEMBL362966.json
p1347
sg9
F-4.8751973232011512
sg10
VCHEMBL362966
p1348
sg12
I1
sbag2
(g3
g4
NtRp1349
(dp1350
g7
Vhttp://www.ebi.ac.uk/chemblws/compounds/CHEMBL380359.json
p1351
sg9
F-4.7957905455967413
sg10
VCHEMBL380359
p1352
sg12
I1
sbag2
(g3
g4
NtRp1353
(dp1354
g7
Vhttp://www.ebi.ac.uk/chemblws/compounds/CHEMBL213337.json
p1355
sg9
F-4.9836066217083363
sg10
VCHEMBL213337
p1356
sg12
I1
sbag2
(g3
g4
NtRp1357
(dp1358
g7
Vhttp://www.ebi.ac.uk/chemblws/compounds/CHEMBL385693.json
p1359
sg9
F-6.6758232216348476
sg10
VCHEMBL385693
p1360
sg12
I1
sbag2
(g3
g4
NtRp1361
(dp1362
g7
Vhttp://www.ebi.ac.uk/chemblws/compounds/CHEMBL192765.json
p1363
sg9
F-1.1314021114911006
sg10
VCHEMBL192765
p1364
sg12
I1
sbag2
(g3
g4
NtRp1365
(dp1366
g7
Vhttp://www.ebi.ac.uk/chemblws/compounds/CHEMBL193727.json
p1367
sg9
F-4.5217885770490405
sg10
VCHEMBL193727
p1368
sg12
I1
sbag2
(g3
g4
NtRp1369
(dp1370
g7
Vhttp://www.ebi.ac.uk/chemblws/compounds/CHEMBL183367.json
p1371
sg9
F-5.0304379213924353
sg10
VCHEMBL183367
p1372
sg12
I1
sbag2
(g3
g4
NtRp1373
(dp1374
g7
Vhttp://www.ebi.ac.uk/chemblws/compounds/CHEMBL1395826.json
p1375
sg9
F-4.3820266346738812
sg10
VCHEMBL1395826
p1376
sg12
I1
sbag2
(g3
g4
NtRp1377
(dp1378
g7
Vhttp://www.ebi.ac.uk/chemblws/compounds/CHEMBL1434189.json
p1379
sg9
F-4.499809670330265
sg10
VCHEMBL1434189
p1380
sg12
I1
sbag2
(g3
g4
NtRp1381
(dp1382
g7
Vhttp://www.ebi.ac.uk/chemblws/compounds/CHEMBL371126.json
p1383
sg9
F-6.0063531596017325
sg10
VCHEMBL371126
p1384
sg12
I1
sbag2
(g3
g4
NtRp1385
(dp1386
g7
Vhttp://www.ebi.ac.uk/chemblws/compounds/CHEMBL216024.json
p1387
sg9
F-3.0910424533583161
sg10
VCHEMBL216024
p1388
sg12
I1
sbag2
(g3
g4
NtRp1389
(dp1390
g7
Vhttp://www.ebi.ac.uk/chemblws/compounds/CHEMBL472468.json
p1391
sg9
F-1.7173950539391927
sg10
VCHEMBL472468
p1392
sg12
I1
sbag2
(g3
g4
NtRp1393
(dp1394
g7
Vhttp://www.ebi.ac.uk/chemblws/compounds/CHEMBL420623.json
p1395
sg9
F-4.1108738641733114
sg10
VCHEMBL420623
p1396
sg12
I1
sbag2
(g3
g4
NtRp1397
(dp1398
g7
Vhttp://www.ebi.ac.uk/chemblws/compounds/CHEMBL209803.json
p1399
sg9
F-5.575949103146316
sg10
VCHEMBL209803
p1400
sg12
I1
sbag2
(g3
g4
NtRp1401
(dp1402
g7
Vhttp://www.ebi.ac.uk/chemblws/compounds/CHEMBL209402.json
p1403
sg9
F-3.4011973816621555
sg10
VCHEMBL209402
p1404
sg12
I1
sbag2
(g3
g4
NtRp1405
(dp1406
g7
Vhttp://www.ebi.ac.uk/chemblws/compounds/CHEMBL204970.json
p1407
sg9
F-5.2983173665480363
sg10
VCHEMBL204970
p1408
sg12
I1
sbag2
(g3
g4
NtRp1409
(dp1410
g7
Vhttp://www.ebi.ac.uk/chemblws/compounds/CHEMBL203472.json
p1411
sg9
F-0
sg10
VCHEMBL203472
p1412
sg12
I1
sbag2
(g3
g4
NtRp1413
(dp1414
g7
Vhttp://www.ebi.ac.uk/chemblws/compounds/CHEMBL425092.json
p1415
sg9
F-5.0434251169192468
sg10
VCHEMBL425092
p1416
sg12
I1
sbag2
(g3
g4
NtRp1417
(dp1418
g7
Vhttp://www.ebi.ac.uk/chemblws/compounds/CHEMBL380469.json
p1419
sg9
F-3.713572066704308
sg10
VCHEMBL380469
p1420
sg12
I1
sbag2
(g3
g4
NtRp1421
(dp1422
g7
Vhttp://www.ebi.ac.uk/chemblws/compounds/CHEMBL208978.json
p1423
sg9
F-4.8520302639196169
sg10
VCHEMBL208978
p1424
sg12
I1
sbag2
(g3
g4
NtRp1425
(dp1426
g7
Vhttp://www.ebi.ac.uk/chemblws/compounds/CHEMBL377644.json
p1427
sg9
F-5.1704839950381514
sg10
VCHEMBL377644
p1428
sg12
I1
sbag2
(g3
g4
NtRp1429
(dp1430
g7
Vhttp://www.ebi.ac.uk/chemblws/compounds/CHEMBL232023.json
p1431
sg9
F-5.6970934865054046
sg10
VCHEMBL232023
p1432
sg12
I1
sbag2
(g3
g4
NtRp1433
(dp1434
g7
Vhttp://www.ebi.ac.uk/chemblws/compounds/CHEMBL191836.json
p1435
sg9
F-1.0986122886681098
sg10
VCHEMBL191836
p1436
sg12
I1
sbag2
(g3
g4
NtRp1437
(dp1438
g7
Vhttp://www.ebi.ac.uk/chemblws/compounds/CHEMBL189356.json
p1439
sg9
F-4.5849674786705723
sg10
VCHEMBL189356
p1440
sg12
I1
sbag2
(g3
g4
NtRp1441
(dp1442
g7
Vhttp://www.ebi.ac.uk/chemblws/compounds/CHEMBL93546.json
p1443
sg9
F-4.5432947822700038
sg10
VCHEMBL93546
p1444
sg12
I1
sbag2
(g3
g4
NtRp1445
(dp1446
g7
Vhttp://www.ebi.ac.uk/chemblws/compounds/CHEMBL520107.json
p1447
sg9
F-4.3820266346738812
sg10
VCHEMBL520107
p1448
sg12
I1
sbag2
(g3
g4
NtRp1449
(dp1450
g7
Vhttp://www.ebi.ac.uk/chemblws/compounds/CHEMBL1441930.json
p1451
sg9
F-5.5412635451584258
sg10
VCHEMBL1441930
p1452
sg12
I1
sbag2
(g3
g4
NtRp1453
(dp1454
g7
Vhttp://www.ebi.ac.uk/chemblws/compounds/CHEMBL85881.json
p1455
sg9
F-1.3609765531356006
sg10
VCHEMBL85881
p1456
sg12
I1
sbag2
(g3
g4
NtRp1457
(dp1458
g7
Vhttp://www.ebi.ac.uk/chemblws/compounds/CHEMBL347560.json
p1459
sg9
F-3.4011973816621555
sg10
VCHEMBL347560
p1460
sg12
I1
sbag2
(g3
g4
NtRp1461
(dp1462
g7
Vhttp://www.ebi.ac.uk/chemblws/compounds/CHEMBL25580.json
p1463
sg9
F-5.9026333334013659
sg10
VCHEMBL25580
p1464
sg12
I1
sbag2
(g3
g4
NtRp1465
(dp1466
g7
Vhttp://www.ebi.ac.uk/chemblws/compounds/CHEMBL221515.json
p1467
sg9
F-3.6635616461296463
sg10
VCHEMBL221515
p1468
sg12
I1
sbag2
(g3
g4
NtRp1469
(dp1470
g7
Vhttp://www.ebi.ac.uk/chemblws/compounds/CHEMBL389394.json
p1471
sg9
F-2.7080502011022101
sg10
VCHEMBL389394
p1472
sg12
I1
sbag2
(g3
g4
NtRp1473
(dp1474
g7
Vhttp://www.ebi.ac.uk/chemblws/compounds/CHEMBL374277.json
p1475
sg9
F-3.4339872044851463
sg10
VCHEMBL374277
p1476
sg12
I1
sbag2
(g3
g4
NtRp1477
(dp1478
g7
Vhttp://www.ebi.ac.uk/chemblws/compounds/CHEMBL226379.json
p1479
sg9
F-3.572345637857985
sg10
VCHEMBL226379
p1480
sg12
I1
sbag2
(g3
g4
NtRp1481
(dp1482
g7
Vhttp://www.ebi.ac.uk/chemblws/compounds/CHEMBL1318094.json
p1483
sg9
F-4.7874917427820458
sg10
VCHEMBL1318094
p1484
sg12
I1
sbag2
(g3
g4
NtRp1485
(dp1486
g7
Vhttp://www.ebi.ac.uk/chemblws/compounds/CHEMBL368449.json
p1487
sg9
F-0.26236426446749106
sg10
VCHEMBL368449
p1488
sg12
I1
sbag2
(g3
g4
NtRp1489
(dp1490
g7
Vhttp://www.ebi.ac.uk/chemblws/compounds/CHEMBL92900.json
p1491
sg9
F-2.2192034840549946
sg10
VCHEMBL92900
p1492
sg12
I1
sbag2
(g3
g4
NtRp1493
(dp1494
g7
Vhttp://www.ebi.ac.uk/chemblws/compounds/CHEMBL191759.json
p1495
sg9
F-4.290459441148391
sg10
VCHEMBL191759
p1496
sg12
I1
sbag2
(g3
g4
NtRp1497
(dp1498
g7
Vhttp://www.ebi.ac.uk/chemblws/compounds/CHEMBL365941.json
p1499
sg9
F-5.4424177105217932
sg10
VCHEMBL365941
p1500
sg12
I1
sbag2
(g3
g4
NtRp1501
(dp1502
g7
Vhttp://www.ebi.ac.uk/chemblws/compounds/CHEMBL191808.json
p1503
sg9
F-4.962844630259907
sg10
VCHEMBL191808
p1504
sg12
I1
sbag2
(g3
g4
NtRp1505
(dp1506
g7
Vhttp://www.ebi.ac.uk/chemblws/compounds/CHEMBL360978.json
p1507
sg9
F-1.275362800412609
sg10
VCHEMBL360978
p1508
sg12
I1
sbag2
(g3
g4
NtRp1509
(dp1510
g7
Vhttp://www.ebi.ac.uk/chemblws/compounds/CHEMBL372011.json
p1511
sg9
F-5.0937502008067623
sg10
VCHEMBL372011
p1512
sg12
I1
sbag2
(g3
g4
NtRp1513
(dp1514
g7
Vhttp://www.ebi.ac.uk/chemblws/compounds/CHEMBL200232.json
p1515
sg9
F-4.5517694092609764
sg10
VCHEMBL200232
p1516
sg12
I1
sbag2
(g3
g4
NtRp1517
(dp1518
g7
Vhttp://www.ebi.ac.uk/chemblws/compounds/CHEMBL379234.json
p1519
sg9
F-6.0014148779611505
sg10
VCHEMBL379234
p1520
sg12
I1
sbag2
(g3
g4
NtRp1521
(dp1522
g7
Vhttp://www.ebi.ac.uk/chemblws/compounds/CHEMBL203402.json
p1523
sg9
F-5.6058020662959978
sg10
VCHEMBL203402
p1524
sg12
I1
sbag2
(g3
g4
NtRp1525
(dp1526
g7
Vhttp://www.ebi.ac.uk/chemblws/compounds/CHEMBL202673.json
p1527
sg9
F-6.4393503711000983
sg10
VCHEMBL202673
p1528
sg12
I1
sbag2
(g3
g4
NtRp1529
(dp1530
g7
Vhttp://www.ebi.ac.uk/chemblws/compounds/CHEMBL203072.json
p1531
sg9
F-4.8598124043616719
sg10
VCHEMBL203072
p1532
sg12
I1
sbag2
(g3
g4
NtRp1533
(dp1534
g7
Vhttp://www.ebi.ac.uk/chemblws/compounds/CHEMBL204434.json
p1535
sg9
F-5.5333894887275203
sg10
VCHEMBL204434
p1536
sg12
I1
sbag2
(g3
g4
NtRp1537
(dp1538
g7
Vhttp://www.ebi.ac.uk/chemblws/compounds/CHEMBL383691.json
p1539
sg9
F-3.1780538303479458
sg10
VCHEMBL383691
p1540
sg12
I1
sbag2
(g3
g4
NtRp1541
(dp1542
g7
Vhttp://www.ebi.ac.uk/chemblws/compounds/CHEMBL202472.json
p1543
sg9
F-1.6094379124341003
sg10
VCHEMBL202472
p1544
sg12
I1
sbag2
(g3
g4
NtRp1545
(dp1546
g7
Vhttp://www.ebi.ac.uk/chemblws/compounds/CHEMBL378581.json
p1547
sg9
F-6.7934661325800096
sg10
VCHEMBL378581
p1548
sg12
I1
sbag2
(g3
g4
NtRp1549
(dp1550
g7
Vhttp://www.ebi.ac.uk/chemblws/compounds/CHEMBL241300.json
p1551
sg9
F-2.3978952727983707
sg10
VCHEMBL241300
p1552
sg12
I1
sbag2
(g3
g4
NtRp1553
(dp1554
g7
Vhttp://www.ebi.ac.uk/chemblws/compounds/CHEMBL393179.json
p1555
sg9
F-5.934894195619588
sg10
VCHEMBL393179
p1556
sg12
I1
sbag2
(g3
g4
NtRp1557
(dp1558
g7
Vhttp://www.ebi.ac.uk/chemblws/compounds/CHEMBL442249.json
p1559
sg9
F-3.6888794541139363
sg10
VCHEMBL442249
p1560
sg12
I1
sbag2
(g3
g4
NtRp1561
(dp1562
g7
Vhttp://www.ebi.ac.uk/chemblws/compounds/CHEMBL238959.json
p1563
sg9
F-4.2341065045972597
sg10
VCHEMBL238959
p1564
sg12
I1
sbag2
(g3
g4
NtRp1565
(dp1566
g7
Vhttp://www.ebi.ac.uk/chemblws/compounds/CHEMBL1087919.json
p1567
sg9
F-2.4069451083182885
sg10
VCHEMBL1087919
p1568
sg12
I1
sbag2
(g3
g4
NtRp1569
(dp1570
g7
Vhttp://www.ebi.ac.uk/chemblws/compounds/CHEMBL153405.json
p1571
sg9
F-4.7004803657924166
sg10
VCHEMBL153405
p1572
sg12
I1
sbag2
(g3
g4
NtRp1573
(dp1574
g7
Vhttp://www.ebi.ac.uk/chemblws/compounds/CHEMBL327320.json
p1575
sg9
F-0
sg10
VCHEMBL327320
p1576
sg12
I1
sbag2
(g3
g4
NtRp1577
(dp1578
g7
Vhttp://www.ebi.ac.uk/chemblws/compounds/CHEMBL178559.json
p1579
sg9
F-2.6390573296152584
sg10
VCHEMBL178559
p1580
sg12
I1
sbag2
(g3
g4
NtRp1581
(dp1582
g7
Vhttp://www.ebi.ac.uk/chemblws/compounds/CHEMBL94080.json
p1583
sg9
F-3.7909846770510898
sg10
VCHEMBL94080
p1584
sg12
I1
sbag2
(g3
g4
NtRp1585
(dp1586
g7
Vhttp://www.ebi.ac.uk/chemblws/compounds/CHEMBL180973.json
p1587
sg9
F-0.54232429082536171
sg10
VCHEMBL180973
p1588
sg12
I1
sbag2
(g3
g4
NtRp1589
(dp1590
g7
Vhttp://www.ebi.ac.uk/chemblws/compounds/CHEMBL1098709.json
p1591
sg9
F-5.5031747401749289
sg10
VCHEMBL1098709
p1592
sg12
I1
sbag2
(g3
g4
NtRp1593
(dp1594
g7
Vhttp://www.ebi.ac.uk/chemblws/compounds/CHEMBL1098710.json
p1595
sg9
F-3.8613610906259179
sg10
VCHEMBL1098710
p1596
sg12
I1
sbag2
(g3
g4
NtRp1597
(dp1598
g7
Vhttp://www.ebi.ac.uk/chemblws/compounds/CHEMBL144431.json
p1599
sg9
F-3.4339872044851463
sg10
VCHEMBL144431
p1600
sg12
I1
sbag2
(g3
g4
NtRp1601
(dp1602
g7
Vhttp://www.ebi.ac.uk/chemblws/compounds/CHEMBL415864.json
p1603
sg9
F-5.0106352940962555
sg10
VCHEMBL415864
p1604
sg12
I1
sbag2
(g3
g4
NtRp1605
(dp1606
g7
Vhttp://www.ebi.ac.uk/chemblws/compounds/CHEMBL189658.json
p1607
sg9
F-4.9272536851572051
sg10
VCHEMBL189658
p1608
sg12
I1
sbag2
(g3
g4
NtRp1609
(dp1610
g7
Vhttp://www.ebi.ac.uk/chemblws/compounds/CHEMBL193064.json
p1611
sg9
F-5.4595855141441589
sg10
VCHEMBL193064
p1612
sg12
I1
sbag2
(g3
g4
NtRp1613
(dp1614
g7
Vhttp://www.ebi.ac.uk/chemblws/compounds/CHEMBL186513.json
p1615
sg9
F-6.0185932144962342
sg10
VCHEMBL186513
p1616
sg12
I1
sbag2
(g3
g4
NtRp1617
(dp1618
g7
Vhttp://www.ebi.ac.uk/chemblws/compounds/CHEMBL30439.json
p1619
sg9
F-1.9021075263969205
sg10
VCHEMBL30439
p1620
sg12
I1
sbag2
(g3
g4
NtRp1621
(dp1622
g7
Vhttp://www.ebi.ac.uk/chemblws/compounds/CHEMBL312186.json
p1623
sg9
F-3.3322045101752038
sg10
VCHEMBL312186
p1624
sg12
I1
sbag2
(g3
g4
NtRp1625
(dp1626
g7
Vhttp://www.ebi.ac.uk/chemblws/compounds/CHEMBL81.json
p1627
sg9
F0.77652878949899629
sg10
VCHEMBL81
p1628
sg12
I1
sbag2
(g3
g4
NtRp1629
(dp1630
g7
Vhttp://www.ebi.ac.uk/chemblws/compounds/CHEMBL180253.json
p1631
sg9
F-3.6375861597263857
sg10
VCHEMBL180253
p1632
sg12
I1
sbag2
(g3
g4
NtRp1633
(dp1634
g7
Vhttp://www.ebi.ac.uk/chemblws/compounds/CHEMBL93705.json
p1635
sg9
F-1.3862943611198906
sg10
VCHEMBL93705
p1636
sg12
I1
sbag2
(g3
g4
NtRp1637
(dp1638
g7
Vhttp://www.ebi.ac.uk/chemblws/compounds/CHEMBL190104.json
p1639
sg9
F-6.1737861039019366
sg10
VCHEMBL190104
p1640
sg12
I1
sbag2
(g3
g4
NtRp1641
(dp1642
g7
Vhttp://www.ebi.ac.uk/chemblws/compounds/CHEMBL360498.json
p1643
sg9
F0.15082288973458366
sg10
VCHEMBL360498
p1644
sg12
I1
sbag2
(g3
g4
NtRp1645
(dp1646
g7
Vhttp://www.ebi.ac.uk/chemblws/compounds/CHEMBL1082528.json
p1647
sg9
F-1.6094379124341003
sg10
VCHEMBL1082528
p1648
sg12
I1
sbag2
(g3
g4
NtRp1649
(dp1650
g7
Vhttp://www.ebi.ac.uk/chemblws/compounds/CHEMBL1083187.json
p1651
sg9
F-4.7874917427820458
sg10
VCHEMBL1083187
p1652
sg12
I1
sbag2
(g3
g4
NtRp1653
(dp1654
g7
Vhttp://www.ebi.ac.uk/chemblws/compounds/CHEMBL31128.json
p1655
sg9
F-4.6913478822291435
sg10
VCHEMBL31128
p1656
sg12
I1
sbag2
(g3
g4
NtRp1657
(dp1658
g7
Vhttp://www.ebi.ac.uk/chemblws/compounds/CHEMBL367588.json
p1659
sg9
F-5.1704839950381514
sg10
VCHEMBL367588
p1660
sg12
I1
sbag2
(g3
g4
NtRp1661
(dp1662
g7
Vhttp://www.ebi.ac.uk/chemblws/compounds/CHEMBL186597.json
p1663
sg9
F-4.1743872698956368
sg10
VCHEMBL186597
p1664
sg12
I1
sbag2
(g3
g4
NtRp1665
(dp1666
g7
Vhttp://www.ebi.ac.uk/chemblws/compounds/CHEMBL145576.json
p1667
sg9
F-2.9444389791664403
sg10
VCHEMBL145576
p1668
sg12
I1
sbag2
(g3
g4
NtRp1669
(dp1670
g7
Vhttp://www.ebi.ac.uk/chemblws/compounds/CHEMBL361258.json
p1671
sg9
F-4.7361984483944957
sg10
VCHEMBL361258
p1672
sg12
I1
sbag2
(g3
g4
NtRp1673
(dp1674
g7
Vhttp://www.ebi.ac.uk/chemblws/compounds/CHEMBL363367.json
p1675
sg9
F-3.4011973816621555
sg10
VCHEMBL363367
p1676
sg12
I1
sbag2
(g3
g4
NtRp1677
(dp1678
g7
Vhttp://www.ebi.ac.uk/chemblws/compounds/CHEMBL81591.json
p1679
sg9
F-6.9077552789821368
sg10
VCHEMBL81591
p1680
sg12
I1
sbag2
(g3
g4
NtRp1681
(dp1682
g7
Vhttp://www.ebi.ac.uk/chemblws/compounds/CHEMBL181369.json
p1683
sg9
F0.10536051565782628
sg10
VCHEMBL181369
p1684
sg12
I1
sbag2
(g3
g4
NtRp1685
(dp1686
g7
Vhttp://www.ebi.ac.uk/chemblws/compounds/CHEMBL92660.json
p1687
sg9
F-0
sg10
VCHEMBL92660
p1688
sg12
I1
sbag2
(g3
g4
NtRp1689
(dp1690
g7
Vhttp://www.ebi.ac.uk/chemblws/compounds/CHEMBL135.json
p1691
sg9
F-0.26236426446749106
sg10
VCHEMBL135
p1692
sg12
I1
sbag2
(g3
g4
NtRp1693
(dp1694
g7
Vhttp://www.ebi.ac.uk/chemblws/compounds/CHEMBL57150.json
p1695
sg9
F-6.3099182782265162
sg10
VCHEMBL57150
p1696
sg12
I1
sbag2
(g3
g4
NtRp1697
(dp1698
g7
Vhttp://www.ebi.ac.uk/chemblws/compounds/CHEMBL94116.json
p1699
sg9
F-1.2237754316221157
sg10
VCHEMBL94116
p1700
sg12
I1
sbag2
(g3
g4
NtRp1701
(dp1702
g7
Vhttp://www.ebi.ac.uk/chemblws/compounds/CHEMBL433944.json
p1703
sg9
F-3.044522437723423
sg10
VCHEMBL433944
p1704
sg12
I1
sbag2
(g3
g4
NtRp1705
(dp1706
g7
Vhttp://www.ebi.ac.uk/chemblws/compounds/CHEMBL371624.json
p1707
sg9
F-4.6539603501575231
sg10
VCHEMBL371624
p1708
sg12
I1
sbag2
(g3
g4
NtRp1709
(dp1710
g7
Vhttp://www.ebi.ac.uk/chemblws/compounds/CHEMBL371788.json
p1711
sg9
F-3.4339872044851463
sg10
VCHEMBL371788
p1712
sg12
I1
sbag2
(g3
g4
NtRp1713
(dp1714
g7
Vhttp://www.ebi.ac.uk/chemblws/compounds/CHEMBL189200.json
p1715
sg9
F-3.0910424533583161
sg10
VCHEMBL189200
p1716
sg12
I1
sbag2
(g3
g4
NtRp1717
(dp1718
g7
Vhttp://www.ebi.ac.uk/chemblws/compounds/CHEMBL44426.json
p1719
sg9
F-2.6390573296152584
sg10
VCHEMBL44426
p1720
sg12
I1
sbag2
(g3
g4
NtRp1721
(dp1722
g7
Vhttp://www.ebi.ac.uk/chemblws/compounds/CHEMBL187087.json
p1723
sg9
F-4.4067192472642533
sg10
VCHEMBL187087
p1724
sg12
I1
sbag2
(g3
g4
NtRp1725
(dp1726
g7
Vhttp://www.ebi.ac.uk/chemblws/compounds/CHEMBL200021.json
p1727
sg9
F-2.1400661634962708
sg10
VCHEMBL200021
p1728
sg12
I1
sbag2
(g3
g4
NtRp1729
(dp1730
g7
Vhttp://www.ebi.ac.uk/chemblws/compounds/CHEMBL316132.json
p1731
sg9
F-2.0149030205422647
sg10
VCHEMBL316132
p1732
sg12
I1
sbag2
(g3
g4
NtRp1733
(dp1734
g7
Vhttp://www.ebi.ac.uk/chemblws/compounds/CHEMBL363963.json
p1735
sg9
F-6.1612073216950769
sg10
VCHEMBL363963
p1736
sg12
I1
sbag2
(g3
g4
NtRp1737
(dp1738
g7
Vhttp://www.ebi.ac.uk/chemblws/compounds/CHEMBL89994.json
p1739
sg9
F-3.3568971227655755
sg10
VCHEMBL89994
p1740
sg12
I1
sbag2
(g3
g4
NtRp1741
(dp1742
g7
Vhttp://www.ebi.ac.uk/chemblws/compounds/CHEMBL195118.json
p1743
sg9
F-4.7791234931115296
sg10
VCHEMBL195118
p1744
sg12
I1
sbag2
(g3
g4
NtRp1745
(dp1746
g7
Vhttp://www.ebi.ac.uk/chemblws/compounds/CHEMBL441537.json
p1747
sg9
F-5.7651911027848444
sg10
VCHEMBL441537
p1748
sg12
I1
sbag2
(g3
g4
NtRp1749
(dp1750
g7
Vhttp://www.ebi.ac.uk/chemblws/compounds/CHEMBL377694.json
p1751
sg9
F-4.3694478524670215
sg10
VCHEMBL377694
p1752
sg12
I1
sbag2
(g3
g4
NtRp1753
(dp1754
g7
Vhttp://www.ebi.ac.uk/chemblws/compounds/CHEMBL192386.json
p1755
sg9
F-3.0910424533583161
sg10
VCHEMBL192386
p1756
sg12
I1
sbag2
(g3
g4
NtRp1757
(dp1758
g7
Vhttp://www.ebi.ac.uk/chemblws/compounds/CHEMBL362020.json
p1759
sg9
F-0.76546784213957142
sg10
VCHEMBL362020
p1760
sg12
I1
sbag2
(g3
g4
NtRp1761
(dp1762
g7
Vhttp://www.ebi.ac.uk/chemblws/compounds/CHEMBL183152.json
p1763
sg9
F-6.4377516497364011
sg10
VCHEMBL183152
p1764
sg12
I1
sbag2
(g3
g4
NtRp1765
(dp1766
g7
Vhttp://www.ebi.ac.uk/chemblws/compounds/CHEMBL33053.json
p1767
sg9
F-5.0039463059454592
sg10
VCHEMBL33053
p1768
sg12
I1
sbag2
(g3
g4
NtRp1769
(dp1770
g7
Vhttp://www.ebi.ac.uk/chemblws/compounds/CHEMBL387335.json
p1771
sg9
F-3.1527360223636558
sg10
VCHEMBL387335
p1772
sg12
I1
sbag2
(g3
g4
NtRp1773
(dp1774
g7
Vhttp://www.ebi.ac.uk/chemblws/compounds/CHEMBL192587.json
p1775
sg9
F-5.2983173665480363
sg10
VCHEMBL192587
p1776
sg12
I1
sbag2
(g3
g4
NtRp1777
(dp1778
g7
Vhttp://www.ebi.ac.uk/chemblws/compounds/CHEMBL370849.json
p1779
sg9
F-1.791759469228055
sg10
VCHEMBL370849
p1780
sg12
I1
sbag2
(g3
g4
NtRp1781
(dp1782
g7
Vhttp://www.ebi.ac.uk/chemblws/compounds/CHEMBL178679.json
p1783
sg9
F1.5141277326297755
sg10
VCHEMBL178679
p1784
sg12
I1
sbag2
(g3
g4
NtRp1785
(dp1786
g7
Vhttp://www.ebi.ac.uk/chemblws/compounds/CHEMBL185126.json
p1787
sg9
F-4.6913478822291435
sg10
VCHEMBL185126
p1788
sg12
I1
sbag2
(g3
g4
NtRp1789
(dp1790
g7
Vhttp://www.ebi.ac.uk/chemblws/compounds/CHEMBL185918.json
p1791
sg9
F-4.7621739347977563
sg10
VCHEMBL185918
p1792
sg12
I1
sbag2
(g3
g4
NtRp1793
(dp1794
g7
Vhttp://www.ebi.ac.uk/chemblws/compounds/CHEMBL264216.json
p1795
sg9
F-1.205970806988609
sg10
VCHEMBL264216
p1796
sg12
I1
sbag2
(g3
g4
NtRp1797
(dp1798
g7
Vhttp://www.ebi.ac.uk/chemblws/compounds/CHEMBL198679.json
p1799
sg9
F-6.4520489544372257
sg10
VCHEMBL198679
p1800
sg12
I1
sbag2
(g3
g4
NtRp1801
(dp1802
g7
Vhttp://www.ebi.ac.uk/chemblws/compounds/CHEMBL121978.json
p1803
sg9
F-0
sg10
VCHEMBL121978
p1804
sg12
I1
sbag2
(g3
g4
NtRp1805
(dp1806
g7
Vhttp://www.ebi.ac.uk/chemblws/compounds/CHEMBL334096.json
p1807
sg9
F-0.33647223662121289
sg10
VCHEMBL334096
p1808
sg12
I1
sbag2
(g3
g4
NtRp1809
(dp1810
g7
Vhttp://www.ebi.ac.uk/chemblws/compounds/CHEMBL192539.json
p1811
sg9
F-3.6375861597263857
sg10
VCHEMBL192539
p1812
sg12
I1
sbag2
(g3
g4
NtRp1813
(dp1814
g7
Vhttp://www.ebi.ac.uk/chemblws/compounds/CHEMBL94030.json
p1815
sg9
F-1.8082887711792655
sg10
VCHEMBL94030
p1816
sg12
I1
sbag2
(g3
g4
NtRp1817
(dp1818
g7
Vhttp://www.ebi.ac.uk/chemblws/compounds/CHEMBL186598.json
p1819
sg9
F-2.5649493574615367
sg10
VCHEMBL186598
p1820
sg12
I1
sbag2
(g3
g4
NtRp1821
(dp1822
g7
Vhttp://www.ebi.ac.uk/chemblws/compounds/CHEMBL316119.json
p1823
sg9
F-2.6026896854443837
sg10
VCHEMBL316119
p1824
sg12
I1
sbag2
(g3
g4
NtRp1825
(dp1826
g7
Vhttp://www.ebi.ac.uk/chemblws/compounds/CHEMBL180146.json
p1827
sg9
F0.22314355131420971
sg10
VCHEMBL180146
p1828
sg12
I1
sbag2
(g3
g4
NtRp1829
(dp1830
g7
Vhttp://www.ebi.ac.uk/chemblws/compounds/CHEMBL377224.json
p1831
sg9
F-5.9635793436184459
sg10
VCHEMBL377224
p1832
sg12
I1
sbag2
(g3
g4
NtRp1833
(dp1834
g7
Vhttp://www.ebi.ac.uk/chemblws/compounds/CHEMBL377848.json
p1835
sg9
F-5.8406416573733981
sg10
VCHEMBL377848
p1836
sg12
I1
sbag2
(g3
g4
NtRp1837
(dp1838
g7
Vhttp://www.ebi.ac.uk/chemblws/compounds/CHEMBL204185.json
p1839
sg9
F-3.9318256327243257
sg10
VCHEMBL204185
p1840
sg12
I1
sbag2
(g3
g4
NtRp1841
(dp1842
g7
Vhttp://www.ebi.ac.uk/chemblws/compounds/CHEMBL264349.json
p1843
sg9
F-5.0751738152338266
sg10
VCHEMBL264349
p1844
sg12
I1
sbag2
(g3
g4
NtRp1845
(dp1846
g7
Vhttp://www.ebi.ac.uk/chemblws/compounds/CHEMBL378675.json
p1847
sg9
F-5.2781146592305168
sg10
VCHEMBL378675
p1848
sg12
I1
sbag2
(g3
g4
NtRp1849
(dp1850
g7
Vhttp://www.ebi.ac.uk/chemblws/compounds/CHEMBL1402.json
p1851
sg9
F-1.3862943611198906
sg10
VCHEMBL1402
p1852
sg12
I1
sbag2
(g3
g4
NtRp1853
(dp1854
g7
Vhttp://www.ebi.ac.uk/chemblws/compounds/CHEMBL369935.json
p1855
sg9
F-2.3025850929940459
sg10
VCHEMBL369935
p1856
sg12
I1
sbag2
(g3
g4
NtRp1857
(dp1858
g7
Vhttp://www.ebi.ac.uk/chemblws/compounds/CHEMBL216279.json
p1859
sg9
F-4.9416424226093039
sg10
VCHEMBL216279
p1860
sg12
I1
sbag2
(g3
g4
NtRp1861
(dp1862
g7
Vhttp://www.ebi.ac.uk/chemblws/compounds/CHEMBL219126.json
p1863
sg9
F-6.2205901700997392
sg10
VCHEMBL219126
p1864
sg12
I1
sbag2
(g3
g4
NtRp1865
(dp1866
g7
Vhttp://www.ebi.ac.uk/chemblws/compounds/CHEMBL381566.json
p1867
sg9
F-4.990432586778736
sg10
VCHEMBL381566
p1868
sg12
I1
sbag2
(g3
g4
NtRp1869
(dp1870
g7
Vhttp://www.ebi.ac.uk/chemblws/compounds/CHEMBL209429.json
p1871
sg9
F-4.255612709818223
sg10
VCHEMBL209429
p1872
sg12
I1
sbag2
(g3
g4
NtRp1873
(dp1874
g7
Vhttp://www.ebi.ac.uk/chemblws/compounds/CHEMBL379109.json
p1875
sg9
F-4.7361984483944957
sg10
VCHEMBL379109
p1876
sg12
I1
sbag2
(g3
g4
NtRp1877
(dp1878
g7
Vhttp://www.ebi.ac.uk/chemblws/compounds/CHEMBL379821.json
p1879
sg9
F-4.8202815656050371
sg10
VCHEMBL379821
p1880
sg12
I1
sbag2
(g3
g4
NtRp1881
(dp1882
g7
Vhttp://www.ebi.ac.uk/chemblws/compounds/CHEMBL179518.json
p1883
sg9
F-0.35767444427181588
sg10
VCHEMBL179518
p1884
sg12
I1
sbag2
(g3
g4
NtRp1885
(dp1886
g7
Vhttp://www.ebi.ac.uk/chemblws/compounds/CHEMBL187069.json
p1887
sg9
F-6.7080840838530698
sg10
VCHEMBL187069
p1888
sg12
I1
sbag2
(g3
g4
NtRp1889
(dp1890
g7
Vhttp://www.ebi.ac.uk/chemblws/compounds/CHEMBL363425.json
p1891
sg9
F-3.044522437723423
sg10
VCHEMBL363425
p1892
sg12
I1
sbag2
(g3
g4
NtRp1893
(dp1894
g7
Vhttp://www.ebi.ac.uk/chemblws/compounds/CHEMBL597498.json
p1895
sg9
F-5.9914645471079817
sg10
VCHEMBL597498
p1896
sg12
I1
sbag2
(g3
g4
NtRp1897
(dp1898
g7
Vhttp://www.ebi.ac.uk/chemblws/compounds/CHEMBL1088631.json
p1899
sg9
F-1.2237754316221157
sg10
VCHEMBL1088631
p1900
sg12
I1
sbag2
(g3
g4
NtRp1901
(dp1902
g7
Vhttp://www.ebi.ac.uk/chemblws/compounds/CHEMBL211800.json
p1903
sg9
F-5.43372200355424
sg10
VCHEMBL211800
p1904
sg12
I1
sbag2
(g3
g4
NtRp1905
(dp1906
g7
Vhttp://www.ebi.ac.uk/chemblws/compounds/CHEMBL379567.json
p1907
sg9
F-6.4361503683694279
sg10
VCHEMBL379567
p1908
sg12
I1
sbag2
(g3
g4
NtRp1909
(dp1910
g7
Vhttp://www.ebi.ac.uk/chemblws/compounds/CHEMBL379595.json
p1911
sg9
F-5.8636311755980968
sg10
VCHEMBL379595
p1912
sg12
I1
sbag2
(g3
g4
NtRp1913
(dp1914
g7
Vhttp://www.ebi.ac.uk/chemblws/compounds/CHEMBL211870.json
p1915
sg9
F-5.2832037287379885
sg10
VCHEMBL211870
p1916
sg12
I1
sbag2
(g3
g4
NtRp1917
(dp1918
g7
Vhttp://www.ebi.ac.uk/chemblws/compounds/CHEMBL1084120.json
p1919
sg9
F-1.9459101490553132
sg10
VCHEMBL1084120
p1920
sg12
I1
sbag2
(g3
g4
NtRp1921
(dp1922
g7
Vhttp://www.ebi.ac.uk/chemblws/compounds/CHEMBL187937.json
p1923
sg9
F-6.1758672701057611
sg10
VCHEMBL187937
p1924
sg12
I1
sbag2
(g3
g4
NtRp1925
(dp1926
g7
Vhttp://www.ebi.ac.uk/chemblws/compounds/CHEMBL380717.json
p1927
sg9
F-6.5736801669606457
sg10
VCHEMBL380717
p1928
sg12
I1
sbag2
(g3
g4
NtRp1929
(dp1930
g7
Vhttp://www.ebi.ac.uk/chemblws/compounds/CHEMBL362355.json
p1931
sg9
F-5.9215784196438159
sg10
VCHEMBL362355
p1932
sg12
I1
sbag2
(g3
g4
NtRp1933
(dp1934
g7
Vhttp://www.ebi.ac.uk/chemblws/compounds/CHEMBL221676.json
p1935
sg9
F-5.2781146592305168
sg10
VCHEMBL221676
p1936
sg12
I1
sbag2
(g3
g4
NtRp1937
(dp1938
g7
Vhttp://www.ebi.ac.uk/chemblws/compounds/CHEMBL1254532.json
p1939
sg9
F-5.7365722974791922
sg10
VCHEMBL1254532
p1940
sg12
I1
sbag2
(g3
g4
NtRp1941
(dp1942
g7
Vhttp://www.ebi.ac.uk/chemblws/compounds/CHEMBL363955.json
p1943
sg9
F-6.1025585946135692
sg10
VCHEMBL363955
p1944
sg12
I1
sbag2
(g3
g4
NtRp1945
(dp1946
g7
Vhttp://www.ebi.ac.uk/chemblws/compounds/CHEMBL379008.json
p1947
sg9
F-4.5747109785033828
sg10
VCHEMBL379008
p1948
sg12
I1
sbag2
(g3
g4
NtRp1949
(dp1950
g7
Vhttp://www.ebi.ac.uk/chemblws/compounds/CHEMBL1087547.json
p1951
sg9
F-4.0073331852324712
sg10
VCHEMBL1087547
p1952
sg12
I1
sbag2
(g3
g4
NtRp1953
(dp1954
g7
Vhttp://www.ebi.ac.uk/chemblws/compounds/CHEMBL1086644.json
p1955
sg9
F-3.1354942159291497
sg10
VCHEMBL1086644
p1956
sg12
I1
sbag2
(g3
g4
NtRp1957
(dp1958
g7
Vhttp://www.ebi.ac.uk/chemblws/compounds/CHEMBL1086775.json
p1959
sg9
F-0.18232155679395459
sg10
VCHEMBL1086775
p1960
sg12
I1
sbag2
(g3
g4
NtRp1961
(dp1962
g7
Vhttp://www.ebi.ac.uk/chemblws/compounds/CHEMBL192016.json
p1963
sg9
F-5.5093883366279774
sg10
VCHEMBL192016
p1964
sg12
I1
sbag2
(g3
g4
NtRp1965
(dp1966
g7
Vhttp://www.ebi.ac.uk/chemblws/compounds/CHEMBL191841.json
p1967
sg9
F-2.4849066497880004
sg10
VCHEMBL191841
p1968
sg12
I1
sbag2
(g3
g4
NtRp1969
(dp1970
g7
Vhttp://www.ebi.ac.uk/chemblws/compounds/CHEMBL238960.json
p1971
sg9
F-3.1354942159291497
sg10
VCHEMBL238960
p1972
sg12
I1
sbag2
(g3
g4
NtRp1973
(dp1974
g7
Vhttp://www.ebi.ac.uk/chemblws/compounds/CHEMBL238961.json
p1975
sg9
F-2.0541237336955462
sg10
VCHEMBL238961
p1976
sg12
I1
sbag2
(g3
g4
NtRp1977
(dp1978
g7
Vhttp://www.ebi.ac.uk/chemblws/compounds/CHEMBL85090.json
p1979
sg9
F-0.95551144502743635
sg10
VCHEMBL85090
p1980
sg12
I1
sbag2
(g3
g4
NtRp1981
(dp1982
g7
Vhttp://www.ebi.ac.uk/chemblws/compounds/CHEMBL184360.json
p1983
sg9
F0.51082562376599072
sg10
VCHEMBL184360
p1984
sg12
I1
sbag2
(g3
g4
NtRp1985
(dp1986
g7
Vhttp://www.ebi.ac.uk/chemblws/compounds/CHEMBL180176.json
p1987
sg9
F0.84397007029452897
sg10
VCHEMBL180176
p1988
sg12
I1
sbag2
(g3
g4
NtRp1989
(dp1990
g7
Vhttp://www.ebi.ac.uk/chemblws/compounds/CHEMBL437695.json
p1991
sg9
F0.69314718055994529
sg10
VCHEMBL437695
p1992
sg12
I1
sbag2
(g3
g4
NtRp1993
(dp1994
g7
Vhttp://www.ebi.ac.uk/chemblws/compounds/CHEMBL209530.json
p1995
sg9
F-3.3672958299864741
sg10
VCHEMBL209530
p1996
sg12
I1
sbag2
(g3
g4
NtRp1997
(dp1998
g7
Vhttp://www.ebi.ac.uk/chemblws/compounds/CHEMBL1276308.json
p1999
sg9
F-6.9077552789821368
sg10
VCHEMBL1276308
p2000
sg12
I1
sbag2
(g3
g4
NtRp2001
(dp2002
g7
Vhttp://www.ebi.ac.uk/chemblws/compounds/CHEMBL388418.json
p2003
sg9
F-5.598421958998375
sg10
VCHEMBL388418
p2004
sg12
I1
sbag2
(g3
g4
NtRp2005
(dp2006
g7
Vhttp://www.ebi.ac.uk/chemblws/compounds/CHEMBL1433745.json
p2007
sg9
F-4.2484952420493594
sg10
VCHEMBL1433745
p2008
sg12
I1
sbag2
(g3
g4
NtRp2009
(dp2010
g7
Vhttp://www.ebi.ac.uk/chemblws/compounds/CHEMBL1475062.json
p2011
sg9
F-5.1929568508902104
sg10
VCHEMBL1475062
p2012
sg12
I1
sbag2
(g3
g4
NtRp2013
(dp2014
g7
Vhttp://www.ebi.ac.uk/chemblws/compounds/CHEMBL1597831.json
p2015
sg9
F-4.7874917427820458
sg10
VCHEMBL1597831
p2016
sg12
I1
sbag2
(g3
g4
NtRp2017
(dp2018
g7
Vhttp://www.ebi.ac.uk/chemblws/compounds/CHEMBL471627.json
p2019
sg9
F-2.6390573296152584
sg10
VCHEMBL471627
p2020
sg12
I1
sbag2
(g3
g4
NtRp2021
(dp2022
g7
Vhttp://www.ebi.ac.uk/chemblws/compounds/CHEMBL1599080.json
p2023
sg9
F-6.0637852086876078
sg10
VCHEMBL1599080
p2024
sg12
I1
sbag2
(g3
g4
NtRp2025
(dp2026
g7
Vhttp://www.ebi.ac.uk/chemblws/compounds/CHEMBL375334.json
p2027
sg9
F-6.4329400927391793
sg10
VCHEMBL375334
p2028
sg12
I1
sbag2
(g3
g4
NtRp2029
(dp2030
g7
Vhttp://www.ebi.ac.uk/chemblws/compounds/CHEMBL222522.json
p2031
sg9
F-4.0775374439057197
sg10
VCHEMBL222522
p2032
sg12
I1
sbag2
(g3
g4
NtRp2033
(dp2034
g7
Vhttp://www.ebi.ac.uk/chemblws/compounds/CHEMBL222580.json
p2035
sg9
F-2.9957322735539909
sg10
VCHEMBL222580
p2036
sg12
I1
sbag2
(g3
g4
NtRp2037
(dp2038
g7
Vhttp://www.ebi.ac.uk/chemblws/compounds/CHEMBL1083188.json
p2039
sg9
F-6.363028103540465
sg10
VCHEMBL1083188
p2040
sg12
I1
sbag2
(g3
g4
NtRp2041
(dp2042
g7
Vhttp://www.ebi.ac.uk/chemblws/compounds/CHEMBL191716.json
p2043
sg9
F-4.5217885770490405
sg10
VCHEMBL191716
p2044
sg12
I1
sbag2
(g3
g4
NtRp2045
(dp2046
g7
Vhttp://www.ebi.ac.uk/chemblws/compounds/CHEMBL311640.json
p2047
sg9
F-4.219507705176107
sg10
VCHEMBL311640
p2048
sg12
I1
sbag2
(g3
g4
NtRp2049
(dp2050
g7
Vhttp://www.ebi.ac.uk/chemblws/compounds/CHEMBL194772.json
p2051
sg9
F-6.4583382833447898
sg10
VCHEMBL194772
p2052
sg12
I1
sbag2
(g3
g4
NtRp2053
(dp2054
g7
Vhttp://www.ebi.ac.uk/chemblws/compounds/CHEMBL329849.json
p2055
sg9
F-2.2300144001592104
sg10
VCHEMBL329849
p2056
sg12
I1
sbag2
(g3
g4
NtRp2057
(dp2058
g7
Vhttp://www.ebi.ac.uk/chemblws/compounds/CHEMBL362425.json
p2059
sg9
F-2.6713862167306188
sg10
VCHEMBL362425
p2060
sg12
I1
sbag2
(g3
g4
NtRp2061
(dp2062
g7
Vhttp://www.ebi.ac.uk/chemblws/compounds/CHEMBL363177.json
p2063
sg9
F-4.7706846244656651
sg10
VCHEMBL363177
p2064
sg12
I1
sbag2
(g3
g4
NtRp2065
(dp2066
g7
Vhttp://www.ebi.ac.uk/chemblws/compounds/CHEMBL364329.json
p2067
sg9
F-6.2859980945088649
sg10
VCHEMBL364329
p2068
sg12
I1
sbag2
(g3
g4
NtRp2069
(dp2070
g7
Vhttp://www.ebi.ac.uk/chemblws/compounds/CHEMBL192187.json
p2071
sg9
F-4.4659081186545837
sg10
VCHEMBL192187
p2072
sg12
I1
sbag2
(g3
g4
NtRp2073
(dp2074
g7
Vhttp://www.ebi.ac.uk/chemblws/compounds/CHEMBL183489.json
p2075
sg9
F0.35667494393873245
sg10
VCHEMBL183489
p2076
sg12
I1
sbag2
(g3
g4
NtRp2077
(dp2078
g7
Vhttp://www.ebi.ac.uk/chemblws/compounds/CHEMBL193518.json
p2079
sg9
F-4.7874917427820458
sg10
VCHEMBL193518
p2080
sg12
I1
sbag2
(g3
g4
NtRp2081
(dp2082
g7
Vhttp://www.ebi.ac.uk/chemblws/compounds/CHEMBL174502.json
p2083
sg9
F-3.3318473035273621
sg10
VCHEMBL174502
p2084
sg12
I1
sbag2
(g3
g4
NtRp2085
(dp2086
g7
Vhttp://www.ebi.ac.uk/chemblws/compounds/CHEMBL361226.json
p2087
sg9
F-6.1800166536525722
sg10
VCHEMBL361226
p2088
sg12
I1
sbag2
(g3
g4
NtRp2089
(dp2090
g7
Vhttp://www.ebi.ac.uk/chemblws/compounds/CHEMBL379543.json
p2091
sg9
F-6.045005314036012
sg10
VCHEMBL379543
p2092
sg12
I1
sbag2
(g3
g4
NtRp2093
(dp2094
g7
Vhttp://www.ebi.ac.uk/chemblws/compounds/CHEMBL68940.json
p2095
sg9
F-2.3025850929940459
sg10
VCHEMBL68940
p2096
sg12
I1
sbag2
(g3
g4
NtRp2097
(dp2098
g7
Vhttp://www.ebi.ac.uk/chemblws/compounds/CHEMBL93308.json
p2099
sg9
F-3.2188758248682006
sg10
VCHEMBL93308
p2100
sg12
I1
sbag2
(g3
g4
NtRp2101
(dp2102
g7
Vhttp://www.ebi.ac.uk/chemblws/compounds/CHEMBL361601.json
p2103
sg9
F0.916290731874155
sg10
VCHEMBL361601
p2104
sg12
I1
sbag2
(g3
g4
NtRp2105
(dp2106
g7
Vhttp://www.ebi.ac.uk/chemblws/compounds/CHEMBL328810.json
p2107
sg9
F-4.0249944840873075
sg10
VCHEMBL328810
p2108
sg12
I1
sbag2
(g3
g4
NtRp2109
(dp2110
g7
Vhttp://www.ebi.ac.uk/chemblws/compounds/CHEMBL181404.json
p2111
sg9
F0.22314355131420971
sg10
VCHEMBL181404
p2112
sg12
I1
sbag2
(g3
g4
NtRp2113
(dp2114
g7
Vhttp://www.ebi.ac.uk/chemblws/compounds/CHEMBL189822.json
p2115
sg9
F-6.1633148040346413
sg10
VCHEMBL189822
p2116
sg12
I1
sbag2
(g3
g4
NtRp2117
(dp2118
g7
Vhttp://www.ebi.ac.uk/chemblws/compounds/CHEMBL192782.json
p2119
sg9
F-4.3438054218536841
sg10
VCHEMBL192782
p2120
sg12
I1
sbag2
(g3
g4
NtRp2121
(dp2122
g7
Vhttp://www.ebi.ac.uk/chemblws/compounds/CHEMBL192901.json
p2123
sg9
F-4.290459441148391
sg10
VCHEMBL192901
p2124
sg12
I1
sbag2
(g3
g4
NtRp2125
(dp2126
g7
Vhttp://www.ebi.ac.uk/chemblws/compounds/CHEMBL362307.json
p2127
sg9
F-3.4965075614664802
sg10
VCHEMBL362307
p2128
sg12
I1
sbag2
(g3
g4
NtRp2129
(dp2130
g7
Vhttp://www.ebi.ac.uk/chemblws/compounds/CHEMBL291002.json
p2131
sg9
F-6.4800445619266531
sg10
VCHEMBL291002
p2132
sg12
I1
sbag2
(g3
g4
NtRp2133
(dp2134
g7
Vhttp://www.ebi.ac.uk/chemblws/compounds/CHEMBL190487.json
p2135
sg9
F-6.5652649700353614
sg10
VCHEMBL190487
p2136
sg12
I1
sbag2
(g3
g4
NtRp2137
(dp2138
g7
Vhttp://www.ebi.ac.uk/chemblws/compounds/CHEMBL195991.json
p2139
sg9
F-4.0500443033255209
sg10
VCHEMBL195991
p2140
sg12
I1
sbag2
(g3
g4
NtRp2141
(dp2142
g7
Vhttp://www.ebi.ac.uk/chemblws/compounds/CHEMBL328190.json
p2143
sg9
F-0.33647223662121289
sg10
VCHEMBL328190
p2144
sg12
I1
sbag2
(g3
g4
NtRp2145
(dp2146
g7
Vhttp://www.ebi.ac.uk/chemblws/compounds/CHEMBL190038.json
p2147
sg9
F-0.69314718055994529
sg10
VCHEMBL190038
p2148
sg12
I1
sbag2
(g3
g4
NtRp2149
(dp2150
g7
Vhttp://www.ebi.ac.uk/chemblws/compounds/CHEMBL304552.json
p2151
sg9
F0.22314355131420971
sg10
VCHEMBL304552
p2152
sg12
I1
sbag2
(g3
g4
NtRp2153
(dp2154
g7
Vhttp://www.ebi.ac.uk/chemblws/compounds/CHEMBL1627354.json
p2155
sg9
F-2.1972245773362196
sg10
VCHEMBL1627354
p2156
sg12
I1
sbag2
(g3
g4
NtRp2157
(dp2158
g7
Vhttp://www.ebi.ac.uk/chemblws/compounds/CHEMBL85536.json
p2159
sg9
F-2.0014800002101243
sg10
VCHEMBL85536
p2160
sg12
I1
sbag2
(g3
g4
NtRp2161
(dp2162
g7
Vhttp://www.ebi.ac.uk/chemblws/compounds/CHEMBL178665.json
p2163
sg9
F0.77652878949899629
sg10
VCHEMBL178665
p2164
sg12
I1
sbag2
(g3
g4
NtRp2165
(dp2166
g7
Vhttp://www.ebi.ac.uk/chemblws/compounds/CHEMBL435696.json
p2167
sg9
F-2.7725887222397811
sg10
VCHEMBL435696
p2168
sg12
I1
sbag2
(g3
g4
NtRp2169
(dp2170
g7
Vhttp://www.ebi.ac.uk/chemblws/compounds/CHEMBL371564.json
p2171
sg9
F-6.776506992372183
sg10
VCHEMBL371564
p2172
sg12
I1
sbag2
(g3
g4
NtRp2173
(dp2174
g7
Vhttp://www.ebi.ac.uk/chemblws/compounds/CHEMBL1628170.json
p2175
sg9
F-3.8286413964890951
sg10
VCHEMBL1628170
p2176
sg12
I1
sbag2
(g3
g4
NtRp2177
(dp2178
g7
Vhttp://www.ebi.ac.uk/chemblws/compounds/CHEMBL91740.json
p2179
sg9
F-3.380994674344636
sg10
VCHEMBL91740
p2180
sg12
I1
sbag2
(g3
g4
NtRp2181
(dp2182
g7
Vhttp://www.ebi.ac.uk/chemblws/compounds/CHEMBL30707.json
p2183
sg9
F-2.3978952727983707
sg10
VCHEMBL30707
p2184
sg12
I1
sbag2
(g3
g4
NtRp2185
(dp2186
g7
Vhttp://www.ebi.ac.uk/chemblws/compounds/CHEMBL954.json
p2187
sg9
F-1.5173226235262947
sg10
VCHEMBL954
p2188
sg12
I1
sbag2
(g3
g4
NtRp2189
(dp2190
g7
Vhttp://www.ebi.ac.uk/chemblws/compounds/CHEMBL184974.json
p2191
sg9
F-0.18232155679395459
sg10
VCHEMBL184974
p2192
sg12
I1
sbag2
(g3
g4
NtRp2193
(dp2194
g7
Vhttp://www.ebi.ac.uk/chemblws/compounds/CHEMBL1627353.json
p2195
sg9
F-5.9839362806871907
sg10
VCHEMBL1627353
p2196
sg12
I1
sbag2
(g3
g4
NtRp2197
(dp2198
g7
Vhttp://www.ebi.ac.uk/chemblws/compounds/CHEMBL373625.json
p2199
sg9
F-1.9286186519452522
sg10
VCHEMBL373625
p2200
sg12
I1
sbag2
(g3
g4
NtRp2201
(dp2202
g7
Vhttp://www.ebi.ac.uk/chemblws/compounds/CHEMBL188846.json
p2203
sg9
F-5.4249500174814029
sg10
VCHEMBL188846
p2204
sg12
I1
sbag2
(g3
g4
NtRp2205
(dp2206
g7
Vhttp://www.ebi.ac.uk/chemblws/compounds/CHEMBL196131.json
p2207
sg9
F-1.0438040521731147
sg10
VCHEMBL196131
p2208
sg12
I1
sbag2
(g3
g4
NtRp2209
(dp2210
g7
Vhttp://www.ebi.ac.uk/chemblws/compounds/CHEMBL30574.json
p2211
sg9
F-6.2747620212419388
sg10
VCHEMBL30574
p2212
sg12
I1
sbag2
(g3
g4
NtRp2213
(dp2214
g7
Vhttp://www.ebi.ac.uk/chemblws/compounds/CHEMBL427180.json
p2215
sg9
F-5.1590552992145291
sg10
VCHEMBL427180
p2216
sg12
I1
sbag2
(g3
g4
NtRp2217
(dp2218
g7
Vhttp://www.ebi.ac.uk/chemblws/compounds/CHEMBL194265.json
p2219
sg9
F-5.6454468976432377
sg10
VCHEMBL194265
p2220
sg12
I1
sbag2
(g3
g4
NtRp2221
(dp2222
g7
Vhttp://www.ebi.ac.uk/chemblws/compounds/CHEMBL195788.json
p2223
sg9
F-6.5638555265321274
sg10
VCHEMBL195788
p2224
sg12
I1
sbag2
(g3
g4
NtRp2225
(dp2226
g7
Vhttp://www.ebi.ac.uk/chemblws/compounds/CHEMBL194334.json
p2227
sg9
F-5.1298987149230735
sg10
VCHEMBL194334
p2228
sg12
I1
sbag2
(g3
g4
NtRp2229
(dp2230
g7
Vhttp://www.ebi.ac.uk/chemblws/compounds/CHEMBL183344.json
p2231
sg9
F0.22314355131420971
sg10
VCHEMBL183344
p2232
sg12
I1
sbag2
(g3
g4
NtRp2233
(dp2234
g7
Vhttp://www.ebi.ac.uk/chemblws/compounds/CHEMBL369545.json
p2235
sg9
F0.35667494393873245
sg10
VCHEMBL369545
p2236
sg12
I1
sbag2
(g3
g4
NtRp2237
(dp2238
g7
Vhttp://www.ebi.ac.uk/chemblws/compounds/CHEMBL361078.json
p2239
sg9
F-3.4011973816621555
sg10
VCHEMBL361078
p2240
sg12
I1
sbag2
(g3
g4
NtRp2241
(dp2242
g7
Vhttp://www.ebi.ac.uk/chemblws/compounds/CHEMBL187393.json
p2243
sg9
F-3.8918202981106265
sg10
VCHEMBL187393
p2244
sg12
I1
sbag2
(g3
g4
NtRp2245
(dp2246
g7
Vhttp://www.ebi.ac.uk/chemblws/compounds/CHEMBL194762.json
p2247
sg9
F-4.4308167988433134
sg10
VCHEMBL194762
p2248
sg12
I1
sbag2
(g3
g4
NtRp2249
(dp2250
g7
Vhttp://www.ebi.ac.uk/chemblws/compounds/CHEMBL188051.json
p2251
sg9
F-1.791759469228055
sg10
VCHEMBL188051
p2252
sg12
I1
sbag2
(g3
g4
NtRp2253
(dp2254
g7
Vhttp://www.ebi.ac.uk/chemblws/compounds/CHEMBL420017.json
p2255
sg9
F-2.2512917986064953
sg10
VCHEMBL420017
p2256
sg12
I1
sbag2
(g3
g4
NtRp2257
(dp2258
g7
Vhttp://www.ebi.ac.uk/chemblws/compounds/CHEMBL184367.json
p2259
sg9
F0.51082562376599072
sg10
VCHEMBL184367
p2260
sg12
I1
sbag2
(g3
g4
NtRp2261
(dp2262
g7
Vhttp://www.ebi.ac.uk/chemblws/compounds/CHEMBL356693.json
p2263
sg9
F-6.2146080984221914
sg10
VCHEMBL356693
p2264
sg12
I1
sbag2
(g3
g4
NtRp2265
(dp2266
g7
Vhttp://www.ebi.ac.uk/chemblws/compounds/CHEMBL1702774.json
p2267
sg9
F-6.444131256700441
sg10
VCHEMBL1702774
p2268
sg12
I1
sbag2
(g3
g4
NtRp2269
(dp2270
g7
Vhttp://www.ebi.ac.uk/chemblws/compounds/CHEMBL149791.json
p2271
sg9
F-2.7080502011022101
sg10
VCHEMBL149791
p2272
sg12
I1
sbag2
(g3
g4
NtRp2273
(dp2274
g7
Vhttp://www.ebi.ac.uk/chemblws/compounds/CHEMBL372029.json
p2275
sg9
F-4.6821312271242199
sg10
VCHEMBL372029
p2276
sg12
I1
sbag2
(g3
g4
NtRp2277
(dp2278
g7
Vhttp://www.ebi.ac.uk/chemblws/compounds/CHEMBL370282.json
p2279
sg9
F-2.3025850929940459
sg10
VCHEMBL370282
p2280
sg12
I1
sbag2
(g3
g4
NtRp2281
(dp2282
g7
Vhttp://www.ebi.ac.uk/chemblws/compounds/CHEMBL180702.json
p2283
sg9
F-1.0079579203999789
sg10
VCHEMBL180702
p2284
sg12
I1
sbag2
(g3
g4
NtRp2285
(dp2286
g7
Vhttp://www.ebi.ac.uk/chemblws/compounds/CHEMBL103650.json
p2287
sg9
F-5.6524891802686508
sg10
VCHEMBL103650
p2288
sg12
I1
sbag2
(g3
g4
NtRp2289
(dp2290
g7
Vhttp://www.ebi.ac.uk/chemblws/compounds/CHEMBL181936.json
p2291
sg9
F-0.40546510810816438
sg10
VCHEMBL181936
p2292
sg12
I1
sbag2
(g3
g4
NtRp2293
(dp2294
g7
Vhttp://www.ebi.ac.uk/chemblws/compounds/CHEMBL183782.json
p2295
sg9
F-0.40546510810816438
sg10
VCHEMBL183782
p2296
sg12
I1
sbag2
(g3
g4
NtRp2297
(dp2298
g7
Vhttp://www.ebi.ac.uk/chemblws/compounds/CHEMBL187673.json
p2299
sg9
F-6.804614520062624
sg10
VCHEMBL187673
p2300
sg12
I1
sbag2
(g3
g4
NtRp2301
(dp2302
g7
Vhttp://www.ebi.ac.uk/chemblws/compounds/CHEMBL421368.json
p2303
sg9
F-4.7874917427820458
sg10
VCHEMBL421368
p2304
sg12
I1
sbag2
(g3
g4
NtRp2305
(dp2306
g7
Vhttp://www.ebi.ac.uk/chemblws/compounds/CHEMBL98470.json
p2307
sg9
F-3.7830526241311859
sg10
VCHEMBL98470
p2308
sg12
I1
sbag2
(g3
g4
NtRp2309
(dp2310
g7
Vhttp://www.ebi.ac.uk/chemblws/compounds/CHEMBL197757.json
p2311
sg9
F-5.9532433342877846
sg10
VCHEMBL197757
p2312
sg12
I1
sbag2
(g3
g4
NtRp2313
(dp2314
g7
Vhttp://www.ebi.ac.uk/chemblws/compounds/CHEMBL191715.json
p2315
sg9
F-6.0913098820776979
sg10
VCHEMBL191715
p2316
sg12
I1
sbag2
(g3
g4
NtRp2317
(dp2318
g7
Vhttp://www.ebi.ac.uk/chemblws/compounds/CHEMBL122208.json
p2319
sg9
F0.35667494393873245
sg10
VCHEMBL122208
p2320
sg12
I1
sbag2
(g3
g4
NtRp2321
(dp2322
g7
Vhttp://www.ebi.ac.uk/chemblws/compounds/CHEMBL153395.json
p2323
sg9
F-6.3368257311464413
sg10
VCHEMBL153395
p2324
sg12
I1
sbag2
(g3
g4
NtRp2325
(dp2326
g7
Vhttp://www.ebi.ac.uk/chemblws/compounds/CHEMBL195289.json
p2327
sg9
F-3.2958368660043291
sg10
VCHEMBL195289
p2328
sg12
I1
sbag2
(g3
g4
NtRp2329
(dp2330
g7
Vhttp://www.ebi.ac.uk/chemblws/compounds/CHEMBL33899.json
p2331
sg9
F-3.6635616461296463
sg10
VCHEMBL33899
p2332
sg12
I1
sbag2
(g3
g4
NtRp2333
(dp2334
g7
Vhttp://www.ebi.ac.uk/chemblws/compounds/CHEMBL93230.json
p2335
sg9
F-1.7227665977411035
sg10
VCHEMBL93230
p2336
sg12
I1
sbag2
(g3
g4
NtRp2337
(dp2338
g7
Vhttp://www.ebi.ac.uk/chemblws/compounds/CHEMBL1475434.json
p2339
sg9
F-5.857933154483459
sg10
VCHEMBL1475434
p2340
sg12
I1
sbag2
(g3
g4
NtRp2341
(dp2342
g7
Vhttp://www.ebi.ac.uk/chemblws/compounds/CHEMBL1552932.json
p2343
sg9
F-5.1357984370502621
sg10
VCHEMBL1552932
p2344
sg12
I1
sbag2
(g3
g4
NtRp2345
(dp2346
g7
Vhttp://www.ebi.ac.uk/chemblws/compounds/CHEMBL1593653.json
p2347
sg9
F-4.499809670330265
sg10
VCHEMBL1593653
p2348
sg12
I1
sbag2
(g3
g4
NtRp2349
(dp2350
g7
Vhttp://www.ebi.ac.uk/chemblws/compounds/CHEMBL192390.json
p2351
sg9
F-4.0073331852324712
sg10
VCHEMBL192390
p2352
sg12
I1
sbag2
(g3
g4
NtRp2353
(dp2354
g7
Vhttp://www.ebi.ac.uk/chemblws/compounds/CHEMBL340606.json
p2355
sg9
F-1.2809338454620642
sg10
VCHEMBL340606
p2356
sg12
I1
sbag2
(g3
g4
NtRp2357
(dp2358
g7
Vhttp://www.ebi.ac.uk/chemblws/compounds/CHEMBL195280.json
p2359
sg9
F-5.7430031878094825
sg10
VCHEMBL195280
p2360
sg12
I1
sbag2
(g3
g4
NtRp2361
(dp2362
g7
Vhttp://www.ebi.ac.uk/chemblws/compounds/CHEMBL191646.json
p2363
sg9
F-5.1761497325738288
sg10
VCHEMBL191646
p2364
sg12
I1
sbag2
(g3
g4
NtRp2365
(dp2366
g7
Vhttp://www.ebi.ac.uk/chemblws/compounds/CHEMBL193482.json
p2367
sg9
F-0.52472852893498212
sg10
VCHEMBL193482
p2368
sg12
I1
sbag2
(g3
g4
NtRp2369
(dp2370
g7
Vhttp://www.ebi.ac.uk/chemblws/compounds/CHEMBL539927.json
p2371
sg9
F-2.8332133440562162
sg10
VCHEMBL539927
p2372
sg12
I1
sbag2
(g3
g4
NtRp2373
(dp2374
g7
Vhttp://www.ebi.ac.uk/chemblws/compounds/CHEMBL125362.json
p2375
sg9
F-1.3862943611198906
sg10
VCHEMBL125362
p2376
sg12
I1
sbag2
(g3
g4
NtRp2377
(dp2378
g7
Vhttp://www.ebi.ac.uk/chemblws/compounds/CHEMBL1087557.json
p2379
sg9
F-0.96698384618967315
sg10
VCHEMBL1087557
p2380
sg12
I1
sbag2
(g3
g4
NtRp2381
(dp2382
g7
Vhttp://www.ebi.ac.uk/chemblws/compounds/CHEMBL1087683.json
p2383
sg9
F-5.7365722974791922
sg10
VCHEMBL1087683
p2384
sg12
I1
sbag2
(g3
g4
NtRp2385
(dp2386
g7
Vhttp://www.ebi.ac.uk/chemblws/compounds/CHEMBL551269.json
p2387
sg9
F-6.9077552789821368
sg10
VCHEMBL551269
p2388
sg12
I1
sbag2
(g3
g4
NtRp2389
(dp2390
g7
Vhttp://www.ebi.ac.uk/chemblws/compounds/CHEMBL190682.json
p2391
sg9
F-3.8501476017100584
sg10
VCHEMBL190682
p2392
sg12
I1
sbag2
(g3
g4
NtRp2393
(dp2394
g7
Vhttp://www.ebi.ac.uk/chemblws/compounds/CHEMBL1087812.json
p2395
sg9
F-2.3025850929940459
sg10
VCHEMBL1087812
p2396
sg12
I1
sbag2
(g3
g4
NtRp2397
(dp2398
g7
Vhttp://www.ebi.ac.uk/chemblws/compounds/CHEMBL1083178.json
p2399
sg9
F-0.18232155679395459
sg10
VCHEMBL1083178
p2400
sg12
I1
sbag2
(g3
g4
NtRp2401
(dp2402
g7
Vhttp://www.ebi.ac.uk/chemblws/compounds/CHEMBL1083179.json
p2403
sg9
F-4.7095302013123339
sg10
VCHEMBL1083179
p2404
sg12
I1
sbag2
(g3
g4
NtRp2405
(dp2406
g7
Vhttp://www.ebi.ac.uk/chemblws/compounds/CHEMBL1083497.json
p2407
sg9
F-6.9077552789821368
sg10
VCHEMBL1083497
p2408
sg12
I1
sbag2
(g3
g4
NtRp2409
(dp2410
g7
Vhttp://www.ebi.ac.uk/chemblws/compounds/CHEMBL363872.json
p2411
sg9
F-1.6486586255873816
sg10
VCHEMBL363872
p2412
sg12
I1
sbag2
(g3
g4
NtRp2413
(dp2414
g7
Vhttp://www.ebi.ac.uk/chemblws/compounds/CHEMBL184421.json
p2415
sg9
F0.51082562376599072
sg10
VCHEMBL184421
p2416
sg12
I1
sbag2
(g3
g4
NtRp2417
(dp2418
g7
Vhttp://www.ebi.ac.uk/chemblws/compounds/CHEMBL185383.json
p2419
sg9
F-0.69314718055994529
sg10
VCHEMBL185383
p2420
sg12
I1
sbag2
(g3
g4
NtRp2421
(dp2422
g7
Vhttp://www.ebi.ac.uk/chemblws/compounds/CHEMBL362623.json
p2423
sg9
F-0.95551144502743635
sg10
VCHEMBL362623
p2424
sg12
I1
sbag2
(g3
g4
NtRp2425
(dp2426
g7
Vhttp://www.ebi.ac.uk/chemblws/compounds/CHEMBL226329.json
p2427
sg9
F-2.9601050959108397
sg10
VCHEMBL226329
p2428
sg12
I1
sbag2
(g3
g4
NtRp2429
(dp2430
g7
Vhttp://www.ebi.ac.uk/chemblws/compounds/CHEMBL200799.json
p2431
sg9
F-5.9989365619466826
sg10
VCHEMBL200799
p2432
sg12
I1
sbag2
(g3
g4
NtRp2433
(dp2434
g7
Vhttp://www.ebi.ac.uk/chemblws/compounds/CHEMBL371012.json
p2435
sg9
F-3.1780538303479458
sg10
VCHEMBL371012
p2436
sg12
I1
sbag2
(g3
g4
NtRp2437
(dp2438
g7
Vhttp://www.ebi.ac.uk/chemblws/compounds/CHEMBL426849.json
p2439
sg9
F-5.4595855141441589
sg10
VCHEMBL426849
p2440
sg12
I1
sbag2
(g3
g4
NtRp2441
(dp2442
g7
Vhttp://www.ebi.ac.uk/chemblws/compounds/CHEMBL202248.json
p2443
sg9
F-4.499809670330265
sg10
VCHEMBL202248
p2444
sg12
I1
sbag2
(g3
g4
NtRp2445
(dp2446
g7
Vhttp://www.ebi.ac.uk/chemblws/compounds/CHEMBL212418.json
p2447
sg9
F-6.1202974189509503
sg10
VCHEMBL212418
p2448
sg12
I1
sbag2
(g3
g4
NtRp2449
(dp2450
g7
Vhttp://www.ebi.ac.uk/chemblws/compounds/CHEMBL362356.json
p2451
sg9
F-6.1398845522262553
sg10
VCHEMBL362356
p2452
sg12
I1
sbag2
(g3
g4
NtRp2453
(dp2454
g7
Vhttp://www.ebi.ac.uk/chemblws/compounds/CHEMBL511971.json
p2455
sg9
F-1.8718021769015913
sg10
VCHEMBL511971
p2456
sg12
I1
sbag2
(g3
g4
NtRp2457
(dp2458
g7
Vhttp://www.ebi.ac.uk/chemblws/compounds/CHEMBL1085669.json
p2459
sg9
F-1.6863989535702288
sg10
VCHEMBL1085669
p2460
sg12
I1
sbag2
(g3
g4
NtRp2461
(dp2462
g7
Vhttp://www.ebi.ac.uk/chemblws/compounds/CHEMBL1085899.json
p2463
sg9
F-1.7227665977411035
sg10
VCHEMBL1085899
p2464
sg12
I1
sbag2
(g3
g4
NtRp2465
(dp2466
g7
Vhttp://www.ebi.ac.uk/chemblws/compounds/CHEMBL364419.json
p2467
sg9
F-5.5721540321777647
sg10
VCHEMBL364419
p2468
sg12
I1
sbag2
(g3
g4
NtRp2469
(dp2470
g7
Vhttp://www.ebi.ac.uk/chemblws/compounds/CHEMBL91807.json
p2471
sg9
F-1.2809338454620642
sg10
VCHEMBL91807
p2472
sg12
I1
sbag2
(g3
g4
NtRp2473
(dp2474
g7
Vhttp://www.ebi.ac.uk/chemblws/compounds/CHEMBL202624.json
p2475
sg9
F-3.2580965380214821
sg10
VCHEMBL202624
p2476
sg12
I1
sbag2
(g3
g4
NtRp2477
(dp2478
g7
Vhttp://www.ebi.ac.uk/chemblws/compounds/CHEMBL372997.json
p2479
sg9
F-4.0943445622221004
sg10
VCHEMBL372997
p2480
sg12
I1
sbag2
(g3
g4
NtRp2481
(dp2482
g7
Vhttp://www.ebi.ac.uk/chemblws/compounds/CHEMBL183044.json
p2483
sg9
F-1.8405496333974869
sg10
VCHEMBL183044
p2484
sg12
I1
sbag2
(g3
g4
NtRp2485
(dp2486
g7
Vhttp://www.ebi.ac.uk/chemblws/compounds/CHEMBL198803.json
p2487
sg9
F1.6094379124341003
sg10
VCHEMBL198803
p2488
sg12
I1
sbag2
(g3
g4
NtRp2489
(dp2490
g7
Vhttp://www.ebi.ac.uk/chemblws/compounds/CHEMBL214091.json
p2491
sg9
F-2.6390573296152584
sg10
VCHEMBL214091
p2492
sg12
I1
sbag2
(g3
g4
NtRp2493
(dp2494
g7
Vhttp://www.ebi.ac.uk/chemblws/compounds/CHEMBL214972.json
p2495
sg9
F-5.393627546352362
sg10
VCHEMBL214972
p2496
sg12
I1
sbag2
(g3
g4
NtRp2497
(dp2498
g7
Vhttp://www.ebi.ac.uk/chemblws/compounds/CHEMBL90072.json
p2499
sg9
F-2.6946271807700692
sg10
VCHEMBL90072
p2500
sg12
I1
sbag2
(g3
g4
NtRp2501
(dp2502
g7
Vhttp://www.ebi.ac.uk/chemblws/compounds/CHEMBL188957.json
p2503
sg9
F-5.9661467391236922
sg10
VCHEMBL188957
p2504
sg12
I1
sbag2
(g3
g4
NtRp2505
(dp2506
g7
Vhttp://www.ebi.ac.uk/chemblws/compounds/CHEMBL209851.json
p2507
sg9
F-4.9487598903781684
sg10
VCHEMBL209851
p2508
sg12
I1
sbag2
(g3
g4
NtRp2509
(dp2510
g7
Vhttp://www.ebi.ac.uk/chemblws/compounds/CHEMBL381489.json
p2511
sg9
F-6.9077552789821368
sg10
VCHEMBL381489
p2512
sg12
I1
sbag2
(g3
g4
NtRp2513
(dp2514
g7
Vhttp://www.ebi.ac.uk/chemblws/compounds/CHEMBL204697.json
p2515
sg9
F-3.2188758248682006
sg10
VCHEMBL204697
p2516
sg12
I1
sbag2
(g3
g4
NtRp2517
(dp2518
g7
Vhttp://www.ebi.ac.uk/chemblws/compounds/CHEMBL211739.json
p2519
sg9
F-6.7799219074722519
sg10
VCHEMBL211739
p2520
sg12
I1
sbag2
(g3
g4
NtRp2521
(dp2522
g7
Vhttp://www.ebi.ac.uk/chemblws/compounds/CHEMBL213529.json
p2523
sg9
F-6.4167322825123261
sg10
VCHEMBL213529
p2524
sg12
I1
sbag2
(g3
g4
NtRp2525
(dp2526
g7
Vhttp://www.ebi.ac.uk/chemblws/compounds/CHEMBL1082539.json
p2527
sg9
F-2.3978952727983707
sg10
VCHEMBL1082539
p2528
sg12
I1
sbag2
(g3
g4
NtRp2529
(dp2530
g7
Vhttp://www.ebi.ac.uk/chemblws/compounds/CHEMBL187219.json
p2531
sg9
F-3.1780538303479458
sg10
VCHEMBL187219
p2532
sg12
I1
sbag2
(g3
g4
NtRp2533
(dp2534
g7
Vhttp://www.ebi.ac.uk/chemblws/compounds/CHEMBL394357.json
p2535
sg9
F-2.9957322735539909
sg10
VCHEMBL394357
p2536
sg12
I1
sbag2
(g3
g4
NtRp2537
(dp2538
g7
Vhttp://www.ebi.ac.uk/chemblws/compounds/CHEMBL242818.json
p2539
sg9
F-6.6871086078665147
sg10
VCHEMBL242818
p2540
sg12
I1
sbag2
(g3
g4
NtRp2541
(dp2542
g7
Vhttp://www.ebi.ac.uk/chemblws/compounds/CHEMBL94170.json
p2543
sg9
F-5.8345182966452551
sg10
VCHEMBL94170
p2544
sg12
I1
sbag2
(g3
g4
NtRp2545
(dp2546
g7
Vhttp://www.ebi.ac.uk/chemblws/compounds/CHEMBL106773.json
p2547
sg9
F-6.2146080984221914
sg10
VCHEMBL106773
p2548
sg12
I1
sbag2
(g3
g4
NtRp2549
(dp2550
g7
Vhttp://www.ebi.ac.uk/chemblws/compounds/CHEMBL192000.json
p2551
sg9
F-4.5643481914678361
sg10
VCHEMBL192000
p2552
sg12
I1
sbag2
(g3
g4
NtRp2553
(dp2554
g7
Vhttp://www.ebi.ac.uk/chemblws/compounds/CHEMBL329630.json
p2555
sg9
F-5.4595855141441589
sg10
VCHEMBL329630
p2556
sg12
I1
sbag2
(g3
g4
NtRp2557
(dp2558
g7
Vhttp://www.ebi.ac.uk/chemblws/compounds/CHEMBL432454.json
p2559
sg9
F-5.1474944768134527
sg10
VCHEMBL432454
p2560
sg12
I1
sbag2
(g3
g4
NtRp2561
(dp2562
g7
Vhttp://www.ebi.ac.uk/chemblws/compounds/CHEMBL184491.json
p2563
sg9
F-0.78845736036427028
sg10
VCHEMBL184491
p2564
sg12
I1
sbag2
(g3
g4
NtRp2565
(dp2566
g7
Vhttp://www.ebi.ac.uk/chemblws/compounds/CHEMBL393982.json
p2567
sg9
F-2.2082744135228043
sg10
VCHEMBL393982
p2568
sg12
I1
sbag2
(g3
g4
NtRp2569
(dp2570
g7
Vhttp://www.ebi.ac.uk/chemblws/compounds/CHEMBL240438.json
p2571
sg9
F-0.69314718055994529
sg10
VCHEMBL240438
p2572
sg12
I1
sbag2
(g3
g4
NtRp2573
(dp2574
g7
Vhttp://www.ebi.ac.uk/chemblws/compounds/CHEMBL188246.json
p2575
sg9
F-6.2363695902037044
sg10
VCHEMBL188246
p2576
sg12
I1
sbag2
(g3
g4
NtRp2577
(dp2578
g7
Vhttp://www.ebi.ac.uk/chemblws/compounds/CHEMBL346455.json
p2579
sg9
F-4.3820266346738812
sg10
VCHEMBL346455
p2580
sg12
I1
sbag2
(g3
g4
NtRp2581
(dp2582
g7
Vhttp://www.ebi.ac.uk/chemblws/compounds/CHEMBL377254.json
p2583
sg9
F-4.9344739331306915
sg10
VCHEMBL377254
p2584
sg12
I1
sbag2
(g3
g4
NtRp2585
(dp2586
g7
Vhttp://www.ebi.ac.uk/chemblws/compounds/CHEMBL213829.json
p2587
sg9
F-3.1354942159291497
sg10
VCHEMBL213829
p2588
sg12
I1
sbag2
(g3
g4
NtRp2589
(dp2590
g7
Vhttp://www.ebi.ac.uk/chemblws/compounds/CHEMBL455215.json
p2591
sg9
F-6.678342114654332
sg10
VCHEMBL455215
p2592
sg12
I1
sbag2
(g3
g4
NtRp2593
(dp2594
g7
Vhttp://www.ebi.ac.uk/chemblws/compounds/CHEMBL364492.json
p2595
sg9
F-4.4188406077965983
sg10
VCHEMBL364492
p2596
sg12
I1
sbag2
(g3
g4
NtRp2597
(dp2598
g7
Vhttp://www.ebi.ac.uk/chemblws/compounds/CHEMBL469510.json
p2599
sg9
F-2.33214389523559
sg10
VCHEMBL469510
p2600
sg12
I1
sbag2
(g3
g4
NtRp2601
(dp2602
g7
Vhttp://www.ebi.ac.uk/chemblws/compounds/CHEMBL368688.json
p2603
sg9
F0.10536051565782628
sg10
VCHEMBL368688
p2604
sg12
I1
sbag2
(g3
g4
NtRp2605
(dp2606
g7
Vhttp://www.ebi.ac.uk/chemblws/compounds/CHEMBL1087546.json
p2607
sg9
F-3.0910424533583161
sg10
VCHEMBL1087546
p2608
sg12
I1
sbag2
(g3
g4
NtRp2609
(dp2610
g7
Vhttp://www.ebi.ac.uk/chemblws/compounds/CHEMBL92027.json
p2611
sg9
F-1.547562508716013
sg10
VCHEMBL92027
p2612
sg12
I1
sbag2
(g3
g4
NtRp2613
(dp2614
g7
Vhttp://www.ebi.ac.uk/chemblws/compounds/CHEMBL125119.json
p2615
sg9
F-0.53062825106217038
sg10
VCHEMBL125119
p2616
sg12
I1
sbag2
(g3
g4
NtRp2617
(dp2618
g7
Vhttp://www.ebi.ac.uk/chemblws/compounds/CHEMBL414859.json
p2619
sg9
F-6.3681871863504922
sg10
VCHEMBL414859
p2620
sg12
I1
sbag2
(g3
g4
NtRp2621
(dp2622
g7
Vhttp://www.ebi.ac.uk/chemblws/compounds/CHEMBL46903.json
p2623
sg9
F-3.2188758248682006
sg10
VCHEMBL46903
p2624
sg12
I1
sbag2
(g3
g4
NtRp2625
(dp2626
g7
Vhttp://www.ebi.ac.uk/chemblws/compounds/CHEMBL195311.json
p2627
sg9
F-2.3025850929940459
sg10
VCHEMBL195311
p2628
sg12
I1
sbag2
(g3
g4
NtRp2629
(dp2630
g7
Vhttp://www.ebi.ac.uk/chemblws/compounds/CHEMBL1455849.json
p2631
sg9
F-6.7334018918373593
sg10
VCHEMBL1455849
p2632
sg12
I1
sbag2
(g3
g4
NtRp2633
(dp2634
g7
Vhttp://www.ebi.ac.uk/chemblws/compounds/CHEMBL1356953.json
p2635
sg9
F-4.3820266346738812
sg10
VCHEMBL1356953
p2636
sg12
I1
sbag2
(g3
g4
NtRp2637
(dp2638
g7
Vhttp://www.ebi.ac.uk/chemblws/compounds/CHEMBL1097284.json
p2639
sg9
F-5.8324395068644632
sg10
VCHEMBL1097284
p2640
sg12
I1
sbag2
(g3
g4
NtRp2641
(dp2642
g7
Vhttp://www.ebi.ac.uk/chemblws/compounds/CHEMBL426897.json
p2643
sg9
F-3.6888794541139363
sg10
VCHEMBL426897
p2644
sg12
I1
sbag2
(g3
g4
NtRp2645
(dp2646
g7
Vhttp://www.ebi.ac.uk/chemblws/compounds/CHEMBL386502.json
p2647
sg9
F-1.0986122886681098
sg10
VCHEMBL386502
p2648
sg12
I1
sbag2
(g3
g4
NtRp2649
(dp2650
g7
Vhttp://www.ebi.ac.uk/chemblws/compounds/CHEMBL223026.json
p2651
sg9
F-3.8712010109078911
sg10
VCHEMBL223026
p2652
sg12
I1
sbag2
(g3
g4
NtRp2653
(dp2654
g7
Vhttp://www.ebi.ac.uk/chemblws/compounds/CHEMBL91452.json
p2655
sg9
F-5.9532433342877846
sg10
VCHEMBL91452
p2656
sg12
I1
sbag2
(g3
g4
NtRp2657
(dp2658
g7
Vhttp://www.ebi.ac.uk/chemblws/compounds/CHEMBL144897.json
p2659
sg9
F-3.1780538303479458
sg10
VCHEMBL144897
p2660
sg12
I1
sbag2
(g3
g4
NtRp2661
(dp2662
g7
Vhttp://www.ebi.ac.uk/chemblws/compounds/CHEMBL433769.json
p2663
sg9
F1.2039728043259361
sg10
VCHEMBL433769
p2664
sg12
I1
sbag2
(g3
g4
NtRp2665
(dp2666
g7
Vhttp://www.ebi.ac.uk/chemblws/compounds/CHEMBL282292.json
p2667
sg9
F-4.4886363697321396
sg10
VCHEMBL282292
p2668
sg12
I1
sbag2
(g3
g4
NtRp2669
(dp2670
g7
Vhttp://www.ebi.ac.uk/chemblws/compounds/CHEMBL179852.json
p2671
sg9
F0.35667494393873245
sg10
VCHEMBL179852
p2672
sg12
I1
sbag2
(g3
g4
NtRp2673
(dp2674
g7
Vhttp://www.ebi.ac.uk/chemblws/compounds/CHEMBL286115.json
p2675
sg9
F-3.4339872044851463
sg10
VCHEMBL286115
p2676
sg12
I1
sbag2
(g3
g4
NtRp2677
(dp2678
g7
Vhttp://www.ebi.ac.uk/chemblws/compounds/CHEMBL327515.json
p2679
sg9
F-3.4330189939851112
sg10
VCHEMBL327515
p2680
sg12
I1
sbag2
(g3
g4
NtRp2681
(dp2682
g7
Vhttp://www.ebi.ac.uk/chemblws/compounds/CHEMBL315866.json
p2683
sg9
F-1.9021075263969205
sg10
VCHEMBL315866
p2684
sg12
I1
sbag2
(g3
g4
NtRp2685
(dp2686
g7
Vhttp://www.ebi.ac.uk/chemblws/compounds/CHEMBL183033.json
p2687
sg9
F-6.8977049431286357
sg10
VCHEMBL183033
p2688
sg12
I1
sbag2
(g3
g4
NtRp2689
(dp2690
g7
Vhttp://www.ebi.ac.uk/chemblws/compounds/CHEMBL190025.json
p2691
sg9
F-6.363028103540465
sg10
VCHEMBL190025
p2692
sg12
I1
sbag2
(g3
g4
NtRp2693
(dp2694
g7
Vhttp://www.ebi.ac.uk/chemblws/compounds/CHEMBL198088.json
p2695
sg9
F-6.6631326959908028
sg10
VCHEMBL198088
p2696
sg12
I1
sbag2
(g3
g4
NtRp2697
(dp2698
g7
Vhttp://www.ebi.ac.uk/chemblws/compounds/CHEMBL30769.json
p2699
sg9
F-6.3117348091529148
sg10
VCHEMBL30769
p2700
sg12
I1
sbag2
(g3
g4
NtRp2701
(dp2702
g7
Vhttp://www.ebi.ac.uk/chemblws/compounds/CHEMBL180792.json
p2703
sg9
F-0.53062825106217038
sg10
VCHEMBL180792
p2704
sg12
I1
sbag2
(g3
g4
NtRp2705
(dp2706
g7
Vhttp://www.ebi.ac.uk/chemblws/compounds/CHEMBL369724.json
p2707
sg9
F-0.87546873735389985
sg10
VCHEMBL369724
p2708
sg12
I1
sbag2
(g3
g4
NtRp2709
(dp2710
g7
Vhttp://www.ebi.ac.uk/chemblws/compounds/CHEMBL100231.json
p2711
sg9
F-4.2621163380013236
sg10
VCHEMBL100231
p2712
sg12
I1
sbag2
(g3
g4
NtRp2713
(dp2714
g7
Vhttp://www.ebi.ac.uk/chemblws/compounds/CHEMBL195217.json
p2715
sg9
F-5.4380793089231956
sg10
VCHEMBL195217
p2716
sg12
I1
sbag2
(g3
g4
NtRp2717
(dp2718
g7
Vhttp://www.ebi.ac.uk/chemblws/compounds/CHEMBL420611.json
p2719
sg9
F-2.4765384001174837
sg10
VCHEMBL420611
p2720
sg12
I1
sbag2
(g3
g4
NtRp2721
(dp2722
g7
Vhttp://www.ebi.ac.uk/chemblws/compounds/CHEMBL1434556.json
p2723
sg9
F-3.4011973816621555
sg10
VCHEMBL1434556
p2724
sg12
I1
sbag2
(g3
g4
NtRp2725
(dp2726
g7
Vhttp://www.ebi.ac.uk/chemblws/compounds/CHEMBL1414407.json
p2727
sg9
F-3.912023005428146
sg10
VCHEMBL1414407
p2728
sg12
I1
sbag2
(g3
g4
NtRp2729
(dp2730
g7
Vhttp://www.ebi.ac.uk/chemblws/compounds/CHEMBL282575.json
p2731
sg9
F-4.1743872698956368
sg10
VCHEMBL282575
p2732
sg12
I1
sbag2
(g3
g4
NtRp2733
(dp2734
g7
Vhttp://www.ebi.ac.uk/chemblws/compounds/CHEMBL361056.json
p2735
sg9
F-0.26236426446749106
sg10
VCHEMBL361056
p2736
sg12
I1
sbag2
(g3
g4
NtRp2737
(dp2738
g7
Vhttp://www.ebi.ac.uk/chemblws/compounds/CHEMBL313825.json
p2739
sg9
F-1.9459101490553132
sg10
VCHEMBL313825
p2740
sg12
I1
sbag2
(g3
g4
NtRp2741
(dp2742
g7
Vhttp://www.ebi.ac.uk/chemblws/compounds/CHEMBL83623.json
p2743
sg9
F-2.174751721484161
sg10
VCHEMBL83623
p2744
sg12
I1
sbag2
(g3
g4
NtRp2745
(dp2746
g7
Vhttp://www.ebi.ac.uk/chemblws/compounds/CHEMBL188516.json
p2747
sg9
F-6.6957989170584913
sg10
VCHEMBL188516
p2748
sg12
I1
sbag2
(g3
g4
NtRp2749
(dp2750
g7
Vhttp://www.ebi.ac.uk/chemblws/compounds/CHEMBL183263.json
p2751
sg9
F0.35667494393873245
sg10
VCHEMBL183263
p2752
sg12
I1
sbag2
(g3
g4
NtRp2753
(dp2754
g7
Vhttp://www.ebi.ac.uk/chemblws/compounds/CHEMBL178334.json
p2755
sg9
F1.2729656758128873
sg10
VCHEMBL178334
p2756
sg12
I1
sbag2
(g3
g4
NtRp2757
(dp2758
g7
Vhttp://www.ebi.ac.uk/chemblws/compounds/CHEMBL187311.json
p2759
sg9
F-3.784189633918261
sg10
VCHEMBL187311
p2760
sg12
I1
sbag2
(g3
g4
NtRp2761
(dp2762
g7
Vhttp://www.ebi.ac.uk/chemblws/compounds/CHEMBL419110.json
p2763
sg9
F-2.3978952727983707
sg10
VCHEMBL419110
p2764
sg12
I1
sbag2
(g3
g4
NtRp2765
(dp2766
g7
Vhttp://www.ebi.ac.uk/chemblws/compounds/CHEMBL319678.json
p2767
sg9
F-4.1907147860417941
sg10
VCHEMBL319678
p2768
sg12
I1
sbag2
(g3
g4
NtRp2769
(dp2770
g7
Vhttp://www.ebi.ac.uk/chemblws/compounds/CHEMBL182157.json
p2771
sg9
F-1.3711807233098425
sg10
VCHEMBL182157
p2772
sg12
I1
sbag2
(g3
g4
NtRp2773
(dp2774
g7
Vhttp://www.ebi.ac.uk/chemblws/compounds/CHEMBL267385.json
p2775
sg9
F-0
sg10
VCHEMBL267385
p2776
sg12
I1
sbag2
(g3
g4
NtRp2777
(dp2778
g7
Vhttp://www.ebi.ac.uk/chemblws/compounds/CHEMBL489.json
p2779
sg9
F-0.69314718055994529
sg10
VCHEMBL489
p2780
sg12
I1
sbag2
(g3
g4
NtRp2781
(dp2782
g7
Vhttp://www.ebi.ac.uk/chemblws/compounds/CHEMBL192260.json
p2783
sg9
F-3.5553480614894135
sg10
VCHEMBL192260
p2784
sg12
I1
sbag2
(g3
g4
NtRp2785
(dp2786
g7
Vhttp://www.ebi.ac.uk/chemblws/compounds/CHEMBL100595.json
p2787
sg9
F-3.8292933578291501
sg10
VCHEMBL100595
p2788
sg12
I1
sbag2
(g3
g4
NtRp2789
(dp2790
g7
Vhttp://www.ebi.ac.uk/chemblws/compounds/CHEMBL183467.json
p2791
sg9
F0.916290731874155
sg10
VCHEMBL183467
p2792
sg12
I1
sbag2
(g3
g4
NtRp2793
(dp2794
g7
Vhttp://www.ebi.ac.uk/chemblws/compounds/CHEMBL329892.json
p2795
sg9
F-0
sg10
VCHEMBL329892
p2796
sg12
I1
sbag2
(g3
g4
NtRp2797
(dp2798
g7
Vhttp://www.ebi.ac.uk/chemblws/compounds/CHEMBL89995.json
p2799
sg9
F-3.9721769282478934
sg10
VCHEMBL89995
p2800
sg12
I1
sbag2
(g3
g4
NtRp2801
(dp2802
g7
Vhttp://www.ebi.ac.uk/chemblws/compounds/CHEMBL189556.json
p2803
sg9
F-6.0730445341004051
sg10
VCHEMBL189556
p2804
sg12
I1
sbag2
(g3
g4
NtRp2805
(dp2806
g7
Vhttp://www.ebi.ac.uk/chemblws/compounds/CHEMBL1231453.json
p2807
sg9
F-6.253828811575473
sg10
VCHEMBL1231453
p2808
sg12
I1
sbag2
(g3
g4
NtRp2809
(dp2810
g7
Vhttp://www.ebi.ac.uk/chemblws/compounds/CHEMBL207324.json
p2811
sg9
F0.49429632181478012
sg10
VCHEMBL207324
p2812
sg12
I1
sbag2
(g3
g4
NtRp2813
(dp2814
g7
Vhttp://www.ebi.ac.uk/chemblws/compounds/CHEMBL204376.json
p2815
sg9
F-5.521460917862246
sg10
VCHEMBL204376
p2816
sg12
I1
sbag2
(g3
g4
NtRp2817
(dp2818
g7
Vhttp://www.ebi.ac.uk/chemblws/compounds/CHEMBL460647.json
p2819
sg9
F-4.0430512678345503
sg10
VCHEMBL460647
p2820
sg12
I1
sbag2
(g3
g4
NtRp2821
(dp2822
g7
Vhttp://www.ebi.ac.uk/chemblws/compounds/CHEMBL216334.json
p2823
sg9
F-5.3752784076841653
sg10
VCHEMBL216334
p2824
sg12
I1
sbag2
(g3
g4
NtRp2825
(dp2826
g7
Vhttp://www.ebi.ac.uk/chemblws/compounds/CHEMBL385949.json
p2827
sg9
F-6.4723462945009009
sg10
VCHEMBL385949
p2828
sg12
I1
sbag2
(g3
g4
NtRp2829
(dp2830
g7
Vhttp://www.ebi.ac.uk/chemblws/compounds/CHEMBL378883.json
p2831
sg9
F-5.8636311755980968
sg10
VCHEMBL378883
p2832
sg12
I1
sbag2
(g3
g4
NtRp2833
(dp2834
g7
Vhttp://www.ebi.ac.uk/chemblws/compounds/CHEMBL215428.json
p2835
sg9
F-4.3944491546724391
sg10
VCHEMBL215428
p2836
sg12
I1
sbag2
(g3
g4
NtRp2837
(dp2838
g7
Vhttp://www.ebi.ac.uk/chemblws/compounds/CHEMBL214692.json
p2839
sg9
F-3.5263605246161616
sg10
VCHEMBL214692
p2840
sg12
I1
sbag2
(g3
g4
NtRp2841
(dp2842
g7
Vhttp://www.ebi.ac.uk/chemblws/compounds/CHEMBL372783.json
p2843
sg9
F-5.3612921657094255
sg10
VCHEMBL372783
p2844
sg12
I1
sbag2
(g3
g4
NtRp2845
(dp2846
g7
Vhttp://www.ebi.ac.uk/chemblws/compounds/CHEMBL250110.json
p2847
sg9
F-4.7004803657924166
sg10
VCHEMBL250110
p2848
sg12
I1
sbag2
(g3
g4
NtRp2849
(dp2850
g7
Vhttp://www.ebi.ac.uk/chemblws/compounds/CHEMBL188299.json
p2851
sg9
F-6.1377270540862341
sg10
VCHEMBL188299
p2852
sg12
I1
sbag2
(g3
g4
NtRp2853
(dp2854
g7
Vhttp://www.ebi.ac.uk/chemblws/compounds/CHEMBL469511.json
p2855
sg9
F-2.1282317058492679
sg10
VCHEMBL469511
p2856
sg12
I1
sbag2
(g3
g4
NtRp2857
(dp2858
g7
Vhttp://www.ebi.ac.uk/chemblws/compounds/CHEMBL211953.json
p2859
sg9
F-5.4071717714601188
sg10
VCHEMBL211953
p2860
sg12
I1
sbag2
(g3
g4
NtRp2861
(dp2862
g7
Vhttp://www.ebi.ac.uk/chemblws/compounds/CHEMBL214034.json
p2863
sg9
F-5.5174528964647074
sg10
VCHEMBL214034
p2864
sg12
I1
sbag2
(g3
g4
NtRp2865
(dp2866
g7
Vhttp://www.ebi.ac.uk/chemblws/compounds/CHEMBL211666.json
p2867
sg9
F-5.4380793089231956
sg10
VCHEMBL211666
p2868
sg12
I1
sbag2
(g3
g4
NtRp2869
(dp2870
g7
Vhttp://www.ebi.ac.uk/chemblws/compounds/CHEMBL206500.json
p2871
sg9
F-5.43372200355424
sg10
VCHEMBL206500
p2872
sg12
I1
sbag2
(g3
g4
NtRp2873
(dp2874
g7
Vhttp://www.ebi.ac.uk/chemblws/compounds/CHEMBL206439.json
p2875
sg9
F-6.0753460310886842
sg10
VCHEMBL206439
p2876
sg12
I1
sbag2
(g3
g4
NtRp2877
(dp2878
g7
Vhttp://www.ebi.ac.uk/chemblws/compounds/CHEMBL10560.json
p2879
sg9
F-4.4886363697321396
sg10
VCHEMBL10560
p2880
sg12
I1
sbag2
(g3
g4
NtRp2881
(dp2882
g7
Vhttp://www.ebi.ac.uk/chemblws/compounds/CHEMBL1087290.json
p2883
sg9
F-6.9077552789821368
sg10
VCHEMBL1087290
p2884
sg12
I1
sbag2
(g3
g4
NtRp2885
(dp2886
g7
Vhttp://www.ebi.ac.uk/chemblws/compounds/CHEMBL1086774.json
p2887
sg9
F-0.87546873735389985
sg10
VCHEMBL1086774
p2888
sg12
I1
sbag2
(g3
g4
NtRp2889
(dp2890
g7
Vhttp://www.ebi.ac.uk/chemblws/compounds/CHEMBL1087040.json
p2891
sg9
F-5.0106352940962555
sg10
VCHEMBL1087040
p2892
sg12
I1
sbag2
(g3
g4
NtRp2893
(dp2894
g7
Vhttp://www.ebi.ac.uk/chemblws/compounds/CHEMBL1088337.json
p2895
sg9
F-1.824549292051046
sg10
VCHEMBL1088337
p2896
sg12
I1
sbag2
(g3
g4
NtRp2897
(dp2898
g7
Vhttp://www.ebi.ac.uk/chemblws/compounds/CHEMBL1088629.json
p2899
sg9
F-1.6094379124341003
sg10
VCHEMBL1088629
p2900
sg12
I1
sbag2
(g3
g4
NtRp2901
(dp2902
g7
Vhttp://www.ebi.ac.uk/chemblws/compounds/CHEMBL231810.json
p2903
sg9
F-4.9972122737641147
sg10
VCHEMBL231810
p2904
sg12
I1
sbag2
(g3
g4
NtRp2905
(dp2906
g7
Vhttp://www.ebi.ac.uk/chemblws/compounds/CHEMBL1088483.json
p2907
sg9
F-2.1972245773362196
sg10
VCHEMBL1088483
p2908
sg12
I1
sbag2
(g3
g4
NtRp2909
(dp2910
g7
Vhttp://www.ebi.ac.uk/chemblws/compounds/CHEMBL1222036.json
p2911
sg9
F-4.4067192472642533
sg10
VCHEMBL1222036
p2912
sg12
I1
sbag2
(g3
g4
NtRp2913
(dp2914
g7
Vhttp://www.ebi.ac.uk/chemblws/compounds/CHEMBL1082743.json
p2915
sg9
F-6.678342114654332
sg10
VCHEMBL1082743
p2916
sg12
I1
sbag2
(g3
g4
NtRp2917
(dp2918
g7
Vhttp://www.ebi.ac.uk/chemblws/compounds/CHEMBL192621.json
p2919
sg9
F-2.33214389523559
sg10
VCHEMBL192621
p2920
sg12
I1
sbag2
(g3
g4
NtRp2921
(dp2922
g7
Vhttp://www.ebi.ac.uk/chemblws/compounds/CHEMBL192586.json
p2923
sg9
F-2.1972245773362196
sg10
VCHEMBL192586
p2924
sg12
I1
sbag2
(g3
g4
NtRp2925
(dp2926
g7
Vhttp://www.ebi.ac.uk/chemblws/compounds/CHEMBL434577.json
p2927
sg9
F-3.912023005428146
sg10
VCHEMBL434577
p2928
sg12
I1
sbag2
(g3
g4
NtRp2929
(dp2930
g7
Vhttp://www.ebi.ac.uk/chemblws/compounds/CHEMBL384708.json
p2931
sg9
F-5.7365722974791922
sg10
VCHEMBL384708
p2932
sg12
I1
sbag2
(g3
g4
NtRp2933
(dp2934
g7
Vhttp://www.ebi.ac.uk/chemblws/compounds/CHEMBL221626.json
p2935
sg9
F-4.6539603501575231
sg10
VCHEMBL221626
p2936
sg12
I1
sbag2
(g3
g4
NtRp2937
(dp2938
g7
Vhttp://www.ebi.ac.uk/chemblws/compounds/CHEMBL222452.json
p2939
sg9
F-3.6888794541139363
sg10
VCHEMBL222452
p2940
sg12
I1
sbag2
(g3
g4
NtRp2941
(dp2942
g7
Vhttp://www.ebi.ac.uk/chemblws/compounds/CHEMBL219467.json
p2943
sg9
F-6.9077552789821368
sg10
VCHEMBL219467
p2944
sg12
I1
sbag2
(g3
g4
NtRp2945
(dp2946
g7
Vhttp://www.ebi.ac.uk/chemblws/compounds/CHEMBL592043.json
p2947
sg9
F-6.9077552789821368
sg10
VCHEMBL592043
p2948
sg12
I1
sbag2
(g3
g4
NtRp2949
(dp2950
g7
Vhttp://www.ebi.ac.uk/chemblws/compounds/CHEMBL1085668.json
p2951
sg9
F-2.3978952727983707
sg10
VCHEMBL1085668
p2952
sg12
I1
sbag2
(g3
g4
NtRp2953
(dp2954
g7
Vhttp://www.ebi.ac.uk/chemblws/compounds/CHEMBL1084922.json
p2955
sg9
F-2.1633230256605378
sg10
VCHEMBL1084922
p2956
sg12
I1
sbag2
(g3
g4
NtRp2957
(dp2958
g7
Vhttp://www.ebi.ac.uk/chemblws/compounds/CHEMBL205070.json
p2959
sg9
F-5.7137328055093688
sg10
VCHEMBL205070
p2960
sg12
I1
sbag2
(g3
g4
NtRp2961
(dp2962
g7
Vhttp://www.ebi.ac.uk/chemblws/compounds/CHEMBL203860.json
p2963
sg9
F-6.2146080984221914
sg10
VCHEMBL203860
p2964
sg12
I1
sbag2
(g3
g4
NtRp2965
(dp2966
g7
Vhttp://www.ebi.ac.uk/chemblws/compounds/CHEMBL372337.json
p2967
sg9
F0.51082562376599072
sg10
VCHEMBL372337
p2968
sg12
I1
sbag2
(g3
g4
NtRp2969
(dp2970
g7
Vhttp://www.ebi.ac.uk/chemblws/compounds/CHEMBL180995.json
p2971
sg9
F0.10536051565782628
sg10
VCHEMBL180995
p2972
sg12
I1
sbag2
(g3
g4
NtRp2973
(dp2974
g7
Vhttp://www.ebi.ac.uk/chemblws/compounds/CHEMBL203123.json
p2975
sg9
F-5.0562458053483077
sg10
VCHEMBL203123
p2976
sg12
I1
sbag2
(g3
g4
NtRp2977
(dp2978
g7
Vhttp://www.ebi.ac.uk/chemblws/compounds/CHEMBL381976.json
p2979
sg9
F-4.6913478822291435
sg10
VCHEMBL381976
p2980
sg12
I1
sbag2
(g3
g4
NtRp2981
(dp2982
g7
Vhttp://www.ebi.ac.uk/chemblws/compounds/CHEMBL201834.json
p2983
sg9
F-2.6390573296152584
sg10
VCHEMBL201834
p2984
sg12
I1
sbag2
(g3
g4
NtRp2985
(dp2986
g7
Vhttp://www.ebi.ac.uk/chemblws/compounds/CHEMBL213457.json
p2987
sg9
F-6.0867747269123065
sg10
VCHEMBL213457
p2988
sg12
I1
sbag2
(g3
g4
NtRp2989
(dp2990
g7
Vhttp://www.ebi.ac.uk/chemblws/compounds/CHEMBL211358.json
p2991
sg9
F-4.9416424226093039
sg10
VCHEMBL211358
p2992
sg12
I1
sbag2
(g3
g4
NtRp2993
(dp2994
g7
Vhttp://www.ebi.ac.uk/chemblws/compounds/CHEMBL214291.json
p2995
sg9
F-5.8289456176102075
sg10
VCHEMBL214291
p2996
sg12
I1
sbag2
(g3
g4
NtRp2997
(dp2998
g7
Vhttp://www.ebi.ac.uk/chemblws/compounds/CHEMBL424725.json
p2999
sg9
F-6.4297194780391376
sg10
VCHEMBL424725
p3000
sg12
I1
sbag2
(g3
g4
NtRp3001
(dp3002
g7
Vhttp://www.ebi.ac.uk/chemblws/compounds/CHEMBL210063.json
p3003
sg9
F-5.9401712527204316
sg10
VCHEMBL210063
p3004
sg12
I1
sbag2
(g3
g4
NtRp3005
(dp3006
g7
Vhttp://www.ebi.ac.uk/chemblws/compounds/CHEMBL385514.json
p3007
sg9
F-5.5606816310155276
sg10
VCHEMBL385514
p3008
sg12
I1
sbag2
(g3
g4
NtRp3009
(dp3010
g7
Vhttp://www.ebi.ac.uk/chemblws/compounds/CHEMBL240230.json
p3011
sg9
F-3.4339872044851463
sg10
VCHEMBL240230
p3012
sg12
I1
sbag2
(g3
g4
NtRp3013
(dp3014
g7
Vhttp://www.ebi.ac.uk/chemblws/compounds/CHEMBL394213.json
p3015
sg9
F-6.0867747269123065
sg10
VCHEMBL394213
p3016
sg12
I1
sbag2
(g3
g4
NtRp3017
(dp3018
g7
Vhttp://www.ebi.ac.uk/chemblws/compounds/CHEMBL193146.json
p3019
sg9
F-3.6888794541139363
sg10
VCHEMBL193146
p3020
sg12
I1
sbag2
(g3
g4
NtRp3021
(dp3022
g7
Vhttp://www.ebi.ac.uk/chemblws/compounds/CHEMBL191974.json
p3023
sg9
F-5.3518581334760666
sg10
VCHEMBL191974
p3024
sg12
I1
sbag2
(g3
g4
NtRp3025
(dp3026
g7
Vhttp://www.ebi.ac.uk/chemblws/compounds/CHEMBL309245.json
p3027
sg9
F-6.3189681137464344
sg10
VCHEMBL309245
p3028
sg12
I1
sbag2
(g3
g4
NtRp3029
(dp3030
g7
Vhttp://www.ebi.ac.uk/chemblws/compounds/CHEMBL193108.json
p3031
sg9
F-2.3025850929940459
sg10
VCHEMBL193108
p3032
sg12
I1
sbag2
(g3
g4
NtRp3033
(dp3034
g7
Vhttp://www.ebi.ac.uk/chemblws/compounds/CHEMBL182794.json
p3035
sg9
F0.69314718055994529
sg10
VCHEMBL182794
p3036
sg12
I1
sbag2
(g3
g4
NtRp3037
(dp3038
g7
Vhttp://www.ebi.ac.uk/chemblws/compounds/CHEMBL150461.json
p3039
sg9
F-3.4011973816621555
sg10
VCHEMBL150461
p3040
sg12
I1
sbag2
(g3
g4
NtRp3041
(dp3042
g7
Vhttp://www.ebi.ac.uk/chemblws/compounds/CHEMBL104367.json
p3043
sg9
F-2.3978952727983707
sg10
VCHEMBL104367
p3044
sg12
I1
sbag2
(g3
g4
NtRp3045
(dp3046
g7
Vhttp://www.ebi.ac.uk/chemblws/compounds/CHEMBL46740.json
p3047
sg9
F0.51082562376599072
sg10
VCHEMBL46740
p3048
sg12
I1
sbag2
(g3
g4
NtRp3049
(dp3050
g7
Vhttp://www.ebi.ac.uk/chemblws/compounds/CHEMBL441457.json
p3051
sg9
F-3.2347491740244907
sg10
VCHEMBL441457
p3052
sg12
I1
sbag2
(g3
g4
NtRp3053
(dp3054
g7
Vhttp://www.ebi.ac.uk/chemblws/compounds/CHEMBL189287.json
p3055
sg9
F-5.2470240721604862
sg10
VCHEMBL189287
p3056
sg12
I1
sbag2
(g3
g4
NtRp3057
(dp3058
g7
Vhttp://www.ebi.ac.uk/chemblws/compounds/CHEMBL93326.json
p3059
sg9
F-3.9815490680767565
sg10
VCHEMBL93326
p3060
sg12
I1
sbag2
(g3
g4
NtRp3061
(dp3062
g7
Vhttp://www.ebi.ac.uk/chemblws/compounds/CHEMBL93391.json
p3063
sg9
F-2.0794415416798357
sg10
VCHEMBL93391
p3064
sg12
I1
sbag2
(g3
g4
NtRp3065
(dp3066
g7
Vhttp://www.ebi.ac.uk/chemblws/compounds/CHEMBL198089.json
p3067
sg9
F-6.2225762680713688
sg10
VCHEMBL198089
p3068
sg12
I1
sbag2
(g3
g4
NtRp3069
(dp3070
g7
Vhttp://www.ebi.ac.uk/chemblws/compounds/CHEMBL185012.json
p3071
sg9
F-3.1354942159291497
sg10
VCHEMBL185012
p3072
sg12
I1
sbag2
(g3
g4
NtRp3073
(dp3074
g7
Vhttp://www.ebi.ac.uk/chemblws/compounds/CHEMBL122237.json
p3075
sg9
F-0.83290912293510388
sg10
VCHEMBL122237
p3076
sg12
I1
sbag2
(g3
g4
NtRp3077
(dp3078
g7
Vhttp://www.ebi.ac.uk/chemblws/compounds/CHEMBL361005.json
p3079
sg9
F0.22314355131420971
sg10
VCHEMBL361005
p3080
sg12
I1
sbag2
(g3
g4
NtRp3081
(dp3082
g7
Vhttp://www.ebi.ac.uk/chemblws/compounds/CHEMBL184679.json
p3083
sg9
F0.69314718055994529
sg10
VCHEMBL184679
p3084
sg12
I1
sbag2
(g3
g4
NtRp3085
(dp3086
g7
Vhttp://www.ebi.ac.uk/chemblws/compounds/CHEMBL187105.json
p3087
sg9
F-2.0794415416798357
sg10
VCHEMBL187105
p3088
sg12
I1
sbag2
(g3
g4
NtRp3089
(dp3090
g7
Vhttp://www.ebi.ac.uk/chemblws/compounds/CHEMBL1405.json
p3091
sg9
F-4.5643481914678361
sg10
VCHEMBL1405
p3092
sg12
I1
sbag2
(g3
g4
NtRp3093
(dp3094
g7
Vhttp://www.ebi.ac.uk/chemblws/compounds/CHEMBL98558.json
p3095
sg9
F-3.6841181370122258
sg10
VCHEMBL98558
p3096
sg12
I1
sbag2
(g3
g4
NtRp3097
(dp3098
g7
Vhttp://www.ebi.ac.uk/chemblws/compounds/CHEMBL188528.json
p3099
sg9
F-5.0434251169192468
sg10
VCHEMBL188528
p3100
sg12
I1
sbag2
(g3
g4
NtRp3101
(dp3102
g7
Vhttp://www.ebi.ac.uk/chemblws/compounds/CHEMBL181368.json
p3103
sg9
F1.2039728043259361
sg10
VCHEMBL181368
p3104
sg12
I1
sbag2
(g3
g4
NtRp3105
(dp3106
g7
Vhttp://www.ebi.ac.uk/chemblws/compounds/CHEMBL195290.json
p3107
sg9
F-5.5373342670185366
sg10
VCHEMBL195290
p3108
sg12
I1
sbag2
(g3
g4
NtRp3109
(dp3110
g7
Vhttp://www.ebi.ac.uk/chemblws/compounds/CHEMBL103294.json
p3111
sg9
F-3.5550623063795967
sg10
VCHEMBL103294
p3112
sg12
I1
sbag2
(g3
g4
NtRp3113
(dp3114
g7
Vhttp://www.ebi.ac.uk/chemblws/compounds/CHEMBL363412.json
p3115
sg9
F-3.6635616461296463
sg10
VCHEMBL363412
p3116
sg12
I1
sbag2
(g3
g4
NtRp3117
(dp3118
g7
Vhttp://www.ebi.ac.uk/chemblws/compounds/CHEMBL79335.json
p3119
sg9
F-6.9077552789821368
sg10
VCHEMBL79335
p3120
sg12
I1
sbag2
(g3
g4
NtRp3121
(dp3122
g7
Vhttp://www.ebi.ac.uk/chemblws/compounds/CHEMBL327471.json
p3123
sg9
F-3.1179499062782403
sg10
VCHEMBL327471
p3124
sg12
I1
sbag2
(g3
g4
NtRp3125
(dp3126
g7
Vhttp://www.ebi.ac.uk/chemblws/compounds/CHEMBL195389.json
p3127
sg9
F-3.6888794541139363
sg10
VCHEMBL195389
p3128
sg12
I1
sbag2
(g3
g4
NtRp3129
(dp3130
g7
Vhttp://www.ebi.ac.uk/chemblws/compounds/CHEMBL360189.json
p3131
sg9
F-5.3471075307174685
sg10
VCHEMBL360189
p3132
sg12
I1
sbag2
(g3
g4
NtRp3133
(dp3134
g7
Vhttp://www.ebi.ac.uk/chemblws/compounds/CHEMBL71585.json
p3135
sg9
F-1.824549292051046
sg10
VCHEMBL71585
p3136
sg12
I1
sbag2
(g3
g4
NtRp3137
(dp3138
g7
Vhttp://www.ebi.ac.uk/chemblws/compounds/CHEMBL100763.json
p3139
sg9
F-3.2950958507796098
sg10
VCHEMBL100763
p3140
sg12
I1
sbag2
(g3
g4
NtRp3141
(dp3142
g7
Vhttp://www.ebi.ac.uk/chemblws/compounds/CHEMBL365484.json
p3143
sg9
F-1.9878743481543455
sg10
VCHEMBL365484
p3144
sg12
I1
sbag2
(g3
g4
NtRp3145
(dp3146
g7
Vhttp://www.ebi.ac.uk/chemblws/compounds/CHEMBL103.json
p3147
sg9
F-6.9077552789821368
sg10
VCHEMBL103
p3148
sg12
I1
sbag2
(g3
g4
NtRp3149
(dp3150
g7
Vhttp://www.ebi.ac.uk/chemblws/compounds/CHEMBL91052.json
p3151
sg9
F-3.4242626545931514
sg10
VCHEMBL91052
p3152
sg12
I1
sbag2
(g3
g4
NtRp3153
(dp3154
g7
Vhttp://www.ebi.ac.uk/chemblws/compounds/CHEMBL311034.json
p3155
sg9
F-6.9077552789821368
sg10
VCHEMBL311034
p3156
sg12
I1
sbag2
(g3
g4
NtRp3157
(dp3158
g7
Vhttp://www.ebi.ac.uk/chemblws/compounds/CHEMBL92335.json
p3159
sg9
F-3.5524868292083815
sg10
VCHEMBL92335
p3160
sg12
I1
sbag2
(g3
g4
NtRp3161
(dp3162
g7
Vhttp://www.ebi.ac.uk/chemblws/compounds/CHEMBL189077.json
p3163
sg9
F-3.5553480614894135
sg10
VCHEMBL189077
p3164
sg12
I1
sbag2
(g3
g4
NtRp3165
(dp3166
g7
Vhttp://www.ebi.ac.uk/chemblws/compounds/CHEMBL1627351.json
p3167
sg9
F-3.4657359027997265
sg10
VCHEMBL1627351
p3168
sg12
I1
sbag2
(g3
g4
NtRp3169
(dp3170
g7
Vhttp://www.ebi.ac.uk/chemblws/compounds/CHEMBL360338.json
p3171
sg9
F-3.8918202981106265
sg10
VCHEMBL360338
p3172
sg12
I1
sbag2
(g3
g4
NtRp3173
(dp3174
g7
Vhttp://www.ebi.ac.uk/chemblws/compounds/CHEMBL178857.json
p3175
sg9
F-0.97455963999813078
sg10
VCHEMBL178857
p3176
sg12
I1
sbag2
(g3
g4
NtRp3177
(dp3178
g7
Vhttp://www.ebi.ac.uk/chemblws/compounds/CHEMBL90008.json
p3179
sg9
F-3.7541989202345789
sg10
VCHEMBL90008
p3180
sg12
I1
sbag2
(g3
g4
NtRp3181
(dp3182
g7
Vhttp://www.ebi.ac.uk/chemblws/compounds/CHEMBL188882.json
p3183
sg9
F-6.7031881132408628
sg10
VCHEMBL188882
p3184
sg12
I1
sbag2
(g3
g4
NtRp3185
(dp3186
g7
Vhttp://www.ebi.ac.uk/chemblws/compounds/CHEMBL360385.json
p3187
sg9
F-5.3423342519648109
sg10
VCHEMBL360385
p3188
sg12
I1
sbag2
(g3
g4
NtRp3189
(dp3190
g7
Vhttp://www.ebi.ac.uk/chemblws/compounds/CHEMBL182980.json
p3191
sg9
F0.69314718055994529
sg10
VCHEMBL182980
p3192
sg12
I1
sbag2
(g3
g4
NtRp3193
(dp3194
g7
Vhttp://www.ebi.ac.uk/chemblws/compounds/CHEMBL195039.json
p3195
sg9
F-4.7535901911063645
sg10
VCHEMBL195039
p3196
sg12
I1
sbag2
(g3
g4
NtRp3197
(dp3198
g7
Vhttp://www.ebi.ac.uk/chemblws/compounds/CHEMBL319211.json
p3199
sg9
F-3.6633052029945059
sg10
VCHEMBL319211
p3200
sg12
I1
sbag2
(g3
g4
NtRp3201
(dp3202
g7
Vhttp://www.ebi.ac.uk/chemblws/compounds/CHEMBL180085.json
p3203
sg9
F-2.5649493574615367
sg10
VCHEMBL180085
p3204
sg12
I1
sbag2
(g3
g4
NtRp3205
(dp3206
g7
Vhttp://www.ebi.ac.uk/chemblws/compounds/CHEMBL183162.json
p3207
sg9
F-0.87546873735389985
sg10
VCHEMBL183162
p3208
sg12
I1
sbag2
(g3
g4
NtRp3209
(dp3210
g7
Vhttp://www.ebi.ac.uk/chemblws/compounds/CHEMBL427324.json
p3211
sg9
F1.2039728043259361
sg10
VCHEMBL427324
p3212
sg12
I1
sbag2
(g3
g4
NtRp3213
(dp3214
g7
Vhttp://www.ebi.ac.uk/chemblws/compounds/CHEMBL357824.json
p3215
sg9
F-3.912023005428146
sg10
VCHEMBL357824
p3216
sg12
I1
sbag2
(g3
g4
NtRp3217
(dp3218
g7
Vhttp://www.ebi.ac.uk/chemblws/compounds/CHEMBL1087418.json
p3219
sg9
F-1.3862943611198906
sg10
VCHEMBL1087418
p3220
sg12
I1
sbag2
(g3
g4
NtRp3221
(dp3222
g7
Vhttp://www.ebi.ac.uk/chemblws/compounds/CHEMBL1094732.json
p3223
sg9
F-5.4939663835528538
sg10
VCHEMBL1094732
p3224
sg12
I1
sbag2
(g3
g4
NtRp3225
(dp3226
g7
Vhttp://www.ebi.ac.uk/chemblws/compounds/CHEMBL1097377.json
p3227
sg9
F-4.3081109517237133
sg10
VCHEMBL1097377
p3228
sg12
I1
sbag2
(g3
g4
NtRp3229
(dp3230
g7
Vhttp://www.ebi.ac.uk/chemblws/compounds/CHEMBL425246.json
p3231
sg9
F-6.1527326947041043
sg10
VCHEMBL425246
p3232
sg12
I1
sbag2
(g3
g4
NtRp3233
(dp3234
g7
Vhttp://www.ebi.ac.uk/chemblws/compounds/CHEMBL380032.json
p3235
sg9
F-6.4967749901858625
sg10
VCHEMBL380032
p3236
sg12
I1
sbag2
(g3
g4
NtRp3237
(dp3238
g7
Vhttp://www.ebi.ac.uk/chemblws/compounds/CHEMBL211349.json
p3239
sg9
F-3.8286413964890951
sg10
VCHEMBL211349
p3240
sg12
I1
sbag2
(g3
g4
NtRp3241
(dp3242
g7
Vhttp://www.ebi.ac.uk/chemblws/compounds/CHEMBL234524.json
p3243
sg9
F-4.4308167988433134
sg10
VCHEMBL234524
p3244
sg12
I1
sbag2
(g3
g4
NtRp3245
(dp3246
g7
Vhttp://www.ebi.ac.uk/chemblws/compounds/CHEMBL396947.json
p3247
sg9
F-6.6871086078665147
sg10
VCHEMBL396947
p3248
sg12
I1
sbag2
(g3
g4
NtRp3249
(dp3250
g7
Vhttp://www.ebi.ac.uk/chemblws/compounds/CHEMBL203340.json
p3251
sg9
F-6.261491684321042
sg10
VCHEMBL203340
p3252
sg12
I1
sbag2
(g3
g4
NtRp3253
(dp3254
g7
Vhttp://www.ebi.ac.uk/chemblws/compounds/CHEMBL380720.json
p3255
sg9
F-6.3716118472318568
sg10
VCHEMBL380720
p3256
sg12
I1
sbag2
(g3
g4
NtRp3257
(dp3258
g7
Vhttp://www.ebi.ac.uk/chemblws/compounds/CHEMBL205614.json
p3259
sg9
F-6.9077552789821368
sg10
VCHEMBL205614
p3260
sg12
I1
sbag2
(g3
g4
NtRp3261
(dp3262
g7
Vhttp://www.ebi.ac.uk/chemblws/compounds/CHEMBL481189.json
p3263
sg9
F-2.9957322735539909
sg10
VCHEMBL481189
p3264
sg12
I1
sbag2
(g3
g4
NtRp3265
(dp3266
g7
Vhttp://www.ebi.ac.uk/chemblws/compounds/CHEMBL519599.json
p3267
sg9
F-6.9077552789821368
sg10
VCHEMBL519599
p3268
sg12
I1
sbag2
(g3
g4
NtRp3269
(dp3270
g7
Vhttp://www.ebi.ac.uk/chemblws/compounds/CHEMBL222453.json
p3271
sg9
F-3.9512437185814275
sg10
VCHEMBL222453
p3272
sg12
I1
sbag2
(g3
g4
NtRp3273
(dp3274
g7
Vhttp://www.ebi.ac.uk/chemblws/compounds/CHEMBL1087297.json
p3275
sg9
F-1.5040773967762742
sg10
VCHEMBL1087297
p3276
sg12
I1
sbag2
(g3
g4
NtRp3277
(dp3278
g7
Vhttp://www.ebi.ac.uk/chemblws/compounds/CHEMBL1087426.json
p3279
sg9
F-1.4350845252893227
sg10
VCHEMBL1087426
p3280
sg12
I1
sbag2
(g3
g4
NtRp3281
(dp3282
g7
Vhttp://www.ebi.ac.uk/chemblws/compounds/CHEMBL1088485.json
p3283
sg9
F-0.095310179804324935
sg10
VCHEMBL1088485
p3284
sg12
I1
sbag2
(g3
g4
NtRp3285
(dp3286
g7
Vhttp://www.ebi.ac.uk/chemblws/compounds/CHEMBL183889.json
p3287
sg9
F-4.6347289882296359
sg10
VCHEMBL183889
p3288
sg12
I1
sbag2
(g3
g4
NtRp3289
(dp3290
g7
Vhttp://www.ebi.ac.uk/chemblws/compounds/CHEMBL1083805.json
p3291
sg9
F-6.9077552789821368
sg10
VCHEMBL1083805
p3292
sg12
I1
sbag2
(g3
g4
NtRp3293
(dp3294
g7
Vhttp://www.ebi.ac.uk/chemblws/compounds/CHEMBL1085161.json
p3295
sg9
F-1.5686159179138452
sg10
VCHEMBL1085161
p3296
sg12
I1
sbag2
(g3
g4
NtRp3297
(dp3298
g7
Vhttp://www.ebi.ac.uk/chemblws/compounds/CHEMBL1082864.json
p3299
sg9
F-1.8405496333974869
sg10
VCHEMBL1082864
p3300
sg12
I1
sbag2
(g3
g4
NtRp3301
(dp3302
g7
Vhttp://www.ebi.ac.uk/chemblws/compounds/CHEMBL225514.json
p3303
sg9
F-4.1271343850450917
sg10
VCHEMBL225514
p3304
sg12
I1
sbag2
(g3
g4
NtRp3305
(dp3306
g7
Vhttp://www.ebi.ac.uk/chemblws/compounds/CHEMBL222454.json
p3307
sg9
F-3.6109179126442243
sg10
VCHEMBL222454
p3308
sg12
I1
sbag2
(g3
g4
NtRp3309
(dp3310
g7
Vhttp://www.ebi.ac.uk/chemblws/compounds/CHEMBL215593.json
p3311
sg9
F-6.1202974189509503
sg10
VCHEMBL215593
p3312
sg12
I1
sbag2
(g3
g4
NtRp3313
(dp3314
g7
Vhttp://www.ebi.ac.uk/chemblws/compounds/CHEMBL391909.json
p3315
sg9
F-3.6109179126442243
sg10
VCHEMBL391909
p3316
sg12
I1
sbag2
(g3
g4
NtRp3317
(dp3318
g7
Vhttp://www.ebi.ac.uk/chemblws/compounds/CHEMBL241256.json
p3319
sg9
F-1.8870696490323797
sg10
VCHEMBL241256
p3320
sg12
I1
sbag2
(g3
g4
NtRp3321
(dp3322
g7
Vhttp://www.ebi.ac.uk/chemblws/compounds/CHEMBL241484.json
p3323
sg9
F-2.3125354238472138
sg10
VCHEMBL241484
p3324
sg12
I1
sbag2
(g3
g4
NtRp3325
(dp3326
g7
Vhttp://www.ebi.ac.uk/chemblws/compounds/CHEMBL396119.json
p3327
sg9
F-1.589235205116581
sg10
VCHEMBL396119
p3328
sg12
I1
sbag2
(g3
g4
NtRp3329
(dp3330
g7
Vhttp://www.ebi.ac.uk/chemblws/compounds/CHEMBL1084129.json
p3331
sg9
F-2.1972245773362196
sg10
VCHEMBL1084129
p3332
sg12
I1
sbag2
(g3
g4
NtRp3333
(dp3334
g7
Vhttp://www.ebi.ac.uk/chemblws/compounds/CHEMBL1085172.json
p3335
sg9
F-5.7430031878094825
sg10
VCHEMBL1085172
p3336
sg12
I1
sbag2
(g3
g4
NtRp3337
(dp3338
g7
Vhttp://www.ebi.ac.uk/chemblws/compounds/CHEMBL372030.json
p3339
sg9
F-5.6419070709381138
sg10
VCHEMBL372030
p3340
sg12
I1
sbag2
(g3
g4
NtRp3341
(dp3342
g7
Vhttp://www.ebi.ac.uk/chemblws/compounds/CHEMBL382873.json
p3343
sg9
F-6.7638849085624351
sg10
VCHEMBL382873
p3344
sg12
I1
sbag2
(g3
g4
NtRp3345
(dp3346
g7
Vhttp://www.ebi.ac.uk/chemblws/compounds/CHEMBL202155.json
p3347
sg9
F-3.6888794541139363
sg10
VCHEMBL202155
p3348
sg12
I1
sbag2
(g3
g4
NtRp3349
(dp3350
g7
Vhttp://www.ebi.ac.uk/chemblws/compounds/CHEMBL437065.json
p3351
sg9
F-6.0520891689244172
sg10
VCHEMBL437065
p3352
sg12
I1
sbag2
(g3
g4
NtRp3353
(dp3354
g7
Vhttp://www.ebi.ac.uk/chemblws/compounds/CHEMBL381495.json
p3355
sg9
F-6.4457198193855785
sg10
VCHEMBL381495
p3356
sg12
I1
sbag2
(g3
g4
NtRp3357
(dp3358
g7
Vhttp://www.ebi.ac.uk/chemblws/compounds/CHEMBL92748.json
p3359
sg9
F0.69314718055994529
sg10
VCHEMBL92748
p3360
sg12
I1
sbag2
(g3
g4
NtRp3361
(dp3362
g7
Vhttp://www.ebi.ac.uk/chemblws/compounds/CHEMBL226267.json
p3363
sg9
F-3.068052935133617
sg10
VCHEMBL226267
p3364
sg12
I1
sbag2
(g3
g4
NtRp3365
(dp3366
g7
Vhttp://www.ebi.ac.uk/chemblws/compounds/CHEMBL226268.json
p3367
sg9
F-2.0541237336955462
sg10
VCHEMBL226268
p3368
sg12
I1
sbag2
(g3
g4
NtRp3369
(dp3370
g7
Vhttp://www.ebi.ac.uk/chemblws/compounds/CHEMBL226327.json
p3371
sg9
F-2.388762789235098
sg10
VCHEMBL226327
p3372
sg12
I1
sbag2
(g3
g4
NtRp3373
(dp3374
g7
Vhttp://www.ebi.ac.uk/chemblws/compounds/CHEMBL213838.json
p3375
sg9
F-6.5652649700353614
sg10
VCHEMBL213838
p3376
sg12
I1
sbag2
(g3
g4
NtRp3377
(dp3378
g7
Vhttp://www.ebi.ac.uk/chemblws/compounds/CHEMBL190467.json
p3379
sg9
F-5.6698809229805196
sg10
VCHEMBL190467
p3380
sg12
I1
sbag2
(g3
g4
NtRp3381
(dp3382
g7
Vhttp://www.ebi.ac.uk/chemblws/compounds/CHEMBL192849.json
p3383
sg9
F-5.1929568508902104
sg10
VCHEMBL192849
p3384
sg12
I1
sbag2
(g3
g4
NtRp3385
(dp3386
g7
Vhttp://www.ebi.ac.uk/chemblws/compounds/CHEMBL205119.json
p3387
sg9
F-5.4806389233419912
sg10
VCHEMBL205119
p3388
sg12
I1
sbag2
(g3
g4
NtRp3389
(dp3390
g7
Vhttp://www.ebi.ac.uk/chemblws/compounds/CHEMBL202607.json
p3391
sg9
F-2.7725887222397811
sg10
VCHEMBL202607
p3392
sg12
I1
sbag2
(g3
g4
NtRp3393
(dp3394
g7
Vhttp://www.ebi.ac.uk/chemblws/compounds/CHEMBL371637.json
p3395
sg9
F-1.9459101490553132
sg10
VCHEMBL371637
p3396
sg12
I1
sbag2
(g3
g4
NtRp3397
(dp3398
g7
Vhttp://www.ebi.ac.uk/chemblws/compounds/CHEMBL204315.json
p3399
sg9
F-6.1717005974109149
sg10
VCHEMBL204315
p3400
sg12
I1
sbag2
(g3
g4
NtRp3401
(dp3402
g7
Vhttp://www.ebi.ac.uk/chemblws/compounds/CHEMBL210143.json
p3403
sg9
F-5.6094717951849598
sg10
VCHEMBL210143
p3404
sg12
I1
sbag2
(g3
g4
NtRp3405
(dp3406
g7
Vhttp://www.ebi.ac.uk/chemblws/compounds/CHEMBL208085.json
p3407
sg9
F-3.9318256327243257
sg10
VCHEMBL208085
p3408
sg12
I1
sbag2
(g3
g4
NtRp3409
(dp3410
g7
Vhttp://www.ebi.ac.uk/chemblws/compounds/CHEMBL383112.json
p3411
sg9
F-4.6051701859880918
sg10
VCHEMBL383112
p3412
sg12
I1
sbag2
(g3
g4
NtRp3413
(dp3414
g7
Vhttp://www.ebi.ac.uk/chemblws/compounds/CHEMBL209978.json
p3415
sg9
F-4.7273878187123408
sg10
VCHEMBL209978
p3416
sg12
I1
sbag2
(g3
g4
NtRp3417
(dp3418
g7
Vhttp://www.ebi.ac.uk/chemblws/compounds/CHEMBL341367.json
p3419
sg9
F-2.7080502011022101
sg10
VCHEMBL341367
p3420
sg12
I1
sbag2
(g3
g4
NtRp3421
(dp3422
g7
Vhttp://www.ebi.ac.uk/chemblws/compounds/CHEMBL357283.json
p3423
sg9
F-2.1972245773362196
sg10
VCHEMBL357283
p3424
sg12
I1
sbag2
(g3
g4
NtRp3425
(dp3426
g7
Vhttp://www.ebi.ac.uk/chemblws/compounds/CHEMBL216596.json
p3427
sg9
F-5.9712618397904622
sg10
VCHEMBL216596
p3428
sg12
I1
sbag2
(g3
g4
NtRp3429
(dp3430
g7
Vhttp://www.ebi.ac.uk/chemblws/compounds/CHEMBL1628029.json
p3431
sg9
F-5.2626901889048856
sg10
VCHEMBL1628029
p3432
sg12
I1
sbag2
(g3
g4
NtRp3433
(dp3434
g7
Vhttp://www.ebi.ac.uk/chemblws/compounds/CHEMBL188517.json
p3435
sg9
F-5.5174528964647074
sg10
VCHEMBL188517
p3436
sg12
I1
sbag2
(g3
g4
NtRp3437
(dp3438
g7
Vhttp://www.ebi.ac.uk/chemblws/compounds/CHEMBL513397.json
p3439
sg9
F-2.1713368063840917
sg10
VCHEMBL513397
p3440
sg12
I1
sbag2
(g3
g4
NtRp3441
(dp3442
g7
Vhttp://www.ebi.ac.uk/chemblws/compounds/CHEMBL121720.json
p3443
sg9
F-0
sg10
VCHEMBL121720
p3444
sg12
I1
sbag2
(g3
g4
NtRp3445
(dp3446
g7
Vhttp://www.ebi.ac.uk/chemblws/compounds/CHEMBL1162.json
p3447
sg9
F-6.694562058521095
sg10
VCHEMBL1162
p3448
sg12
I1
sbag2
(g3
g4
NtRp3449
(dp3450
g7
Vhttp://www.ebi.ac.uk/chemblws/compounds/CHEMBL245378.json
p3451
sg9
F-5.7589017738772803
sg10
VCHEMBL245378
p3452
sg12
I1
sbag2
(g3
g4
NtRp3453
(dp3454
g7
Vhttp://www.ebi.ac.uk/chemblws/compounds/CHEMBL249700.json
p3455
sg9
F-6.4614681763537174
sg10
VCHEMBL249700
p3456
sg12
I1
sbag2
(g3
g4
NtRp3457
(dp3458
g7
Vhttp://www.ebi.ac.uk/chemblws/compounds/CHEMBL457035.json
p3459
sg9
F-6.5072777123850116
sg10
VCHEMBL457035
p3460
sg12
I1
sbag2
(g3
g4
NtRp3461
(dp3462
g7
Vhttp://www.ebi.ac.uk/chemblws/compounds/CHEMBL1818254.json
p3463
sg9
F-0.10436001532424286
sg10
VCHEMBL1818254
p3464
sg12
I1
sbag2
(g3
g4
NtRp3465
(dp3466
g7
Vhttp://www.ebi.ac.uk/chemblws/compounds/CHEMBL1782331.json
p3467
sg9
F-4.4543472962535073
sg10
VCHEMBL1782331
p3468
sg12
I1
sbag2
(g3
g4
NtRp3469
(dp3470
g7
Vhttp://www.ebi.ac.uk/chemblws/compounds/CHEMBL2103774.json
p3471
sg9
F-6.0714303287458637
sg10
VCHEMBL2103774
p3472
sg12
I1
sbag2
(g3
g4
NtRp3473
(dp3474
g7
Vhttp://www.ebi.ac.uk/chemblws/compounds/CHEMBL2024377.json
p3475
sg9
F1.6094379124341003
sg10
VCHEMBL2024377
p3476
sg12
I1
sbag2
(g3
g4
NtRp3477
(dp3478
g7
Vhttp://www.ebi.ac.uk/chemblws/compounds/CHEMBL2024376.json
p3479
sg9
F0.51082562376599072
sg10
VCHEMBL2024376
p3480
sg12
I1
sbag2
(g3
g4
NtRp3481
(dp3482
g7
Vhttp://www.ebi.ac.uk/chemblws/compounds/CHEMBL2113002.json
p3483
sg9
F-0.40546510810816438
sg10
VCHEMBL2113002
p3484
sg12
I1
sbag2
(g3
g4
NtRp3485
(dp3486
g7
Vhttp://www.ebi.ac.uk/chemblws/compounds/CHEMBL2111532.json
p3487
sg9
F-1.0986122886681098
sg10
VCHEMBL2111532
p3488
sg12
I1
sbag2
(g3
g4
NtRp3489
(dp3490
g7
Vhttp://www.ebi.ac.uk/chemblws/compounds/CHEMBL2112469.json
p3491
sg9
F-5.4595855141441589
sg10
VCHEMBL2112469
p3492
sg12
I1
sbag2
(g3
g4
NtRp3493
(dp3494
g7
Vhttp://www.ebi.ac.uk/chemblws/compounds/CHEMBL2113027.json
p3495
sg9
F-0.095310179804324935
sg10
VCHEMBL2113027
p3496
sg12
I1
sbag2
(g3
g4
NtRp3497
(dp3498
g7
Vhttp://www.ebi.ac.uk/chemblws/compounds/CHEMBL2113001.json
p3499
sg9
F0.030459207484708574
sg10
VCHEMBL2113001
p3500
sg12
I1
sbag2
(g3
g4
NtRp3501
(dp3502
g7
Vhttp://www.ebi.ac.uk/chemblws/compounds/CHEMBL2071180.json
p3503
sg9
F-5.6698809229805196
sg10
VCHEMBL2071180
p3504
sg12
I1
sbag2
(g3
g4
NtRp3505
(dp3506
g7
Vhttp://www.ebi.ac.uk/chemblws/compounds/CHEMBL1208076.json
p3507
sg9
F-5.1357984370502621
sg10
VCHEMBL1208076
p3508
sg12
I1
sbag2
(g3
g4
NtRp3509
(dp3510
g7
Vhttp://www.ebi.ac.uk/chemblws/compounds/CHEMBL2403361.json
p3511
sg9
F-4.5951198501345898
sg10
VCHEMBL2403361
p3512
sg12
I1
sbag2
(g3
g4
NtRp3513
(dp3514
g7
Vhttp://www.ebi.ac.uk/chemblws/compounds/CHEMBL2403363.json
p3515
sg9
F-6.1944053911046719
sg10
VCHEMBL2403363
p3516
sg12
I1
sbag2
(g3
g4
NtRp3517
(dp3518
g7
Vhttp://www.ebi.ac.uk/chemblws/compounds/CHEMBL2403346.json
p3519
sg9
F-4.7004803657924166
sg10
VCHEMBL2403346
p3520
sg12
I1
sbag2
(g3
g4
NtRp3521
(dp3522
g7
Vhttp://www.ebi.ac.uk/chemblws/compounds/CHEMBL2403357.json
p3523
sg9
F-2.6390573296152584
sg10
VCHEMBL2403357
p3524
sg12
I1
sbag2
(g3
g4
NtRp3525
(dp3526
g7
Vhttp://www.ebi.ac.uk/chemblws/compounds/CHEMBL2403359.json
p3527
sg9
F-5.4380793089231956
sg10
VCHEMBL2403359
p3528
sg12
I1
sbag2
(g3
g4
NtRp3529
(dp3530
g7
Vhttp://www.ebi.ac.uk/chemblws/compounds/CHEMBL2403358.json
p3531
sg9
F-4.4308167988433134
sg10
VCHEMBL2403358
p3532
sg12
I1
sbag2
(g3
g4
NtRp3533
(dp3534
g7
Vhttp://www.ebi.ac.uk/chemblws/compounds/CHEMBL2403360.json
p3535
sg9
F-5.4380793089231956
sg10
VCHEMBL2403360
p3536
sg12
I1
sbag2
(g3
g4
NtRp3537
(dp3538
g7
Vhttp://www.ebi.ac.uk/chemblws/compounds/CHEMBL2401849.json
p3539
sg9
F-4.8441870864585912
sg10
VCHEMBL2401849
p3540
sg12
I1
sbag2
(g3
g4
NtRp3541
(dp3542
g7
Vhttp://www.ebi.ac.uk/chemblws/compounds/CHEMBL2403362.json
p3543
sg9
F-4.3694478524670215
sg10
VCHEMBL2403362
p3544
sg12
I1
sbag2
(g3
g4
NtRp3545
(dp3546
g7
Vhttp://www.ebi.ac.uk/chemblws/compounds/CHEMBL2403349.json
p3547
sg9
F-4.2766661190160553
sg10
VCHEMBL2403349
p3548
sg12
I1
sbag2
(g3
g4
NtRp3549
(dp3550
g7
Vhttp://www.ebi.ac.uk/chemblws/compounds/CHEMBL2403356.json
p3551
sg9
F-1.589235205116581
sg10
VCHEMBL2403356
p3552
sg12
I1
sbag2
(g3
g4
NtRp3553
(dp3554
g7
Vhttp://www.ebi.ac.uk/chemblws/compounds/CHEMBL2401848.json
p3555
sg9
F-5.5134287461649825
sg10
VCHEMBL2401848
p3556
sg12
I1
sbag2
(g3
g4
NtRp3557
(dp3558
g7
Vhttp://www.ebi.ac.uk/chemblws/compounds/CHEMBL2403348.json
p3559
sg9
F-4.5849674786705723
sg10
VCHEMBL2403348
p3560
sg12
I1
sbag2
(g3
g4
NtRp3561
(dp3562
g7
Vhttp://www.ebi.ac.uk/chemblws/compounds/CHEMBL2403347.json
p3563
sg9
F-4.3040650932041702
sg10
VCHEMBL2403347
p3564
sg12
I1
sbag2
(g3
g4
NtRp3565
(dp3566
g7
Vhttp://www.ebi.ac.uk/chemblws/compounds/CHEMBL2403355.json
p3567
sg9
F-3.2188758248682006
sg10
VCHEMBL2403355
p3568
sg12
I1
sba.